Archive member included to satisfy reference by file (symbol)

c:/altera/15.0/nios2eds/bin/gnu/h-x86_64-mingw32/bin/../lib/gcc/nios2-elf/4.9.1/../../../../../H-x86_64-mingw32/nios2-elf/lib/mno-hw-mul\libc.a(lib_a-puts.o)
                              obj/default/hello_ucosii.o (puts)
c:/altera/15.0/nios2eds/bin/gnu/h-x86_64-mingw32/bin/../lib/gcc/nios2-elf/4.9.1/../../../../../H-x86_64-mingw32/nios2-elf/lib/mno-hw-mul\libc.a(lib_a-strlen.o)
                              c:/altera/15.0/nios2eds/bin/gnu/h-x86_64-mingw32/bin/../lib/gcc/nios2-elf/4.9.1/../../../../../H-x86_64-mingw32/nios2-elf/lib/mno-hw-mul\libc.a(lib_a-puts.o) (strlen)
c:/altera/15.0/nios2eds/bin/gnu/h-x86_64-mingw32/bin/../lib/gcc/nios2-elf/4.9.1/../../../../../H-x86_64-mingw32/nios2-elf/lib/mno-hw-mul\libc.a(lib_a-fvwrite.o)
                              c:/altera/15.0/nios2eds/bin/gnu/h-x86_64-mingw32/bin/../lib/gcc/nios2-elf/4.9.1/../../../../../H-x86_64-mingw32/nios2-elf/lib/mno-hw-mul\libc.a(lib_a-puts.o) (__sfvwrite_r)
c:/altera/15.0/nios2eds/bin/gnu/h-x86_64-mingw32/bin/../lib/gcc/nios2-elf/4.9.1/../../../../../H-x86_64-mingw32/nios2-elf/lib/mno-hw-mul\libc.a(lib_a-impure.o)
                              c:/altera/15.0/nios2eds/bin/gnu/h-x86_64-mingw32/bin/../lib/gcc/nios2-elf/4.9.1/../../../../../H-x86_64-mingw32/nios2-elf/lib/mno-hw-mul\libc.a(lib_a-puts.o) (_impure_ptr)
c:/altera/15.0/nios2eds/bin/gnu/h-x86_64-mingw32/bin/../lib/gcc/nios2-elf/4.9.1/../../../../../H-x86_64-mingw32/nios2-elf/lib/mno-hw-mul\libc.a(lib_a-mallocr.o)
                              c:/altera/15.0/nios2eds/bin/gnu/h-x86_64-mingw32/bin/../lib/gcc/nios2-elf/4.9.1/../../../../../H-x86_64-mingw32/nios2-elf/lib/mno-hw-mul\libc.a(lib_a-fvwrite.o) (_malloc_r)
c:/altera/15.0/nios2eds/bin/gnu/h-x86_64-mingw32/bin/../lib/gcc/nios2-elf/4.9.1/../../../../../H-x86_64-mingw32/nios2-elf/lib/mno-hw-mul\libc.a(lib_a-memchr.o)
                              c:/altera/15.0/nios2eds/bin/gnu/h-x86_64-mingw32/bin/../lib/gcc/nios2-elf/4.9.1/../../../../../H-x86_64-mingw32/nios2-elf/lib/mno-hw-mul\libc.a(lib_a-fvwrite.o) (memchr)
c:/altera/15.0/nios2eds/bin/gnu/h-x86_64-mingw32/bin/../lib/gcc/nios2-elf/4.9.1/../../../../../H-x86_64-mingw32/nios2-elf/lib/mno-hw-mul\libc.a(lib_a-memcpy.o)
                              c:/altera/15.0/nios2eds/bin/gnu/h-x86_64-mingw32/bin/../lib/gcc/nios2-elf/4.9.1/../../../../../H-x86_64-mingw32/nios2-elf/lib/mno-hw-mul\libc.a(lib_a-fvwrite.o) (memcpy)
c:/altera/15.0/nios2eds/bin/gnu/h-x86_64-mingw32/bin/../lib/gcc/nios2-elf/4.9.1/../../../../../H-x86_64-mingw32/nios2-elf/lib/mno-hw-mul\libc.a(lib_a-memmove.o)
                              c:/altera/15.0/nios2eds/bin/gnu/h-x86_64-mingw32/bin/../lib/gcc/nios2-elf/4.9.1/../../../../../H-x86_64-mingw32/nios2-elf/lib/mno-hw-mul\libc.a(lib_a-fvwrite.o) (memmove)
c:/altera/15.0/nios2eds/bin/gnu/h-x86_64-mingw32/bin/../lib/gcc/nios2-elf/4.9.1/../../../../../H-x86_64-mingw32/nios2-elf/lib/mno-hw-mul\libc.a(lib_a-reallocr.o)
                              c:/altera/15.0/nios2eds/bin/gnu/h-x86_64-mingw32/bin/../lib/gcc/nios2-elf/4.9.1/../../../../../H-x86_64-mingw32/nios2-elf/lib/mno-hw-mul\libc.a(lib_a-fvwrite.o) (_realloc_r)
c:/altera/15.0/nios2eds/bin/gnu/h-x86_64-mingw32/bin/../lib/gcc/nios2-elf/4.9.1/../../../../../H-x86_64-mingw32/nios2-elf/lib/mno-hw-mul\libc.a(lib_a-sbrkr.o)
                              c:/altera/15.0/nios2eds/bin/gnu/h-x86_64-mingw32/bin/../lib/gcc/nios2-elf/4.9.1/../../../../../H-x86_64-mingw32/nios2-elf/lib/mno-hw-mul\libc.a(lib_a-mallocr.o) (_sbrk_r)
c:/altera/15.0/nios2eds/bin/gnu/h-x86_64-mingw32/bin/../lib/gcc/nios2-elf/4.9.1/../../../../../H-x86_64-mingw32/nios2-elf/lib/mno-hw-mul\libc.a(lib_a-wsetup.o)
                              c:/altera/15.0/nios2eds/bin/gnu/h-x86_64-mingw32/bin/../lib/gcc/nios2-elf/4.9.1/../../../../../H-x86_64-mingw32/nios2-elf/lib/mno-hw-mul\libc.a(lib_a-fvwrite.o) (__swsetup_r)
c:/altera/15.0/nios2eds/bin/gnu/h-x86_64-mingw32/bin/../lib/gcc/nios2-elf/4.9.1/../../../../../H-x86_64-mingw32/nios2-elf/lib/mno-hw-mul\libc.a(lib_a-fflush.o)
                              c:/altera/15.0/nios2eds/bin/gnu/h-x86_64-mingw32/bin/../lib/gcc/nios2-elf/4.9.1/../../../../../H-x86_64-mingw32/nios2-elf/lib/mno-hw-mul\libc.a(lib_a-fvwrite.o) (_fflush_r)
c:/altera/15.0/nios2eds/bin/gnu/h-x86_64-mingw32/bin/../lib/gcc/nios2-elf/4.9.1/../../../../../H-x86_64-mingw32/nios2-elf/lib/mno-hw-mul\libc.a(lib_a-findfp.o)
                              c:/altera/15.0/nios2eds/bin/gnu/h-x86_64-mingw32/bin/../lib/gcc/nios2-elf/4.9.1/../../../../../H-x86_64-mingw32/nios2-elf/lib/mno-hw-mul\libc.a(lib_a-wsetup.o) (__sinit)
c:/altera/15.0/nios2eds/bin/gnu/h-x86_64-mingw32/bin/../lib/gcc/nios2-elf/4.9.1/../../../../../H-x86_64-mingw32/nios2-elf/lib/mno-hw-mul\libc.a(lib_a-freer.o)
                              c:/altera/15.0/nios2eds/bin/gnu/h-x86_64-mingw32/bin/../lib/gcc/nios2-elf/4.9.1/../../../../../H-x86_64-mingw32/nios2-elf/lib/mno-hw-mul\libc.a(lib_a-fvwrite.o) (_free_r)
c:/altera/15.0/nios2eds/bin/gnu/h-x86_64-mingw32/bin/../lib/gcc/nios2-elf/4.9.1/../../../../../H-x86_64-mingw32/nios2-elf/lib/mno-hw-mul\libc.a(lib_a-fwalk.o)
                              c:/altera/15.0/nios2eds/bin/gnu/h-x86_64-mingw32/bin/../lib/gcc/nios2-elf/4.9.1/../../../../../H-x86_64-mingw32/nios2-elf/lib/mno-hw-mul\libc.a(lib_a-findfp.o) (_fwalk)
c:/altera/15.0/nios2eds/bin/gnu/h-x86_64-mingw32/bin/../lib/gcc/nios2-elf/4.9.1/../../../../../H-x86_64-mingw32/nios2-elf/lib/mno-hw-mul\libc.a(lib_a-int_errno.o)
                              c:/altera/15.0/nios2eds/bin/gnu/h-x86_64-mingw32/bin/../lib/gcc/nios2-elf/4.9.1/../../../../../H-x86_64-mingw32/nios2-elf/lib/mno-hw-mul\libc.a(lib_a-sbrkr.o) (errno)
c:/altera/15.0/nios2eds/bin/gnu/h-x86_64-mingw32/bin/../lib/gcc/nios2-elf/4.9.1/../../../../../H-x86_64-mingw32/nios2-elf/lib/mno-hw-mul\libc.a(lib_a-makebuf.o)
                              c:/altera/15.0/nios2eds/bin/gnu/h-x86_64-mingw32/bin/../lib/gcc/nios2-elf/4.9.1/../../../../../H-x86_64-mingw32/nios2-elf/lib/mno-hw-mul\libc.a(lib_a-wsetup.o) (__smakebuf_r)
c:/altera/15.0/nios2eds/bin/gnu/h-x86_64-mingw32/bin/../lib/gcc/nios2-elf/4.9.1/../../../../../H-x86_64-mingw32/nios2-elf/lib/mno-hw-mul\libc.a(lib_a-memset.o)
                              c:/altera/15.0/nios2eds/bin/gnu/h-x86_64-mingw32/bin/../lib/gcc/nios2-elf/4.9.1/../../../../../H-x86_64-mingw32/nios2-elf/lib/mno-hw-mul\libc.a(lib_a-findfp.o) (memset)
c:/altera/15.0/nios2eds/bin/gnu/h-x86_64-mingw32/bin/../lib/gcc/nios2-elf/4.9.1/../../../../../H-x86_64-mingw32/nios2-elf/lib/mno-hw-mul\libc.a(lib_a-stdio.o)
                              c:/altera/15.0/nios2eds/bin/gnu/h-x86_64-mingw32/bin/../lib/gcc/nios2-elf/4.9.1/../../../../../H-x86_64-mingw32/nios2-elf/lib/mno-hw-mul\libc.a(lib_a-findfp.o) (__sread)
c:/altera/15.0/nios2eds/bin/gnu/h-x86_64-mingw32/bin/../lib/gcc/nios2-elf/4.9.1/../../../../../H-x86_64-mingw32/nios2-elf/lib/mno-hw-mul\libc.a(lib_a-writer.o)
                              c:/altera/15.0/nios2eds/bin/gnu/h-x86_64-mingw32/bin/../lib/gcc/nios2-elf/4.9.1/../../../../../H-x86_64-mingw32/nios2-elf/lib/mno-hw-mul\libc.a(lib_a-stdio.o) (_write_r)
c:/altera/15.0/nios2eds/bin/gnu/h-x86_64-mingw32/bin/../lib/gcc/nios2-elf/4.9.1/../../../../../H-x86_64-mingw32/nios2-elf/lib/mno-hw-mul\libc.a(closer.o)
                              c:/altera/15.0/nios2eds/bin/gnu/h-x86_64-mingw32/bin/../lib/gcc/nios2-elf/4.9.1/../../../../../H-x86_64-mingw32/nios2-elf/lib/mno-hw-mul\libc.a(lib_a-stdio.o) (_close_r)
c:/altera/15.0/nios2eds/bin/gnu/h-x86_64-mingw32/bin/../lib/gcc/nios2-elf/4.9.1/../../../../../H-x86_64-mingw32/nios2-elf/lib/mno-hw-mul\libc.a(lib_a-fclose.o)
                              c:/altera/15.0/nios2eds/bin/gnu/h-x86_64-mingw32/bin/../lib/gcc/nios2-elf/4.9.1/../../../../../H-x86_64-mingw32/nios2-elf/lib/mno-hw-mul\libc.a(lib_a-findfp.o) (fclose)
c:/altera/15.0/nios2eds/bin/gnu/h-x86_64-mingw32/bin/../lib/gcc/nios2-elf/4.9.1/../../../../../H-x86_64-mingw32/nios2-elf/lib/mno-hw-mul\libc.a(lib_a-fstatr.o)
                              c:/altera/15.0/nios2eds/bin/gnu/h-x86_64-mingw32/bin/../lib/gcc/nios2-elf/4.9.1/../../../../../H-x86_64-mingw32/nios2-elf/lib/mno-hw-mul\libc.a(lib_a-makebuf.o) (_fstat_r)
c:/altera/15.0/nios2eds/bin/gnu/h-x86_64-mingw32/bin/../lib/gcc/nios2-elf/4.9.1/../../../../../H-x86_64-mingw32/nios2-elf/lib/mno-hw-mul\libc.a(lib_a-isattyr.o)
                              c:/altera/15.0/nios2eds/bin/gnu/h-x86_64-mingw32/bin/../lib/gcc/nios2-elf/4.9.1/../../../../../H-x86_64-mingw32/nios2-elf/lib/mno-hw-mul\libc.a(lib_a-makebuf.o) (_isatty_r)
c:/altera/15.0/nios2eds/bin/gnu/h-x86_64-mingw32/bin/../lib/gcc/nios2-elf/4.9.1/../../../../../H-x86_64-mingw32/nios2-elf/lib/mno-hw-mul\libc.a(lib_a-lseekr.o)
                              c:/altera/15.0/nios2eds/bin/gnu/h-x86_64-mingw32/bin/../lib/gcc/nios2-elf/4.9.1/../../../../../H-x86_64-mingw32/nios2-elf/lib/mno-hw-mul\libc.a(lib_a-stdio.o) (_lseek_r)
c:/altera/15.0/nios2eds/bin/gnu/h-x86_64-mingw32/bin/../lib/gcc/nios2-elf/4.9.1/../../../../../H-x86_64-mingw32/nios2-elf/lib/mno-hw-mul\libc.a(lib_a-readr.o)
                              c:/altera/15.0/nios2eds/bin/gnu/h-x86_64-mingw32/bin/../lib/gcc/nios2-elf/4.9.1/../../../../../H-x86_64-mingw32/nios2-elf/lib/mno-hw-mul\libc.a(lib_a-stdio.o) (_read_r)
c:/altera/15.0/nios2eds/bin/gnu/h-x86_64-mingw32/bin/../lib/gcc/nios2-elf/4.9.1/mno-hw-mul\libgcc.a(lib2-mul.o)
                              c:/altera/15.0/nios2eds/bin/gnu/h-x86_64-mingw32/bin/../lib/gcc/nios2-elf/4.9.1/../../../../../H-x86_64-mingw32/nios2-elf/lib/mno-hw-mul\libc.a(lib_a-findfp.o) (__mulsi3)
../UCOS_practica_bsp/\libucosii_bsp.a(alt_close.o)
                              c:/altera/15.0/nios2eds/bin/gnu/h-x86_64-mingw32/bin/../lib/gcc/nios2-elf/4.9.1/../../../../../H-x86_64-mingw32/nios2-elf/lib/mno-hw-mul\libc.a(closer.o) (close)
../UCOS_practica_bsp/\libucosii_bsp.a(alt_dev.o)
                              ../UCOS_practica_bsp/\libucosii_bsp.a(alt_close.o) (alt_fd_list)
../UCOS_practica_bsp/\libucosii_bsp.a(alt_errno.o)
                              ../UCOS_practica_bsp/\libucosii_bsp.a(alt_close.o) (alt_errno)
../UCOS_practica_bsp/\libucosii_bsp.a(alt_fstat.o)
                              c:/altera/15.0/nios2eds/bin/gnu/h-x86_64-mingw32/bin/../lib/gcc/nios2-elf/4.9.1/../../../../../H-x86_64-mingw32/nios2-elf/lib/mno-hw-mul\libc.a(lib_a-fstatr.o) (fstat)
../UCOS_practica_bsp/\libucosii_bsp.a(alt_isatty.o)
                              c:/altera/15.0/nios2eds/bin/gnu/h-x86_64-mingw32/bin/../lib/gcc/nios2-elf/4.9.1/../../../../../H-x86_64-mingw32/nios2-elf/lib/mno-hw-mul\libc.a(lib_a-isattyr.o) (isatty)
../UCOS_practica_bsp/\libucosii_bsp.a(alt_load.o)
                              ../UCOS_practica_bsp//obj/HAL/src/crt0.o (alt_load)
../UCOS_practica_bsp/\libucosii_bsp.a(alt_lseek.o)
                              c:/altera/15.0/nios2eds/bin/gnu/h-x86_64-mingw32/bin/../lib/gcc/nios2-elf/4.9.1/../../../../../H-x86_64-mingw32/nios2-elf/lib/mno-hw-mul\libc.a(lib_a-lseekr.o) (lseek)
../UCOS_practica_bsp/\libucosii_bsp.a(alt_main.o)
                              ../UCOS_practica_bsp//obj/HAL/src/crt0.o (alt_main)
../UCOS_practica_bsp/\libucosii_bsp.a(alt_read.o)
                              c:/altera/15.0/nios2eds/bin/gnu/h-x86_64-mingw32/bin/../lib/gcc/nios2-elf/4.9.1/../../../../../H-x86_64-mingw32/nios2-elf/lib/mno-hw-mul\libc.a(lib_a-readr.o) (read)
../UCOS_practica_bsp/\libucosii_bsp.a(alt_release_fd.o)
                              ../UCOS_practica_bsp/\libucosii_bsp.a(alt_close.o) (alt_release_fd)
../UCOS_practica_bsp/\libucosii_bsp.a(alt_sbrk.o)
                              c:/altera/15.0/nios2eds/bin/gnu/h-x86_64-mingw32/bin/../lib/gcc/nios2-elf/4.9.1/../../../../../H-x86_64-mingw32/nios2-elf/lib/mno-hw-mul\libc.a(lib_a-sbrkr.o) (sbrk)
../UCOS_practica_bsp/\libucosii_bsp.a(alt_write.o)
                              c:/altera/15.0/nios2eds/bin/gnu/h-x86_64-mingw32/bin/../lib/gcc/nios2-elf/4.9.1/../../../../../H-x86_64-mingw32/nios2-elf/lib/mno-hw-mul\libc.a(lib_a-writer.o) (write)
../UCOS_practica_bsp/\libucosii_bsp.a(alt_env_lock.o)
                              ../UCOS_practica_bsp/\libucosii_bsp.a(alt_main.o) (alt_envsem)
../UCOS_practica_bsp/\libucosii_bsp.a(alt_malloc_lock.o)
                              ../UCOS_practica_bsp/\libucosii_bsp.a(alt_main.o) (alt_heapsem)
../UCOS_practica_bsp/\libucosii_bsp.a(os_core.o)
                              ../UCOS_practica_bsp/\libucosii_bsp.a(alt_malloc_lock.o) (OSRunning)
../UCOS_practica_bsp/\libucosii_bsp.a(os_dbg.o)
                              ../UCOS_practica_bsp/\libucosii_bsp.a(os_core.o) (OSDebugInit)
../UCOS_practica_bsp/\libucosii_bsp.a(os_flag.o)
                              ../UCOS_practica_bsp/\libucosii_bsp.a(os_core.o) (OS_FlagInit)
../UCOS_practica_bsp/\libucosii_bsp.a(os_mem.o)
                              ../UCOS_practica_bsp/\libucosii_bsp.a(os_core.o) (OS_MemInit)
../UCOS_practica_bsp/\libucosii_bsp.a(os_q.o)
                              ../UCOS_practica_bsp/\libucosii_bsp.a(os_core.o) (OS_QInit)
../UCOS_practica_bsp/\libucosii_bsp.a(os_sem.o)
                              ../UCOS_practica_bsp/\libucosii_bsp.a(alt_main.o) (OSSemCreate)
../UCOS_practica_bsp/\libucosii_bsp.a(os_task.o)
                              obj/default/hello_ucosii.o (OSTaskCreateExt)
../UCOS_practica_bsp/\libucosii_bsp.a(os_time.o)
                              ../UCOS_practica_bsp/\libucosii_bsp.a(os_core.o) (OSTimeDly)
../UCOS_practica_bsp/\libucosii_bsp.a(alt_sys_init.o)
                              ../UCOS_practica_bsp/\libucosii_bsp.a(alt_main.o) (alt_irq_init)
../UCOS_practica_bsp/\libucosii_bsp.a(altera_avalon_jtag_uart_fd.o)
                              ../UCOS_practica_bsp/\libucosii_bsp.a(alt_sys_init.o) (altera_avalon_jtag_uart_read_fd)
../UCOS_practica_bsp/\libucosii_bsp.a(altera_avalon_jtag_uart_init.o)
                              ../UCOS_practica_bsp/\libucosii_bsp.a(alt_sys_init.o) (altera_avalon_jtag_uart_init)
../UCOS_practica_bsp/\libucosii_bsp.a(altera_avalon_jtag_uart_ioctl.o)
                              ../UCOS_practica_bsp/\libucosii_bsp.a(altera_avalon_jtag_uart_fd.o) (altera_avalon_jtag_uart_ioctl)
../UCOS_practica_bsp/\libucosii_bsp.a(altera_avalon_jtag_uart_read.o)
                              ../UCOS_practica_bsp/\libucosii_bsp.a(altera_avalon_jtag_uart_fd.o) (altera_avalon_jtag_uart_read)
../UCOS_practica_bsp/\libucosii_bsp.a(altera_avalon_jtag_uart_write.o)
                              ../UCOS_practica_bsp/\libucosii_bsp.a(altera_avalon_jtag_uart_fd.o) (altera_avalon_jtag_uart_write)
../UCOS_practica_bsp/\libucosii_bsp.a(altera_avalon_timer_sc.o)
                              ../UCOS_practica_bsp/\libucosii_bsp.a(alt_sys_init.o) (alt_avalon_timer_sc_init)
../UCOS_practica_bsp/\libucosii_bsp.a(altera_avalon_uart_fd.o)
                              ../UCOS_practica_bsp/\libucosii_bsp.a(alt_sys_init.o) (altera_avalon_uart_read_fd)
../UCOS_practica_bsp/\libucosii_bsp.a(altera_avalon_uart_init.o)
                              ../UCOS_practica_bsp/\libucosii_bsp.a(alt_sys_init.o) (altera_avalon_uart_init)
../UCOS_practica_bsp/\libucosii_bsp.a(altera_avalon_uart_read.o)
                              ../UCOS_practica_bsp/\libucosii_bsp.a(altera_avalon_uart_fd.o) (altera_avalon_uart_read)
../UCOS_practica_bsp/\libucosii_bsp.a(altera_avalon_uart_write.o)
                              ../UCOS_practica_bsp/\libucosii_bsp.a(altera_avalon_uart_fd.o) (altera_avalon_uart_write)
../UCOS_practica_bsp/\libucosii_bsp.a(alt_alarm_start.o)
                              ../UCOS_practica_bsp/\libucosii_bsp.a(altera_avalon_jtag_uart_init.o) (alt_alarm_start)
../UCOS_practica_bsp/\libucosii_bsp.a(alt_dcache_flush_all.o)
                              ../UCOS_practica_bsp/\libucosii_bsp.a(alt_load.o) (alt_dcache_flush_all)
../UCOS_practica_bsp/\libucosii_bsp.a(alt_dev_llist_insert.o)
                              ../UCOS_practica_bsp/\libucosii_bsp.a(alt_sys_init.o) (alt_dev_llist_insert)
../UCOS_practica_bsp/\libucosii_bsp.a(alt_do_ctors.o)
                              ../UCOS_practica_bsp/\libucosii_bsp.a(alt_main.o) (_do_ctors)
../UCOS_practica_bsp/\libucosii_bsp.a(alt_do_dtors.o)
                              ../UCOS_practica_bsp/\libucosii_bsp.a(alt_main.o) (_do_dtors)
../UCOS_practica_bsp/\libucosii_bsp.a(alt_icache_flush_all.o)
                              ../UCOS_practica_bsp/\libucosii_bsp.a(alt_load.o) (alt_icache_flush_all)
../UCOS_practica_bsp/\libucosii_bsp.a(alt_iic.o)
                              ../UCOS_practica_bsp/\libucosii_bsp.a(altera_avalon_jtag_uart_init.o) (alt_ic_isr_register)
../UCOS_practica_bsp/\libucosii_bsp.a(alt_iic_isr_register.o)
                              ../UCOS_practica_bsp/\libucosii_bsp.a(alt_iic.o) (alt_iic_isr_register)
../UCOS_practica_bsp/\libucosii_bsp.a(alt_io_redirect.o)
                              ../UCOS_practica_bsp/\libucosii_bsp.a(alt_main.o) (alt_io_redirect)
../UCOS_practica_bsp/\libucosii_bsp.a(alt_irq_entry.o)
                              ../UCOS_practica_bsp/\libucosii_bsp.a(alt_iic_isr_register.o) (alt_irq_entry)
../UCOS_practica_bsp/\libucosii_bsp.a(alt_irq_handler.o)
                              ../UCOS_practica_bsp/\libucosii_bsp.a(alt_iic_isr_register.o) (alt_irq)
../UCOS_practica_bsp/\libucosii_bsp.a(alt_irq_vars.o)
                              ../UCOS_practica_bsp/\libucosii_bsp.a(alt_iic.o) (alt_irq_active)
../UCOS_practica_bsp/\libucosii_bsp.a(alt_open.o)
                              ../UCOS_practica_bsp/\libucosii_bsp.a(alt_io_redirect.o) (open)
../UCOS_practica_bsp/\libucosii_bsp.a(alt_tick.o)
                              ../UCOS_practica_bsp/\libucosii_bsp.a(altera_avalon_jtag_uart_init.o) (_alt_tick_rate)
../UCOS_practica_bsp/\libucosii_bsp.a(altera_nios2_gen2_irq.o)
                              ../UCOS_practica_bsp/\libucosii_bsp.a(alt_sys_init.o) (altera_nios2_gen2_irq_init)
../UCOS_practica_bsp/\libucosii_bsp.a(os_cpu_a.o)
                              ../UCOS_practica_bsp/\libucosii_bsp.a(os_core.o) (OSIntCtxSw)
../UCOS_practica_bsp/\libucosii_bsp.a(os_cpu_c.o)
                              ../UCOS_practica_bsp/\libucosii_bsp.a(os_task.o) (OSTaskStkInit)
../UCOS_practica_bsp/\libucosii_bsp.a(alt_exception_entry.o)
                              ../UCOS_practica_bsp/\libucosii_bsp.a(alt_irq_entry.o) (alt_exception)
../UCOS_practica_bsp/\libucosii_bsp.a(alt_find_dev.o)
                              ../UCOS_practica_bsp/\libucosii_bsp.a(alt_open.o) (alt_find_dev)
../UCOS_practica_bsp/\libucosii_bsp.a(alt_find_file.o)
                              ../UCOS_practica_bsp/\libucosii_bsp.a(alt_open.o) (alt_find_file)
../UCOS_practica_bsp/\libucosii_bsp.a(alt_get_fd.o)
                              ../UCOS_practica_bsp/\libucosii_bsp.a(alt_open.o) (alt_get_fd)
../UCOS_practica_bsp/\libucosii_bsp.a(alt_instruction_exception_entry.o)
                              ../UCOS_practica_bsp/\libucosii_bsp.a(alt_exception_entry.o) (alt_instruction_exception_entry)
c:/altera/15.0/nios2eds/bin/gnu/h-x86_64-mingw32/bin/../lib/gcc/nios2-elf/4.9.1/../../../../../H-x86_64-mingw32/nios2-elf/lib/mno-hw-mul\libc.a(lib_a-atexit.o)
                              ../UCOS_practica_bsp/\libucosii_bsp.a(alt_main.o) (atexit)
c:/altera/15.0/nios2eds/bin/gnu/h-x86_64-mingw32/bin/../lib/gcc/nios2-elf/4.9.1/../../../../../H-x86_64-mingw32/nios2-elf/lib/mno-hw-mul\libc.a(lib_a-exit.o)
                              ../UCOS_practica_bsp/\libucosii_bsp.a(alt_main.o) (exit)
c:/altera/15.0/nios2eds/bin/gnu/h-x86_64-mingw32/bin/../lib/gcc/nios2-elf/4.9.1/../../../../../H-x86_64-mingw32/nios2-elf/lib/mno-hw-mul\libc.a(lib_a-memcmp.o)
                              ../UCOS_practica_bsp/\libucosii_bsp.a(alt_find_dev.o) (memcmp)
c:/altera/15.0/nios2eds/bin/gnu/h-x86_64-mingw32/bin/../lib/gcc/nios2-elf/4.9.1/../../../../../H-x86_64-mingw32/nios2-elf/lib/mno-hw-mul\libc.a(lib_a-__atexit.o)
                              c:/altera/15.0/nios2eds/bin/gnu/h-x86_64-mingw32/bin/../lib/gcc/nios2-elf/4.9.1/../../../../../H-x86_64-mingw32/nios2-elf/lib/mno-hw-mul\libc.a(lib_a-atexit.o) (__register_exitproc)
c:/altera/15.0/nios2eds/bin/gnu/h-x86_64-mingw32/bin/../lib/gcc/nios2-elf/4.9.1/../../../../../H-x86_64-mingw32/nios2-elf/lib/mno-hw-mul\libc.a(lib_a-__call_atexit.o)
                              c:/altera/15.0/nios2eds/bin/gnu/h-x86_64-mingw32/bin/../lib/gcc/nios2-elf/4.9.1/../../../../../H-x86_64-mingw32/nios2-elf/lib/mno-hw-mul\libc.a(lib_a-exit.o) (__call_exitprocs)
c:/altera/15.0/nios2eds/bin/gnu/h-x86_64-mingw32/bin/../lib/gcc/nios2-elf/4.9.1/mno-hw-mul\libgcc.a(lib2-divmod.o)
                              ../UCOS_practica_bsp/\libucosii_bsp.a(os_core.o) (__udivsi3)
../UCOS_practica_bsp/\libucosii_bsp.a(alt_exit.o)
                              c:/altera/15.0/nios2eds/bin/gnu/h-x86_64-mingw32/bin/../lib/gcc/nios2-elf/4.9.1/../../../../../H-x86_64-mingw32/nios2-elf/lib/mno-hw-mul\libc.a(lib_a-exit.o) (_exit)

Allocating common symbols
Common symbol       size              file

alt_irq             0x100             ../UCOS_practica_bsp/\libucosii_bsp.a(alt_irq_handler.o)
task1_stk           0x2000            obj/default/hello_ucosii.o
OSLockNesting       0x1               ../UCOS_practica_bsp/\libucosii_bsp.a(os_core.o)
OSRunning           0x1               ../UCOS_practica_bsp/\libucosii_bsp.a(os_core.o)
OSIdleCtr           0x4               ../UCOS_practica_bsp/\libucosii_bsp.a(os_core.o)
OSPrioHighRdy       0x1               ../UCOS_practica_bsp/\libucosii_bsp.a(os_core.o)
errno               0x4               c:/altera/15.0/nios2eds/bin/gnu/h-x86_64-mingw32/bin/../lib/gcc/nios2-elf/4.9.1/../../../../../H-x86_64-mingw32/nios2-elf/lib/mno-hw-mul\libc.a(lib_a-int_errno.o)
alt_heapsem         0x4               ../UCOS_practica_bsp/\libucosii_bsp.a(alt_malloc_lock.o)
OSFlagTbl           0x370             ../UCOS_practica_bsp/\libucosii_bsp.a(os_core.o)
OSPrioCur           0x1               ../UCOS_practica_bsp/\libucosii_bsp.a(os_core.o)
OSTCBList           0x4               ../UCOS_practica_bsp/\libucosii_bsp.a(os_core.o)
alt_fd_list_lock    0x4               ../UCOS_practica_bsp/\libucosii_bsp.a(alt_dev.o)
OSMemTbl            0xc30             ../UCOS_practica_bsp/\libucosii_bsp.a(os_core.o)
OSTickStepState     0x1               ../UCOS_practica_bsp/\libucosii_bsp.a(os_core.o)
OSTaskStatStk       0x800             ../UCOS_practica_bsp/\libucosii_bsp.a(os_core.o)
OSCtxSwCtr          0x4               ../UCOS_practica_bsp/\libucosii_bsp.a(os_core.o)
OSIdleCtrMax        0x4               ../UCOS_practica_bsp/\libucosii_bsp.a(os_core.o)
OSTCBFreeList       0x4               ../UCOS_practica_bsp/\libucosii_bsp.a(os_core.o)
OSCPUUsage          0x1               ../UCOS_practica_bsp/\libucosii_bsp.a(os_core.o)
OSTaskCtr           0x1               ../UCOS_practica_bsp/\libucosii_bsp.a(os_core.o)
OSMemFreeList       0x4               ../UCOS_practica_bsp/\libucosii_bsp.a(os_core.o)
OSQTbl              0x1e0             ../UCOS_practica_bsp/\libucosii_bsp.a(os_core.o)
OSTCBHighRdy        0x4               ../UCOS_practica_bsp/\libucosii_bsp.a(os_core.o)
OSQFreeList         0x4               ../UCOS_practica_bsp/\libucosii_bsp.a(os_core.o)
OSRdyGrp            0x1               ../UCOS_practica_bsp/\libucosii_bsp.a(os_core.o)
task2_stk           0x2000            obj/default/hello_ucosii.o
OSRdyTbl            0x3               ../UCOS_practica_bsp/\libucosii_bsp.a(os_core.o)
OSEventFreeList     0x4               ../UCOS_practica_bsp/\libucosii_bsp.a(os_core.o)
OSIntNesting        0x1               ../UCOS_practica_bsp/\libucosii_bsp.a(os_core.o)
OSTCBCur            0x4               ../UCOS_practica_bsp/\libucosii_bsp.a(os_core.o)
leds_stk            0x2000            obj/default/hello_ucosii.o
OSTime              0x4               ../UCOS_practica_bsp/\libucosii_bsp.a(os_core.o)
OSTaskIdleStk       0x800             ../UCOS_practica_bsp/\libucosii_bsp.a(os_core.o)
OSEventTbl          0xb40             ../UCOS_practica_bsp/\libucosii_bsp.a(os_core.o)
OSTCBTbl            0x510             ../UCOS_practica_bsp/\libucosii_bsp.a(os_core.o)
OSFlagFreeList      0x4               ../UCOS_practica_bsp/\libucosii_bsp.a(os_core.o)
OSStatRdy           0x1               ../UCOS_practica_bsp/\libucosii_bsp.a(os_core.o)
OSTCBPrioTbl        0x54              ../UCOS_practica_bsp/\libucosii_bsp.a(os_core.o)
alt_envsem          0x4               ../UCOS_practica_bsp/\libucosii_bsp.a(alt_env_lock.o)
OSIdleCtrRun        0x4               ../UCOS_practica_bsp/\libucosii_bsp.a(os_core.o)

Memory Configuration

Name             Origin             Length             Attributes
reset            0x0000000000040000 0x0000000000000020
RAM_jesus        0x0000000000040020 0x0000000000035b40
*default*        0x0000000000000000 0xffffffffffffffff

Linker script and memory map

LOAD ../UCOS_practica_bsp//obj/HAL/src/crt0.o
LOAD obj/default/hello_ucosii.o
LOAD c:/altera/15.0/nios2eds/bin/gnu/h-x86_64-mingw32/bin/../lib/gcc/nios2-elf/4.9.1/../../../../../H-x86_64-mingw32/nios2-elf/lib/mno-hw-mul\libstdc++.a
LOAD c:/altera/15.0/nios2eds/bin/gnu/h-x86_64-mingw32/bin/../lib/gcc/nios2-elf/4.9.1/../../../../../H-x86_64-mingw32/nios2-elf/lib/mno-hw-mul\libm.a
LOAD c:/altera/15.0/nios2eds/bin/gnu/h-x86_64-mingw32/bin/../lib/gcc/nios2-elf/4.9.1/mno-hw-mul\libgcc.a
START GROUP
LOAD c:/altera/15.0/nios2eds/bin/gnu/h-x86_64-mingw32/bin/../lib/gcc/nios2-elf/4.9.1/../../../../../H-x86_64-mingw32/nios2-elf/lib/mno-hw-mul\libc.a
LOAD c:/altera/15.0/nios2eds/bin/gnu/h-x86_64-mingw32/bin/../lib/gcc/nios2-elf/4.9.1/mno-hw-mul\libgcc.a
LOAD ../UCOS_practica_bsp/\libucosii_bsp.a
LOAD c:/altera/15.0/nios2eds/bin/gnu/h-x86_64-mingw32/bin/../lib/gcc/nios2-elf/4.9.1/../../../../../H-x86_64-mingw32/nios2-elf/lib/mno-hw-mul\libm.a
END GROUP
LOAD c:/altera/15.0/nios2eds/bin/gnu/h-x86_64-mingw32/bin/../lib/gcc/nios2-elf/4.9.1/mno-hw-mul\libgcc.a
                0x0000000000040000                __alt_mem_RAM_jesus = 0x40000

.entry          0x0000000000040000       0x20
 *(.entry)
 .entry         0x0000000000040000       0x20 ../UCOS_practica_bsp//obj/HAL/src/crt0.o
                0x0000000000040000                __reset

.exceptions     0x0000000000040020      0x20c
                0x0000000000040020                PROVIDE (__ram_exceptions_start, ABSOLUTE (.))
                0x0000000000040020                . = ALIGN (0x20)
 *(.irq)
 *(.exceptions.entry.label)
 .exceptions.entry.label
                0x0000000000040020        0x0 ../UCOS_practica_bsp/\libucosii_bsp.a(alt_irq_entry.o)
                0x0000000000040020                alt_irq_entry
 .exceptions.entry.label
                0x0000000000040020        0x0 ../UCOS_practica_bsp/\libucosii_bsp.a(alt_exception_entry.o)
                0x0000000000040020                alt_exception
 *(.exceptions.entry.user)
 *(.exceptions.entry.ecc_fatal)
 *(.exceptions.entry)
 .exceptions.entry
                0x0000000000040020       0x54 ../UCOS_practica_bsp/\libucosii_bsp.a(alt_exception_entry.o)
 *(.exceptions.irqtest.user)
 *(.exceptions.irqtest)
 .exceptions.irqtest
                0x0000000000040074       0x10 ../UCOS_practica_bsp/\libucosii_bsp.a(alt_irq_entry.o)
 *(.exceptions.irqhandler.user)
 *(.exceptions.irqhandler)
 .exceptions.irqhandler
                0x0000000000040084        0x4 ../UCOS_practica_bsp/\libucosii_bsp.a(alt_irq_entry.o)
 *(.exceptions.irqreturn.user)
 *(.exceptions.irqreturn)
 .exceptions.irqreturn
                0x0000000000040088        0x4 ../UCOS_practica_bsp/\libucosii_bsp.a(alt_irq_entry.o)
 *(.exceptions.notirq.label)
 .exceptions.notirq.label
                0x000000000004008c        0x0 ../UCOS_practica_bsp/\libucosii_bsp.a(alt_irq_entry.o)
 *(.exceptions.notirq.user)
 *(.exceptions.notirq)
 .exceptions.notirq
                0x000000000004008c        0x8 ../UCOS_practica_bsp/\libucosii_bsp.a(alt_exception_entry.o)
 *(.exceptions.soft.user)
 *(.exceptions.soft)
 *(.exceptions.unknown.user)
 *(.exceptions.unknown)
 .exceptions.unknown
                0x0000000000040094       0x14 ../UCOS_practica_bsp/\libucosii_bsp.a(alt_exception_entry.o)
 *(.exceptions.exit.label)
 .exceptions.exit.label
                0x00000000000400a8        0x0 ../UCOS_practica_bsp/\libucosii_bsp.a(alt_irq_entry.o)
 .exceptions.exit.label
                0x00000000000400a8        0x0 ../UCOS_practica_bsp/\libucosii_bsp.a(alt_exception_entry.o)
 *(.exceptions.exit.user)
 *(.exceptions.exit)
 .exceptions.exit
                0x00000000000400a8       0x54 ../UCOS_practica_bsp/\libucosii_bsp.a(alt_exception_entry.o)
 *(.exceptions)
 .exceptions    0x00000000000400fc       0xd0 ../UCOS_practica_bsp/\libucosii_bsp.a(alt_irq_handler.o)
                0x00000000000400fc                alt_irq_handler
 .exceptions    0x00000000000401cc       0x60 ../UCOS_practica_bsp/\libucosii_bsp.a(alt_instruction_exception_entry.o)
                0x00000000000401cc                alt_instruction_exception_entry
                0x000000000004022c                PROVIDE (__ram_exceptions_end, ABSOLUTE (.))
                0x0000000000040020                PROVIDE (__flash_exceptions_start, LOADADDR (.exceptions))

.text           0x000000000004022c     0xefbc
                0x000000000004022c                PROVIDE (stext, ABSOLUTE (.))
 *(.interp)
 *(.hash)
 *(.dynsym)
 *(.dynstr)
 *(.gnu.version)
 *(.gnu.version_d)
 *(.gnu.version_r)
 *(.rel.init)
 *(.rela.init)
 *(.rel.text .rel.text.* .rel.gnu.linkonce.t.*)
 *(.rela.text .rela.text.* .rela.gnu.linkonce.t.*)
 *(.rel.fini)
 *(.rela.fini)
 *(.rel.rodata .rel.rodata.* .rel.gnu.linkonce.r.*)
 *(.rela.rodata .rela.rodata.* .rela.gnu.linkonce.r.*)
 *(.rel.data .rel.data.* .rel.gnu.linkonce.d.*)
 *(.rela.data .rela.data.* .rela.gnu.linkonce.d.*)
 *(.rel.tdata .rel.tdata.* .rel.gnu.linkonce.td.*)
 *(.rela.tdata .rela.tdata.* .rela.gnu.linkonce.td.*)
 *(.rel.tbss .rel.tbss.* .rel.gnu.linkonce.tb.*)
 *(.rela.tbss .rela.tbss.* .rela.gnu.linkonce.tb.*)
 *(.rel.ctors)
 *(.rela.ctors)
 *(.rel.dtors)
 *(.rela.dtors)
 *(.rel.got)
 *(.rela.got)
 *(.rel.sdata .rel.sdata.* .rel.gnu.linkonce.s.*)
 *(.rela.sdata .rela.sdata.* .rela.gnu.linkonce.s.*)
 *(.rel.sbss .rel.sbss.* .rel.gnu.linkonce.sb.*)
 *(.rela.sbss .rela.sbss.* .rela.gnu.linkonce.sb.*)
 *(.rel.sdata2 .rel.sdata2.* .rel.gnu.linkonce.s2.*)
 *(.rela.sdata2 .rela.sdata2.* .rela.gnu.linkonce.s2.*)
 *(.rel.sbss2 .rel.sbss2.* .rel.gnu.linkonce.sb2.*)
 *(.rela.sbss2 .rela.sbss2.* .rela.gnu.linkonce.sb2.*)
 *(.rel.bss .rel.bss.* .rel.gnu.linkonce.b.*)
 *(.rela.bss .rela.bss.* .rela.gnu.linkonce.b.*)
 *(.rel.plt)
 *(.rela.plt)
 *(.rel.dyn)
 *(.init)
 *(.plt)
 *(.text .stub .text.* .gnu.linkonce.t.*)
 .text          0x000000000004022c       0x3c ../UCOS_practica_bsp//obj/HAL/src/crt0.o
                0x000000000004022c                _start
 .text          0x0000000000040268      0x680 obj/default/hello_ucosii.o
                0x0000000000040268                task1
                0x00000000000402fc                play_tone
                0x0000000000040350                task2
                0x0000000000040630                play_tone1
                0x0000000000040684                leds_task
 .text.startup  0x00000000000408e8       0xd0 obj/default/hello_ucosii.o
                0x00000000000408e8                main
 .text          0x00000000000409b8       0xcc c:/altera/15.0/nios2eds/bin/gnu/h-x86_64-mingw32/bin/../lib/gcc/nios2-elf/4.9.1/../../../../../H-x86_64-mingw32/nios2-elf/lib/mno-hw-mul\libc.a(lib_a-puts.o)
                0x00000000000409b8                _puts_r
                0x0000000000040a70                puts
 .text          0x0000000000040a84       0x98 c:/altera/15.0/nios2eds/bin/gnu/h-x86_64-mingw32/bin/../lib/gcc/nios2-elf/4.9.1/../../../../../H-x86_64-mingw32/nios2-elf/lib/mno-hw-mul\libc.a(lib_a-strlen.o)
                0x0000000000040a84                strlen
 .text          0x0000000000040b1c      0x4a4 c:/altera/15.0/nios2eds/bin/gnu/h-x86_64-mingw32/bin/../lib/gcc/nios2-elf/4.9.1/../../../../../H-x86_64-mingw32/nios2-elf/lib/mno-hw-mul\libc.a(lib_a-fvwrite.o)
                0x0000000000040b1c                __sfvwrite_r
 .text          0x0000000000040fc0        0x0 c:/altera/15.0/nios2eds/bin/gnu/h-x86_64-mingw32/bin/../lib/gcc/nios2-elf/4.9.1/../../../../../H-x86_64-mingw32/nios2-elf/lib/mno-hw-mul\libc.a(lib_a-impure.o)
 .text          0x0000000000040fc0      0x7a8 c:/altera/15.0/nios2eds/bin/gnu/h-x86_64-mingw32/bin/../lib/gcc/nios2-elf/4.9.1/../../../../../H-x86_64-mingw32/nios2-elf/lib/mno-hw-mul\libc.a(lib_a-mallocr.o)
                0x0000000000040fc0                _malloc_r
 .text          0x0000000000041768       0xe8 c:/altera/15.0/nios2eds/bin/gnu/h-x86_64-mingw32/bin/../lib/gcc/nios2-elf/4.9.1/../../../../../H-x86_64-mingw32/nios2-elf/lib/mno-hw-mul\libc.a(lib_a-memchr.o)
                0x0000000000041768                memchr
 .text          0x0000000000041850      0x138 c:/altera/15.0/nios2eds/bin/gnu/h-x86_64-mingw32/bin/../lib/gcc/nios2-elf/4.9.1/../../../../../H-x86_64-mingw32/nios2-elf/lib/mno-hw-mul\libc.a(lib_a-memcpy.o)
                0x0000000000041850                memcpy
 .text          0x0000000000041988      0x15c c:/altera/15.0/nios2eds/bin/gnu/h-x86_64-mingw32/bin/../lib/gcc/nios2-elf/4.9.1/../../../../../H-x86_64-mingw32/nios2-elf/lib/mno-hw-mul\libc.a(lib_a-memmove.o)
                0x0000000000041988                memmove
 .text          0x0000000000041ae4      0x5a0 c:/altera/15.0/nios2eds/bin/gnu/h-x86_64-mingw32/bin/../lib/gcc/nios2-elf/4.9.1/../../../../../H-x86_64-mingw32/nios2-elf/lib/mno-hw-mul\libc.a(lib_a-reallocr.o)
                0x0000000000041ae4                _realloc_r
 .text          0x0000000000042084       0x54 c:/altera/15.0/nios2eds/bin/gnu/h-x86_64-mingw32/bin/../lib/gcc/nios2-elf/4.9.1/../../../../../H-x86_64-mingw32/nios2-elf/lib/mno-hw-mul\libc.a(lib_a-sbrkr.o)
                0x0000000000042084                _sbrk_r
 .text          0x00000000000420d8      0x130 c:/altera/15.0/nios2eds/bin/gnu/h-x86_64-mingw32/bin/../lib/gcc/nios2-elf/4.9.1/../../../../../H-x86_64-mingw32/nios2-elf/lib/mno-hw-mul\libc.a(lib_a-wsetup.o)
                0x00000000000420d8                __swsetup_r
 .text          0x0000000000042208      0x258 c:/altera/15.0/nios2eds/bin/gnu/h-x86_64-mingw32/bin/../lib/gcc/nios2-elf/4.9.1/../../../../../H-x86_64-mingw32/nios2-elf/lib/mno-hw-mul\libc.a(lib_a-fflush.o)
                0x0000000000042208                _fflush_r
                0x0000000000042430                fflush
 .text          0x0000000000042460      0x3b4 c:/altera/15.0/nios2eds/bin/gnu/h-x86_64-mingw32/bin/../lib/gcc/nios2-elf/4.9.1/../../../../../H-x86_64-mingw32/nios2-elf/lib/mno-hw-mul\libc.a(lib_a-findfp.o)
                0x0000000000042470                _cleanup_r
                0x000000000004261c                __sfmoreglue
                0x0000000000042694                __sfp
                0x00000000000427ac                _cleanup
                0x00000000000427c4                __sinit
                0x00000000000427d4                __sfp_lock_acquire
                0x00000000000427d8                __sfp_lock_release
                0x00000000000427dc                __sinit_lock_acquire
                0x00000000000427e0                __sinit_lock_release
                0x00000000000427e4                __fp_lock_all
                0x00000000000427fc                __fp_unlock_all
 .text          0x0000000000042814      0x414 c:/altera/15.0/nios2eds/bin/gnu/h-x86_64-mingw32/bin/../lib/gcc/nios2-elf/4.9.1/../../../../../H-x86_64-mingw32/nios2-elf/lib/mno-hw-mul\libc.a(lib_a-freer.o)
                0x0000000000042814                _malloc_trim_r
                0x0000000000042938                _free_r
 .text          0x0000000000042c28      0x170 c:/altera/15.0/nios2eds/bin/gnu/h-x86_64-mingw32/bin/../lib/gcc/nios2-elf/4.9.1/../../../../../H-x86_64-mingw32/nios2-elf/lib/mno-hw-mul\libc.a(lib_a-fwalk.o)
                0x0000000000042c28                _fwalk
                0x0000000000042ce0                _fwalk_reent
 .text          0x0000000000042d98        0x0 c:/altera/15.0/nios2eds/bin/gnu/h-x86_64-mingw32/bin/../lib/gcc/nios2-elf/4.9.1/../../../../../H-x86_64-mingw32/nios2-elf/lib/mno-hw-mul\libc.a(lib_a-int_errno.o)
 .text          0x0000000000042d98      0x1b8 c:/altera/15.0/nios2eds/bin/gnu/h-x86_64-mingw32/bin/../lib/gcc/nios2-elf/4.9.1/../../../../../H-x86_64-mingw32/nios2-elf/lib/mno-hw-mul\libc.a(lib_a-makebuf.o)
                0x0000000000042d98                __smakebuf_r
 .text          0x0000000000042f50      0x124 c:/altera/15.0/nios2eds/bin/gnu/h-x86_64-mingw32/bin/../lib/gcc/nios2-elf/4.9.1/../../../../../H-x86_64-mingw32/nios2-elf/lib/mno-hw-mul\libc.a(lib_a-memset.o)
                0x0000000000042f50                memset
 .text          0x0000000000043074      0x13c c:/altera/15.0/nios2eds/bin/gnu/h-x86_64-mingw32/bin/../lib/gcc/nios2-elf/4.9.1/../../../../../H-x86_64-mingw32/nios2-elf/lib/mno-hw-mul\libc.a(lib_a-stdio.o)
                0x0000000000043074                __sread
                0x00000000000430c8                __seofread
                0x00000000000430d0                __swrite
                0x000000000004314c                __sseek
                0x00000000000431a8                __sclose
 .text          0x00000000000431b0       0x5c c:/altera/15.0/nios2eds/bin/gnu/h-x86_64-mingw32/bin/../lib/gcc/nios2-elf/4.9.1/../../../../../H-x86_64-mingw32/nios2-elf/lib/mno-hw-mul\libc.a(lib_a-writer.o)
                0x00000000000431b0                _write_r
 .text          0x000000000004320c       0x54 c:/altera/15.0/nios2eds/bin/gnu/h-x86_64-mingw32/bin/../lib/gcc/nios2-elf/4.9.1/../../../../../H-x86_64-mingw32/nios2-elf/lib/mno-hw-mul\libc.a(closer.o)
                0x000000000004320c                _close_r
 .text          0x0000000000043260      0x114 c:/altera/15.0/nios2eds/bin/gnu/h-x86_64-mingw32/bin/../lib/gcc/nios2-elf/4.9.1/../../../../../H-x86_64-mingw32/nios2-elf/lib/mno-hw-mul\libc.a(lib_a-fclose.o)
                0x0000000000043260                _fclose_r
                0x0000000000043360                fclose
 .text          0x0000000000043374       0x58 c:/altera/15.0/nios2eds/bin/gnu/h-x86_64-mingw32/bin/../lib/gcc/nios2-elf/4.9.1/../../../../../H-x86_64-mingw32/nios2-elf/lib/mno-hw-mul\libc.a(lib_a-fstatr.o)
                0x0000000000043374                _fstat_r
 .text          0x00000000000433cc       0x54 c:/altera/15.0/nios2eds/bin/gnu/h-x86_64-mingw32/bin/../lib/gcc/nios2-elf/4.9.1/../../../../../H-x86_64-mingw32/nios2-elf/lib/mno-hw-mul\libc.a(lib_a-isattyr.o)
                0x00000000000433cc                _isatty_r
 .text          0x0000000000043420       0x5c c:/altera/15.0/nios2eds/bin/gnu/h-x86_64-mingw32/bin/../lib/gcc/nios2-elf/4.9.1/../../../../../H-x86_64-mingw32/nios2-elf/lib/mno-hw-mul\libc.a(lib_a-lseekr.o)
                0x0000000000043420                _lseek_r
 .text          0x000000000004347c       0x5c c:/altera/15.0/nios2eds/bin/gnu/h-x86_64-mingw32/bin/../lib/gcc/nios2-elf/4.9.1/../../../../../H-x86_64-mingw32/nios2-elf/lib/mno-hw-mul\libc.a(lib_a-readr.o)
                0x000000000004347c                _read_r
 .text          0x00000000000434d8       0x28 c:/altera/15.0/nios2eds/bin/gnu/h-x86_64-mingw32/bin/../lib/gcc/nios2-elf/4.9.1/mno-hw-mul\libgcc.a(lib2-mul.o)
                0x00000000000434d8                __mulsi3
 .text          0x0000000000043500      0x128 ../UCOS_practica_bsp/\libucosii_bsp.a(alt_close.o)
                0x0000000000043550                close
 .text          0x0000000000043628       0x2c ../UCOS_practica_bsp/\libucosii_bsp.a(alt_dev.o)
 .text          0x0000000000043654        0x0 ../UCOS_practica_bsp/\libucosii_bsp.a(alt_errno.o)
 .text          0x0000000000043654      0x108 ../UCOS_practica_bsp/\libucosii_bsp.a(alt_fstat.o)
                0x00000000000436a4                fstat
 .text          0x000000000004375c       0xfc ../UCOS_practica_bsp/\libucosii_bsp.a(alt_isatty.o)
                0x00000000000437ac                isatty
 .text          0x0000000000043858       0xe4 ../UCOS_practica_bsp/\libucosii_bsp.a(alt_load.o)
                0x00000000000438bc                alt_load
 .text          0x000000000004393c      0x12c ../UCOS_practica_bsp/\libucosii_bsp.a(alt_lseek.o)
                0x000000000004398c                lseek
 .text          0x0000000000043a68       0xd4 ../UCOS_practica_bsp/\libucosii_bsp.a(alt_main.o)
                0x0000000000043a68                alt_main
 .text          0x0000000000043b3c      0x154 ../UCOS_practica_bsp/\libucosii_bsp.a(alt_read.o)
                0x0000000000043b8c                read
 .text          0x0000000000043c90       0x80 ../UCOS_practica_bsp/\libucosii_bsp.a(alt_release_fd.o)
                0x0000000000043c90                alt_release_fd
 .text          0x0000000000043d10       0xb0 ../UCOS_practica_bsp/\libucosii_bsp.a(alt_sbrk.o)
                0x0000000000043d10                sbrk
 .text          0x0000000000043dc0      0x150 ../UCOS_practica_bsp/\libucosii_bsp.a(alt_write.o)
                0x0000000000043e10                write
 .text          0x0000000000043f10      0x11c ../UCOS_practica_bsp/\libucosii_bsp.a(alt_env_lock.o)
                0x0000000000043f10                __env_lock
                0x0000000000043fd0                __env_unlock
 .text          0x000000000004402c      0x1f0 ../UCOS_practica_bsp/\libucosii_bsp.a(alt_malloc_lock.o)
                0x000000000004402c                __malloc_lock
                0x000000000004414c                __malloc_unlock
 .text          0x000000000004421c     0x1fe0 ../UCOS_practica_bsp/\libucosii_bsp.a(os_core.o)
                0x000000000004421c                OSEventNameGet
                0x000000000004433c                OSEventNameSet
                0x0000000000044478                OSEventPendMulti
                0x0000000000044a88                OSInit
                0x0000000000044adc                OSIntEnter
                0x0000000000044b58                OSIntExit
                0x0000000000044c4c                OSSchedLock
                0x0000000000044cd4                OSSchedUnlock
                0x0000000000044dac                OSStart
                0x0000000000044e18                OSStatInit
                0x0000000000044ec4                OSTimeTick
                0x00000000000450e0                OSVersion
                0x0000000000045100                OS_Dummy
                0x000000000004511c                OS_EventTaskRdy
                0x00000000000452b4                OS_EventTaskWait
                0x00000000000453c0                OS_EventTaskWaitMulti
                0x000000000004550c                OS_EventTaskRemove
                0x00000000000455c0                OS_EventTaskRemoveMulti
                0x00000000000456bc                OS_EventWaitListInit
                0x0000000000045a80                OS_MemClr
                0x0000000000045ad0                OS_MemCopy
                0x0000000000045b34                OS_Sched
                0x0000000000045c70                OS_StrCopy
                0x0000000000045ce4                OS_StrLen
                0x0000000000045d38                OS_TaskIdle
                0x0000000000045d94                OS_TaskStat
                0x0000000000045e60                OS_TaskStatStkChk
                0x0000000000045f28                OS_TCBInit
 .text          0x00000000000461fc      0x18c ../UCOS_practica_bsp/\libucosii_bsp.a(os_dbg.o)
                0x00000000000461fc                OSDebugInit
 .text          0x0000000000046388     0x181c ../UCOS_practica_bsp/\libucosii_bsp.a(os_flag.o)
                0x0000000000046388                OSFlagAccept
                0x0000000000046690                OSFlagCreate
                0x00000000000467b8                OSFlagDel
                0x0000000000046a28                OSFlagNameGet
                0x0000000000046b58                OSFlagNameSet
                0x0000000000046ca8                OSFlagPend
                0x0000000000047298                OSFlagPendGetFlagsRdy
                0x0000000000047300                OSFlagPost
                0x0000000000047688                OSFlagQuery
                0x0000000000047910                OS_FlagInit
                0x0000000000047b04                OS_FlagUnlink
 .text          0x0000000000047ba4      0x790 ../UCOS_practica_bsp/\libucosii_bsp.a(os_mem.o)
                0x0000000000047ba4                OSMemCreate
                0x0000000000047d98                OSMemGet
                0x0000000000047e88                OSMemNameGet
                0x0000000000047f80                OSMemNameSet
                0x0000000000048098                OSMemPut
                0x0000000000048170                OSMemQuery
                0x0000000000048258                OS_MemInit
 .text          0x0000000000048334     0x1210 ../UCOS_practica_bsp/\libucosii_bsp.a(os_q.o)
                0x0000000000048334                OSQAccept
                0x0000000000048474                OSQCreate
                0x0000000000048670                OSQDel
                0x0000000000048938                OSQFlush
                0x00000000000489f0                OSQPend
                0x0000000000048cec                OSQPendAbort
                0x0000000000048e58                OSQPost
                0x0000000000048fc0                OSQPostFront
                0x0000000000049130                OSQPostOpt
                0x000000000004933c                OSQQuery
                0x0000000000049498                OS_QInit
 .text          0x0000000000049544      0xb08 ../UCOS_practica_bsp/\libucosii_bsp.a(os_sem.o)
                0x0000000000049544                OSSemAccept
                0x00000000000495f4                OSSemCreate
                0x00000000000496f4                OSSemDel
                0x000000000004995c                OSSemPend
                0x0000000000049bc4                OSSemPendAbort
                0x0000000000049d30                OSSemPost
                0x0000000000049e40                OSSemQuery
                0x0000000000049f50                OSSemSet
 .text          0x000000000004a04c     0x18f4 ../UCOS_practica_bsp/\libucosii_bsp.a(os_task.o)
                0x000000000004a04c                OSTaskChangePrio
                0x000000000004a58c                OSTaskCreate
                0x000000000004a748                OSTaskCreateExt
                0x000000000004a934                OSTaskDel
                0x000000000004ad14                OSTaskDelReq
                0x000000000004ae6c                OSTaskNameGet
                0x000000000004b014                OSTaskNameSet
                0x000000000004b1d4                OSTaskResume
                0x000000000004b3cc                OSTaskStkChk
                0x000000000004b594                OSTaskSuspend
                0x000000000004b7a8                OSTaskQuery
                0x000000000004b8d4                OS_TaskStkClr
 .text          0x000000000004b940      0x584 ../UCOS_practica_bsp/\libucosii_bsp.a(os_time.o)
                0x000000000004b940                OSTimeDly
                0x000000000004ba88                OSTimeDlyHMSM
                0x000000000004bc0c                OSTimeDlyResume
                0x000000000004bdfc                OSTimeGet
                0x000000000004be60                OSTimeSet
 .text          0x000000000004bec4       0xe4 ../UCOS_practica_bsp/\libucosii_bsp.a(alt_sys_init.o)
                0x000000000004befc                alt_irq_init
                0x000000000004bf30                alt_sys_init
 .text          0x000000000004bfa8      0x164 ../UCOS_practica_bsp/\libucosii_bsp.a(altera_avalon_jtag_uart_fd.o)
                0x000000000004bfa8                altera_avalon_jtag_uart_read_fd
                0x000000000004c008                altera_avalon_jtag_uart_write_fd
                0x000000000004c068                altera_avalon_jtag_uart_close_fd
                0x000000000004c0b8                altera_avalon_jtag_uart_ioctl_fd
 .text          0x000000000004c10c      0x568 ../UCOS_practica_bsp/\libucosii_bsp.a(altera_avalon_jtag_uart_init.o)
                0x000000000004c10c                altera_avalon_jtag_uart_init
                0x000000000004c60c                altera_avalon_jtag_uart_close
 .text          0x000000000004c674       0xec ../UCOS_practica_bsp/\libucosii_bsp.a(altera_avalon_jtag_uart_ioctl.o)
                0x000000000004c674                altera_avalon_jtag_uart_ioctl
 .text          0x000000000004c760      0x2b4 ../UCOS_practica_bsp/\libucosii_bsp.a(altera_avalon_jtag_uart_read.o)
                0x000000000004c760                altera_avalon_jtag_uart_read
 .text          0x000000000004ca14      0x2c0 ../UCOS_practica_bsp/\libucosii_bsp.a(altera_avalon_jtag_uart_write.o)
                0x000000000004ca14                altera_avalon_jtag_uart_write
 .text          0x000000000004ccd4       0xfc ../UCOS_practica_bsp/\libucosii_bsp.a(altera_avalon_timer_sc.o)
                0x000000000004cd48                alt_avalon_timer_sc_init
 .text          0x000000000004cdd0      0x110 ../UCOS_practica_bsp/\libucosii_bsp.a(altera_avalon_uart_fd.o)
                0x000000000004cdd0                altera_avalon_uart_read_fd
                0x000000000004ce30                altera_avalon_uart_write_fd
                0x000000000004ce90                altera_avalon_uart_close_fd
 .text          0x000000000004cee0      0x524 ../UCOS_practica_bsp/\libucosii_bsp.a(altera_avalon_uart_init.o)
                0x000000000004cee0                altera_avalon_uart_init
                0x000000000004d3b0                altera_avalon_uart_close
 .text          0x000000000004d404      0x2b8 ../UCOS_practica_bsp/\libucosii_bsp.a(altera_avalon_uart_read.o)
                0x000000000004d454                altera_avalon_uart_read
 .text          0x000000000004d6bc      0x288 ../UCOS_practica_bsp/\libucosii_bsp.a(altera_avalon_uart_write.o)
                0x000000000004d70c                altera_avalon_uart_write
 .text          0x000000000004d944      0x140 ../UCOS_practica_bsp/\libucosii_bsp.a(alt_alarm_start.o)
                0x000000000004d944                alt_alarm_start
 .text          0x000000000004da84       0x1c ../UCOS_practica_bsp/\libucosii_bsp.a(alt_dcache_flush_all.o)
                0x000000000004da84                alt_dcache_flush_all
 .text          0x000000000004daa0       0xf4 ../UCOS_practica_bsp/\libucosii_bsp.a(alt_dev_llist_insert.o)
                0x000000000004daf0                alt_dev_llist_insert
 .text          0x000000000004db94       0x5c ../UCOS_practica_bsp/\libucosii_bsp.a(alt_do_ctors.o)
                0x000000000004db94                _do_ctors
 .text          0x000000000004dbf0       0x5c ../UCOS_practica_bsp/\libucosii_bsp.a(alt_do_dtors.o)
                0x000000000004dbf0                _do_dtors
 .text          0x000000000004dc4c       0x1c ../UCOS_practica_bsp/\libucosii_bsp.a(alt_icache_flush_all.o)
                0x000000000004dc4c                alt_icache_flush_all
 .text          0x000000000004dc68      0x1e0 ../UCOS_practica_bsp/\libucosii_bsp.a(alt_iic.o)
                0x000000000004dc68                alt_ic_isr_register
                0x000000000004dcb8                alt_ic_irq_enable
                0x000000000004dd58                alt_ic_irq_disable
                0x000000000004ddfc                alt_ic_irq_enabled
 .text          0x000000000004de48       0xf0 ../UCOS_practica_bsp/\libucosii_bsp.a(alt_iic_isr_register.o)
                0x000000000004de48                alt_iic_isr_register
 .text          0x000000000004df38      0x158 ../UCOS_practica_bsp/\libucosii_bsp.a(alt_io_redirect.o)
                0x000000000004e018                alt_io_redirect
 .text          0x000000000004e090        0x0 ../UCOS_practica_bsp/\libucosii_bsp.a(alt_irq_entry.o)
 .text          0x000000000004e090        0x0 ../UCOS_practica_bsp/\libucosii_bsp.a(alt_irq_handler.o)
 .text          0x000000000004e090        0x0 ../UCOS_practica_bsp/\libucosii_bsp.a(alt_irq_vars.o)
 .text          0x000000000004e090      0x2a4 ../UCOS_practica_bsp/\libucosii_bsp.a(alt_open.o)
                0x000000000004e1d4                open
 .text          0x000000000004e334      0x19c ../UCOS_practica_bsp/\libucosii_bsp.a(alt_tick.o)
                0x000000000004e334                alt_alarm_stop
                0x000000000004e3cc                alt_tick
 .text          0x000000000004e4d0       0x20 ../UCOS_practica_bsp/\libucosii_bsp.a(altera_nios2_gen2_irq.o)
                0x000000000004e4d0                altera_nios2_gen2_irq_init
 .text          0x000000000004e4f0       0xd0 ../UCOS_practica_bsp/\libucosii_bsp.a(os_cpu_a.o)
                0x000000000004e4f0                OSCtxSw
                0x000000000004e4f0                OSIntCtxSw
                0x000000000004e57c                OSStartHighRdy
                0x000000000004e59c                OSStartTsk
 .text          0x000000000004e5c0      0x3fc ../UCOS_practica_bsp/\libucosii_bsp.a(os_cpu_c.o)
                0x000000000004e5c0                OSTaskStkInit
                0x000000000004e8b4                OSTaskCreateHook
                0x000000000004e8d4                OSTaskDelHook
                0x000000000004e8f4                OSTaskSwHook
                0x000000000004e910                OSTaskStatHook
                0x000000000004e92c                OSTimeTickHook
                0x000000000004e948                OSInitHookBegin
                0x000000000004e964                OSInitHookEnd
                0x000000000004e980                OSTaskIdleHook
                0x000000000004e99c                OSTCBInitHook
 .text          0x000000000004e9bc        0x0 ../UCOS_practica_bsp/\libucosii_bsp.a(alt_exception_entry.o)
 .text          0x000000000004e9bc       0x90 ../UCOS_practica_bsp/\libucosii_bsp.a(alt_find_dev.o)
                0x000000000004e9bc                alt_find_dev
 .text          0x000000000004ea4c      0x114 ../UCOS_practica_bsp/\libucosii_bsp.a(alt_find_file.o)
                0x000000000004ea4c                alt_find_file
 .text          0x000000000004eb60      0x114 ../UCOS_practica_bsp/\libucosii_bsp.a(alt_get_fd.o)
                0x000000000004eb60                alt_get_fd
 .text          0x000000000004ec74       0x9c ../UCOS_practica_bsp/\libucosii_bsp.a(alt_instruction_exception_entry.o)
                0x000000000004ec74                alt_exception_cause_generated_bad_addr
 .text          0x000000000004ed10       0x14 c:/altera/15.0/nios2eds/bin/gnu/h-x86_64-mingw32/bin/../lib/gcc/nios2-elf/4.9.1/../../../../../H-x86_64-mingw32/nios2-elf/lib/mno-hw-mul\libc.a(lib_a-atexit.o)
                0x000000000004ed10                atexit
 .text          0x000000000004ed24       0x38 c:/altera/15.0/nios2eds/bin/gnu/h-x86_64-mingw32/bin/../lib/gcc/nios2-elf/4.9.1/../../../../../H-x86_64-mingw32/nios2-elf/lib/mno-hw-mul\libc.a(lib_a-exit.o)
                0x000000000004ed24                exit
 .text          0x000000000004ed5c       0x7c c:/altera/15.0/nios2eds/bin/gnu/h-x86_64-mingw32/bin/../lib/gcc/nios2-elf/4.9.1/../../../../../H-x86_64-mingw32/nios2-elf/lib/mno-hw-mul\libc.a(lib_a-memcmp.o)
                0x000000000004ed5c                memcmp
 .text          0x000000000004edd8      0x114 c:/altera/15.0/nios2eds/bin/gnu/h-x86_64-mingw32/bin/../lib/gcc/nios2-elf/4.9.1/../../../../../H-x86_64-mingw32/nios2-elf/lib/mno-hw-mul\libc.a(lib_a-__atexit.o)
                0x000000000004edd8                __register_exitproc
 .text          0x000000000004eeec      0x194 c:/altera/15.0/nios2eds/bin/gnu/h-x86_64-mingw32/bin/../lib/gcc/nios2-elf/4.9.1/../../../../../H-x86_64-mingw32/nios2-elf/lib/mno-hw-mul\libc.a(lib_a-__call_atexit.o)
                0x000000000004eeec                __call_exitprocs
 .text          0x000000000004f080      0x12c c:/altera/15.0/nios2eds/bin/gnu/h-x86_64-mingw32/bin/../lib/gcc/nios2-elf/4.9.1/mno-hw-mul\libgcc.a(lib2-divmod.o)
                0x000000000004f0ec                __divsi3
                0x000000000004f140                __modsi3
                0x000000000004f19c                __udivsi3
                0x000000000004f1a4                __umodsi3
 .text          0x000000000004f1ac       0x3c ../UCOS_practica_bsp/\libucosii_bsp.a(alt_exit.o)
                0x000000000004f1ac                _exit
 *(.gnu.warning.*)
 *(.fini)
                0x000000000004f1e8                PROVIDE (__etext, ABSOLUTE (.))
                0x000000000004f1e8                PROVIDE (_etext, ABSOLUTE (.))
                0x000000000004f1e8                PROVIDE (etext, ABSOLUTE (.))
 *(.eh_frame_hdr)
                0x000000000004f1e8                . = ALIGN (0x4)
                0x000000000004f1e8                PROVIDE (__preinit_array_start, ABSOLUTE (.))
 *(.preinit_array)
                0x000000000004f1e8                PROVIDE (__preinit_array_end, ABSOLUTE (.))
                0x000000000004f1e8                PROVIDE (__init_array_start, ABSOLUTE (.))
 *(.init_array)
                0x000000000004f1e8                PROVIDE (__init_array_end, ABSOLUTE (.))
                0x000000000004f1e8                PROVIDE (__fini_array_start, ABSOLUTE (.))
 *(.fini_array)
                0x000000000004f1e8                PROVIDE (__fini_array_end, ABSOLUTE (.))
 *(.eh_frame)
 *(.gcc_except_table .gcc_except_table.*)
 *(.dynamic)
                0x000000000004f1e8                PROVIDE (__CTOR_LIST__, ABSOLUTE (.))
 *(.ctors)
 *(SORT(.ctors.*))
                0x000000000004f1e8                PROVIDE (__CTOR_END__, ABSOLUTE (.))
                0x000000000004f1e8                PROVIDE (__DTOR_LIST__, ABSOLUTE (.))
 *(.dtors)
 *(SORT(.dtors.*))
                0x000000000004f1e8                PROVIDE (__DTOR_END__, ABSOLUTE (.))
 *(.jcr)
                0x000000000004f1e8                . = ALIGN (0x4)

.rodata         0x000000000004f1e8      0x17c
                0x000000000004f1e8                PROVIDE (__ram_rodata_start, ABSOLUTE (.))
                0x000000000004f1e8                . = ALIGN (0x4)
 *(.rodata .rodata.* .gnu.linkonce.r.*)
 .rodata.str1.4
                0x000000000004f1e8       0x18 obj/default/hello_ucosii.o
 .rodata.str1.4
                0x000000000004f200        0x2 c:/altera/15.0/nios2eds/bin/gnu/h-x86_64-mingw32/bin/../lib/gcc/nios2-elf/4.9.1/../../../../../H-x86_64-mingw32/nios2-elf/lib/mno-hw-mul\libc.a(lib_a-puts.o)
                                          0x4 (size before relaxing)
 *fill*         0x000000000004f202        0x2 
 .rodata.str1.4
                0x000000000004f204        0x4 c:/altera/15.0/nios2eds/bin/gnu/h-x86_64-mingw32/bin/../lib/gcc/nios2-elf/4.9.1/../../../../../H-x86_64-mingw32/nios2-elf/lib/mno-hw-mul\libc.a(lib_a-impure.o)
 .rodata        0x000000000004f208        0xc ../UCOS_practica_bsp/\libucosii_bsp.a(alt_dev.o)
 .rodata        0x000000000004f214       0x10 ../UCOS_practica_bsp/\libucosii_bsp.a(alt_main.o)
 .rodata        0x000000000004f224      0x120 ../UCOS_practica_bsp/\libucosii_bsp.a(os_core.o)
                0x000000000004f224                OSUnMapTbl
 .rodata        0x000000000004f344       0x1c ../UCOS_practica_bsp/\libucosii_bsp.a(alt_sys_init.o)
 .rodata        0x000000000004f360        0x4 ../UCOS_practica_bsp/\libucosii_bsp.a(os_cpu_c.o)
 *(.rodata1)
                0x000000000004f364                . = ALIGN (0x4)
                0x000000000004f364                PROVIDE (__ram_rodata_end, ABSOLUTE (.))
                0x000000000004f1e8                PROVIDE (__flash_rodata_start, LOADADDR (.rodata))

.rwdata         0x000000000004f364     0x1bc4 load address 0x0000000000050f28
                0x000000000004f364                PROVIDE (__ram_rwdata_start, ABSOLUTE (.))
                0x000000000004f364                . = ALIGN (0x4)
 *(.got.plt)
 *(.got)
 *(.data1)
 *(.data .data.* .gnu.linkonce.d.*)
 .data          0x000000000004f364        0x0 ../UCOS_practica_bsp//obj/HAL/src/crt0.o
 .data          0x000000000004f364        0x0 obj/default/hello_ucosii.o
 .data          0x000000000004f364        0x0 c:/altera/15.0/nios2eds/bin/gnu/h-x86_64-mingw32/bin/../lib/gcc/nios2-elf/4.9.1/../../../../../H-x86_64-mingw32/nios2-elf/lib/mno-hw-mul\libc.a(lib_a-puts.o)
 .data          0x000000000004f364        0x0 c:/altera/15.0/nios2eds/bin/gnu/h-x86_64-mingw32/bin/../lib/gcc/nios2-elf/4.9.1/../../../../../H-x86_64-mingw32/nios2-elf/lib/mno-hw-mul\libc.a(lib_a-strlen.o)
 .data          0x000000000004f364        0x0 c:/altera/15.0/nios2eds/bin/gnu/h-x86_64-mingw32/bin/../lib/gcc/nios2-elf/4.9.1/../../../../../H-x86_64-mingw32/nios2-elf/lib/mno-hw-mul\libc.a(lib_a-fvwrite.o)
 .data          0x000000000004f364      0x424 c:/altera/15.0/nios2eds/bin/gnu/h-x86_64-mingw32/bin/../lib/gcc/nios2-elf/4.9.1/../../../../../H-x86_64-mingw32/nios2-elf/lib/mno-hw-mul\libc.a(lib_a-impure.o)
 .data          0x000000000004f788      0x408 c:/altera/15.0/nios2eds/bin/gnu/h-x86_64-mingw32/bin/../lib/gcc/nios2-elf/4.9.1/../../../../../H-x86_64-mingw32/nios2-elf/lib/mno-hw-mul\libc.a(lib_a-mallocr.o)
                0x000000000004f788                __malloc_av_
 .data          0x000000000004fb90        0x0 c:/altera/15.0/nios2eds/bin/gnu/h-x86_64-mingw32/bin/../lib/gcc/nios2-elf/4.9.1/../../../../../H-x86_64-mingw32/nios2-elf/lib/mno-hw-mul\libc.a(lib_a-memchr.o)
 .data          0x000000000004fb90        0x0 c:/altera/15.0/nios2eds/bin/gnu/h-x86_64-mingw32/bin/../lib/gcc/nios2-elf/4.9.1/../../../../../H-x86_64-mingw32/nios2-elf/lib/mno-hw-mul\libc.a(lib_a-memcpy.o)
 .data          0x000000000004fb90        0x0 c:/altera/15.0/nios2eds/bin/gnu/h-x86_64-mingw32/bin/../lib/gcc/nios2-elf/4.9.1/../../../../../H-x86_64-mingw32/nios2-elf/lib/mno-hw-mul\libc.a(lib_a-memmove.o)
 .data          0x000000000004fb90        0x0 c:/altera/15.0/nios2eds/bin/gnu/h-x86_64-mingw32/bin/../lib/gcc/nios2-elf/4.9.1/../../../../../H-x86_64-mingw32/nios2-elf/lib/mno-hw-mul\libc.a(lib_a-reallocr.o)
 .data          0x000000000004fb90        0x0 c:/altera/15.0/nios2eds/bin/gnu/h-x86_64-mingw32/bin/../lib/gcc/nios2-elf/4.9.1/../../../../../H-x86_64-mingw32/nios2-elf/lib/mno-hw-mul\libc.a(lib_a-sbrkr.o)
 .data          0x000000000004fb90        0x0 c:/altera/15.0/nios2eds/bin/gnu/h-x86_64-mingw32/bin/../lib/gcc/nios2-elf/4.9.1/../../../../../H-x86_64-mingw32/nios2-elf/lib/mno-hw-mul\libc.a(lib_a-wsetup.o)
 .data          0x000000000004fb90        0x0 c:/altera/15.0/nios2eds/bin/gnu/h-x86_64-mingw32/bin/../lib/gcc/nios2-elf/4.9.1/../../../../../H-x86_64-mingw32/nios2-elf/lib/mno-hw-mul\libc.a(lib_a-fflush.o)
 .data          0x000000000004fb90        0x0 c:/altera/15.0/nios2eds/bin/gnu/h-x86_64-mingw32/bin/../lib/gcc/nios2-elf/4.9.1/../../../../../H-x86_64-mingw32/nios2-elf/lib/mno-hw-mul\libc.a(lib_a-findfp.o)
 .data          0x000000000004fb90        0x0 c:/altera/15.0/nios2eds/bin/gnu/h-x86_64-mingw32/bin/../lib/gcc/nios2-elf/4.9.1/../../../../../H-x86_64-mingw32/nios2-elf/lib/mno-hw-mul\libc.a(lib_a-freer.o)
 .data          0x000000000004fb90        0x0 c:/altera/15.0/nios2eds/bin/gnu/h-x86_64-mingw32/bin/../lib/gcc/nios2-elf/4.9.1/../../../../../H-x86_64-mingw32/nios2-elf/lib/mno-hw-mul\libc.a(lib_a-fwalk.o)
 .data          0x000000000004fb90        0x0 c:/altera/15.0/nios2eds/bin/gnu/h-x86_64-mingw32/bin/../lib/gcc/nios2-elf/4.9.1/../../../../../H-x86_64-mingw32/nios2-elf/lib/mno-hw-mul\libc.a(lib_a-int_errno.o)
 .data          0x000000000004fb90        0x0 c:/altera/15.0/nios2eds/bin/gnu/h-x86_64-mingw32/bin/../lib/gcc/nios2-elf/4.9.1/../../../../../H-x86_64-mingw32/nios2-elf/lib/mno-hw-mul\libc.a(lib_a-makebuf.o)
 .data          0x000000000004fb90        0x0 c:/altera/15.0/nios2eds/bin/gnu/h-x86_64-mingw32/bin/../lib/gcc/nios2-elf/4.9.1/../../../../../H-x86_64-mingw32/nios2-elf/lib/mno-hw-mul\libc.a(lib_a-memset.o)
 .data          0x000000000004fb90        0x0 c:/altera/15.0/nios2eds/bin/gnu/h-x86_64-mingw32/bin/../lib/gcc/nios2-elf/4.9.1/../../../../../H-x86_64-mingw32/nios2-elf/lib/mno-hw-mul\libc.a(lib_a-stdio.o)
 .data          0x000000000004fb90        0x0 c:/altera/15.0/nios2eds/bin/gnu/h-x86_64-mingw32/bin/../lib/gcc/nios2-elf/4.9.1/../../../../../H-x86_64-mingw32/nios2-elf/lib/mno-hw-mul\libc.a(lib_a-writer.o)
 .data          0x000000000004fb90        0x0 c:/altera/15.0/nios2eds/bin/gnu/h-x86_64-mingw32/bin/../lib/gcc/nios2-elf/4.9.1/../../../../../H-x86_64-mingw32/nios2-elf/lib/mno-hw-mul\libc.a(closer.o)
 .data          0x000000000004fb90        0x0 c:/altera/15.0/nios2eds/bin/gnu/h-x86_64-mingw32/bin/../lib/gcc/nios2-elf/4.9.1/../../../../../H-x86_64-mingw32/nios2-elf/lib/mno-hw-mul\libc.a(lib_a-fclose.o)
 .data          0x000000000004fb90        0x0 c:/altera/15.0/nios2eds/bin/gnu/h-x86_64-mingw32/bin/../lib/gcc/nios2-elf/4.9.1/../../../../../H-x86_64-mingw32/nios2-elf/lib/mno-hw-mul\libc.a(lib_a-fstatr.o)
 .data          0x000000000004fb90        0x0 c:/altera/15.0/nios2eds/bin/gnu/h-x86_64-mingw32/bin/../lib/gcc/nios2-elf/4.9.1/../../../../../H-x86_64-mingw32/nios2-elf/lib/mno-hw-mul\libc.a(lib_a-isattyr.o)
 .data          0x000000000004fb90        0x0 c:/altera/15.0/nios2eds/bin/gnu/h-x86_64-mingw32/bin/../lib/gcc/nios2-elf/4.9.1/../../../../../H-x86_64-mingw32/nios2-elf/lib/mno-hw-mul\libc.a(lib_a-lseekr.o)
 .data          0x000000000004fb90        0x0 c:/altera/15.0/nios2eds/bin/gnu/h-x86_64-mingw32/bin/../lib/gcc/nios2-elf/4.9.1/../../../../../H-x86_64-mingw32/nios2-elf/lib/mno-hw-mul\libc.a(lib_a-readr.o)
 .data          0x000000000004fb90        0x0 c:/altera/15.0/nios2eds/bin/gnu/h-x86_64-mingw32/bin/../lib/gcc/nios2-elf/4.9.1/mno-hw-mul\libgcc.a(lib2-mul.o)
 .data          0x000000000004fb90        0x0 ../UCOS_practica_bsp/\libucosii_bsp.a(alt_close.o)
 .data          0x000000000004fb90      0x1a8 ../UCOS_practica_bsp/\libucosii_bsp.a(alt_dev.o)
                0x000000000004fb90                alt_dev_null
                0x000000000004fbb8                alt_fd_list
 .data          0x000000000004fd38        0x0 ../UCOS_practica_bsp/\libucosii_bsp.a(alt_errno.o)
 .data          0x000000000004fd38        0x0 ../UCOS_practica_bsp/\libucosii_bsp.a(alt_fstat.o)
 .data          0x000000000004fd38        0x0 ../UCOS_practica_bsp/\libucosii_bsp.a(alt_isatty.o)
 .data          0x000000000004fd38        0x0 ../UCOS_practica_bsp/\libucosii_bsp.a(alt_load.o)
 .data          0x000000000004fd38        0x0 ../UCOS_practica_bsp/\libucosii_bsp.a(alt_lseek.o)
 .data          0x000000000004fd38        0x0 ../UCOS_practica_bsp/\libucosii_bsp.a(alt_main.o)
 .data          0x000000000004fd38        0x0 ../UCOS_practica_bsp/\libucosii_bsp.a(alt_read.o)
 .data          0x000000000004fd38        0x0 ../UCOS_practica_bsp/\libucosii_bsp.a(alt_release_fd.o)
 .data          0x000000000004fd38        0x0 ../UCOS_practica_bsp/\libucosii_bsp.a(alt_sbrk.o)
 .data          0x000000000004fd38        0x0 ../UCOS_practica_bsp/\libucosii_bsp.a(alt_write.o)
 .data          0x000000000004fd38        0x0 ../UCOS_practica_bsp/\libucosii_bsp.a(alt_env_lock.o)
 .data          0x000000000004fd38        0x0 ../UCOS_practica_bsp/\libucosii_bsp.a(alt_malloc_lock.o)
 .data          0x000000000004fd38        0x0 ../UCOS_practica_bsp/\libucosii_bsp.a(os_core.o)
 .data          0x000000000004fd38        0x0 ../UCOS_practica_bsp/\libucosii_bsp.a(os_dbg.o)
 .data          0x000000000004fd38        0x0 ../UCOS_practica_bsp/\libucosii_bsp.a(os_flag.o)
 .data          0x000000000004fd38        0x0 ../UCOS_practica_bsp/\libucosii_bsp.a(os_mem.o)
 .data          0x000000000004fd38        0x0 ../UCOS_practica_bsp/\libucosii_bsp.a(os_q.o)
 .data          0x000000000004fd38        0x0 ../UCOS_practica_bsp/\libucosii_bsp.a(os_sem.o)
 .data          0x000000000004fd38        0x0 ../UCOS_practica_bsp/\libucosii_bsp.a(os_task.o)
 .data          0x000000000004fd38        0x0 ../UCOS_practica_bsp/\libucosii_bsp.a(os_time.o)
 .data          0x000000000004fd38     0x113c ../UCOS_practica_bsp/\libucosii_bsp.a(alt_sys_init.o)
 .data          0x0000000000050e74        0x0 ../UCOS_practica_bsp/\libucosii_bsp.a(altera_avalon_jtag_uart_fd.o)
 .data          0x0000000000050e74        0x0 ../UCOS_practica_bsp/\libucosii_bsp.a(altera_avalon_jtag_uart_init.o)
 .data          0x0000000000050e74        0x0 ../UCOS_practica_bsp/\libucosii_bsp.a(altera_avalon_jtag_uart_ioctl.o)
 .data          0x0000000000050e74        0x0 ../UCOS_practica_bsp/\libucosii_bsp.a(altera_avalon_jtag_uart_read.o)
 .data          0x0000000000050e74        0x0 ../UCOS_practica_bsp/\libucosii_bsp.a(altera_avalon_jtag_uart_write.o)
 .data          0x0000000000050e74        0x0 ../UCOS_practica_bsp/\libucosii_bsp.a(altera_avalon_timer_sc.o)
 .data          0x0000000000050e74        0x0 ../UCOS_practica_bsp/\libucosii_bsp.a(altera_avalon_uart_fd.o)
 .data          0x0000000000050e74        0x0 ../UCOS_practica_bsp/\libucosii_bsp.a(altera_avalon_uart_init.o)
 .data          0x0000000000050e74        0x0 ../UCOS_practica_bsp/\libucosii_bsp.a(altera_avalon_uart_read.o)
 .data          0x0000000000050e74        0x0 ../UCOS_practica_bsp/\libucosii_bsp.a(altera_avalon_uart_write.o)
 .data          0x0000000000050e74        0x0 ../UCOS_practica_bsp/\libucosii_bsp.a(alt_alarm_start.o)
 .data          0x0000000000050e74        0x0 ../UCOS_practica_bsp/\libucosii_bsp.a(alt_dcache_flush_all.o)
 .data          0x0000000000050e74        0x0 ../UCOS_practica_bsp/\libucosii_bsp.a(alt_dev_llist_insert.o)
 .data          0x0000000000050e74        0x0 ../UCOS_practica_bsp/\libucosii_bsp.a(alt_do_ctors.o)
 .data          0x0000000000050e74        0x0 ../UCOS_practica_bsp/\libucosii_bsp.a(alt_do_dtors.o)
 .data          0x0000000000050e74        0x0 ../UCOS_practica_bsp/\libucosii_bsp.a(alt_icache_flush_all.o)
 .data          0x0000000000050e74        0x0 ../UCOS_practica_bsp/\libucosii_bsp.a(alt_iic.o)
 .data          0x0000000000050e74        0x0 ../UCOS_practica_bsp/\libucosii_bsp.a(alt_iic_isr_register.o)
 .data          0x0000000000050e74        0x0 ../UCOS_practica_bsp/\libucosii_bsp.a(alt_io_redirect.o)
 .data          0x0000000000050e74        0x0 ../UCOS_practica_bsp/\libucosii_bsp.a(alt_irq_entry.o)
 .data          0x0000000000050e74        0x0 ../UCOS_practica_bsp/\libucosii_bsp.a(alt_irq_handler.o)
 .data          0x0000000000050e74        0x0 ../UCOS_practica_bsp/\libucosii_bsp.a(alt_irq_vars.o)
 .data          0x0000000000050e74        0x0 ../UCOS_practica_bsp/\libucosii_bsp.a(alt_open.o)
 .data          0x0000000000050e74        0x0 ../UCOS_practica_bsp/\libucosii_bsp.a(alt_tick.o)
 .data          0x0000000000050e74        0x0 ../UCOS_practica_bsp/\libucosii_bsp.a(altera_nios2_gen2_irq.o)
 .data          0x0000000000050e74        0x0 ../UCOS_practica_bsp/\libucosii_bsp.a(os_cpu_a.o)
 .data          0x0000000000050e74        0x0 ../UCOS_practica_bsp/\libucosii_bsp.a(os_cpu_c.o)
 .data          0x0000000000050e74        0x0 ../UCOS_practica_bsp/\libucosii_bsp.a(alt_exception_entry.o)
 .data          0x0000000000050e74        0x0 ../UCOS_practica_bsp/\libucosii_bsp.a(alt_find_dev.o)
 .data          0x0000000000050e74        0x0 ../UCOS_practica_bsp/\libucosii_bsp.a(alt_find_file.o)
 .data          0x0000000000050e74        0x0 ../UCOS_practica_bsp/\libucosii_bsp.a(alt_get_fd.o)
 .data          0x0000000000050e74        0x0 ../UCOS_practica_bsp/\libucosii_bsp.a(alt_instruction_exception_entry.o)
 .data          0x0000000000050e74        0x0 c:/altera/15.0/nios2eds/bin/gnu/h-x86_64-mingw32/bin/../lib/gcc/nios2-elf/4.9.1/../../../../../H-x86_64-mingw32/nios2-elf/lib/mno-hw-mul\libc.a(lib_a-atexit.o)
 .data          0x0000000000050e74        0x0 c:/altera/15.0/nios2eds/bin/gnu/h-x86_64-mingw32/bin/../lib/gcc/nios2-elf/4.9.1/../../../../../H-x86_64-mingw32/nios2-elf/lib/mno-hw-mul\libc.a(lib_a-exit.o)
 .data          0x0000000000050e74        0x0 c:/altera/15.0/nios2eds/bin/gnu/h-x86_64-mingw32/bin/../lib/gcc/nios2-elf/4.9.1/../../../../../H-x86_64-mingw32/nios2-elf/lib/mno-hw-mul\libc.a(lib_a-memcmp.o)
 .data          0x0000000000050e74        0x0 c:/altera/15.0/nios2eds/bin/gnu/h-x86_64-mingw32/bin/../lib/gcc/nios2-elf/4.9.1/../../../../../H-x86_64-mingw32/nios2-elf/lib/mno-hw-mul\libc.a(lib_a-__atexit.o)
 .data          0x0000000000050e74        0x0 c:/altera/15.0/nios2eds/bin/gnu/h-x86_64-mingw32/bin/../lib/gcc/nios2-elf/4.9.1/../../../../../H-x86_64-mingw32/nios2-elf/lib/mno-hw-mul\libc.a(lib_a-__call_atexit.o)
 .data          0x0000000000050e74        0x0 c:/altera/15.0/nios2eds/bin/gnu/h-x86_64-mingw32/bin/../lib/gcc/nios2-elf/4.9.1/mno-hw-mul\libgcc.a(lib2-divmod.o)
 .data          0x0000000000050e74        0x0 ../UCOS_practica_bsp/\libucosii_bsp.a(alt_exit.o)
                0x0000000000058e74                _gp = ABSOLUTE ((. + 0x8000))
                0x0000000000058e74                PROVIDE (gp, _gp)
 *(.rwdata .rwdata.*)
 *(.sdata .sdata.* .gnu.linkonce.s.*)
 .sdata         0x0000000000050e74        0x8 c:/altera/15.0/nios2eds/bin/gnu/h-x86_64-mingw32/bin/../lib/gcc/nios2-elf/4.9.1/../../../../../H-x86_64-mingw32/nios2-elf/lib/mno-hw-mul\libc.a(lib_a-impure.o)
                0x0000000000050e74                _global_impure_ptr
                0x0000000000050e78                _impure_ptr
 .sdata         0x0000000000050e7c        0x8 c:/altera/15.0/nios2eds/bin/gnu/h-x86_64-mingw32/bin/../lib/gcc/nios2-elf/4.9.1/../../../../../H-x86_64-mingw32/nios2-elf/lib/mno-hw-mul\libc.a(lib_a-mallocr.o)
                0x0000000000050e7c                __malloc_sbrk_base
                0x0000000000050e80                __malloc_trim_threshold
 .sdata         0x0000000000050e84       0x14 ../UCOS_practica_bsp/\libucosii_bsp.a(alt_dev.o)
                0x0000000000050e84                alt_fs_list
                0x0000000000050e8c                alt_dev_list
                0x0000000000050e94                alt_max_fd
 .sdata         0x0000000000050e98        0x4 ../UCOS_practica_bsp/\libucosii_bsp.a(alt_errno.o)
                0x0000000000050e98                alt_errno
 .sdata         0x0000000000050e9c        0x4 ../UCOS_practica_bsp/\libucosii_bsp.a(alt_sbrk.o)
 .sdata         0x0000000000050ea0        0x4 ../UCOS_practica_bsp/\libucosii_bsp.a(alt_env_lock.o)
 .sdata         0x0000000000050ea4        0x4 ../UCOS_practica_bsp/\libucosii_bsp.a(alt_malloc_lock.o)
 .sdata         0x0000000000050ea8       0x74 ../UCOS_practica_bsp/\libucosii_bsp.a(os_dbg.o)
                0x0000000000050ea8                OSDebugEn
                0x0000000000050eac                OSEndiannessTest
                0x0000000000050eb0                OSEventEn
                0x0000000000050eb2                OSEventMax
                0x0000000000050eb4                OSEventNameSize
                0x0000000000050eb6                OSEventSize
                0x0000000000050eb8                OSEventTblSize
                0x0000000000050eba                OSEventMultiEn
                0x0000000000050ebc                OSFlagEn
                0x0000000000050ebe                OSFlagGrpSize
                0x0000000000050ec0                OSFlagNodeSize
                0x0000000000050ec2                OSFlagWidth
                0x0000000000050ec4                OSFlagMax
                0x0000000000050ec6                OSFlagNameSize
                0x0000000000050ec8                OSLowestPrio
                0x0000000000050eca                OSMboxEn
                0x0000000000050ecc                OSMemEn
                0x0000000000050ece                OSMemMax
                0x0000000000050ed0                OSMemNameSize
                0x0000000000050ed2                OSMemSize
                0x0000000000050ed4                OSMemTblSize
                0x0000000000050ed6                OSMutexEn
                0x0000000000050ed8                OSPtrSize
                0x0000000000050eda                OSQEn
                0x0000000000050edc                OSQMax
                0x0000000000050ede                OSQSize
                0x0000000000050ee0                OSRdyTblSize
                0x0000000000050ee2                OSSemEn
                0x0000000000050ee4                OSStkWidth
                0x0000000000050ee6                OSTaskCreateEn
                0x0000000000050ee8                OSTaskCreateExtEn
                0x0000000000050eea                OSTaskDelEn
                0x0000000000050eec                OSTaskIdleStkSize
                0x0000000000050eee                OSTaskProfileEn
                0x0000000000050ef0                OSTaskMax
                0x0000000000050ef2                OSTaskNameSize
                0x0000000000050ef4                OSTaskStatEn
                0x0000000000050ef6                OSTaskStatStkSize
                0x0000000000050ef8                OSTaskStatStkChkEn
                0x0000000000050efa                OSTaskSwHookEn
                0x0000000000050efc                OSTCBPrioTblMax
                0x0000000000050efe                OSTCBSize
                0x0000000000050f00                OSTicksPerSec
                0x0000000000050f02                OSTimeTickHookEn
                0x0000000000050f04                OSVersionNbr
                0x0000000000050f06                OSTmrEn
                0x0000000000050f08                OSTmrCfgMax
                0x0000000000050f0a                OSTmrCfgNameSize
                0x0000000000050f0c                OSTmrCfgWheelSize
                0x0000000000050f0e                OSTmrCfgTicksPerSec
                0x0000000000050f10                OSTmrSize
                0x0000000000050f12                OSTmrTblSize
                0x0000000000050f14                OSTmrWheelSize
                0x0000000000050f16                OSTmrWheelTblSize
                0x0000000000050f18                OSDataSize
 .sdata         0x0000000000050f1c        0x4 ../UCOS_practica_bsp/\libucosii_bsp.a(alt_irq_vars.o)
                0x0000000000050f1c                alt_priority_mask
 .sdata         0x0000000000050f20        0x8 ../UCOS_practica_bsp/\libucosii_bsp.a(alt_tick.o)
                0x0000000000050f20                alt_alarm_list
 *(.sdata2 .sdata2.* .gnu.linkonce.s2.*)
                0x0000000000050f28                . = ALIGN (0x4)
                0x0000000000050f28                _edata = ABSOLUTE (.)
                0x0000000000050f28                PROVIDE (edata, ABSOLUTE (.))
                0x0000000000050f28                PROVIDE (__ram_rwdata_end, ABSOLUTE (.))
                0x0000000000050f28                PROVIDE (__flash_rwdata_start, LOADADDR (.rwdata))

.bss            0x0000000000052aec     0x93dc
                0x0000000000052aec                __bss_start = ABSOLUTE (.)
                0x0000000000052aec                PROVIDE (__sbss_start, ABSOLUTE (.))
                0x0000000000052aec                PROVIDE (___sbss_start, ABSOLUTE (.))
 *(.dynsbss)
 *(.sbss .sbss.* .gnu.linkonce.sb.*)
 .sbss          0x0000000000052aec        0xc c:/altera/15.0/nios2eds/bin/gnu/h-x86_64-mingw32/bin/../lib/gcc/nios2-elf/4.9.1/../../../../../H-x86_64-mingw32/nios2-elf/lib/mno-hw-mul\libc.a(lib_a-mallocr.o)
                0x0000000000052aec                __malloc_max_total_mem
                0x0000000000052af0                __malloc_max_sbrked_mem
                0x0000000000052af4                __malloc_top_pad
 .sbss          0x0000000000052af8        0x4 c:/altera/15.0/nios2eds/bin/gnu/h-x86_64-mingw32/bin/../lib/gcc/nios2-elf/4.9.1/../../../../../H-x86_64-mingw32/nios2-elf/lib/mno-hw-mul\libc.a(lib_a-int_errno.o)
                0x0000000000052af8                errno
 .sbss          0x0000000000052afc        0x4 ../UCOS_practica_bsp/\libucosii_bsp.a(alt_dev.o)
                0x0000000000052afc                alt_fd_list_lock
 .sbss          0x0000000000052b00        0xc ../UCOS_practica_bsp/\libucosii_bsp.a(alt_main.o)
                0x0000000000052b00                alt_argc
                0x0000000000052b04                alt_argv
                0x0000000000052b08                alt_envp
 .sbss          0x0000000000052b0c        0x8 ../UCOS_practica_bsp/\libucosii_bsp.a(alt_env_lock.o)
                0x0000000000052b10                alt_envsem
 .sbss          0x0000000000052b14        0x8 ../UCOS_practica_bsp/\libucosii_bsp.a(alt_malloc_lock.o)
                0x0000000000052b18                alt_heapsem
 .sbss          0x0000000000052b1c       0x50 ../UCOS_practica_bsp/\libucosii_bsp.a(os_core.o)
                0x0000000000052b1c                OSLockNesting
                0x0000000000052b1d                OSRunning
                0x0000000000052b20                OSIdleCtr
                0x0000000000052b24                OSPrioHighRdy
                0x0000000000052b25                OSPrioCur
                0x0000000000052b28                OSTCBList
                0x0000000000052b2c                OSTickStepState
                0x0000000000052b30                OSCtxSwCtr
                0x0000000000052b34                OSIdleCtrMax
                0x0000000000052b38                OSTCBFreeList
                0x0000000000052b3c                OSCPUUsage
                0x0000000000052b3d                OSTaskCtr
                0x0000000000052b40                OSMemFreeList
                0x0000000000052b44                OSTCBHighRdy
                0x0000000000052b48                OSQFreeList
                0x0000000000052b4c                OSRdyGrp
                0x0000000000052b4d                OSRdyTbl
                0x0000000000052b50                OSEventFreeList
                0x0000000000052b54                OSIntNesting
                0x0000000000052b58                OSTCBCur
                0x0000000000052b5c                OSTime
                0x0000000000052b60                OSFlagFreeList
                0x0000000000052b64                OSStatRdy
                0x0000000000052b68                OSIdleCtrRun
 .sbss          0x0000000000052b6c        0x4 ../UCOS_practica_bsp/\libucosii_bsp.a(alt_irq_vars.o)
                0x0000000000052b6c                alt_irq_active
 .sbss          0x0000000000052b70        0x8 ../UCOS_practica_bsp/\libucosii_bsp.a(alt_tick.o)
                0x0000000000052b70                _alt_tick_rate
                0x0000000000052b74                _alt_nticks
 .sbss          0x0000000000052b78        0x4 ../UCOS_practica_bsp/\libucosii_bsp.a(alt_instruction_exception_entry.o)
                0x0000000000052b78                alt_instruction_exception_handler
 *(.sbss2 .sbss2.* .gnu.linkonce.sb2.*)
 *(.scommon)
                0x0000000000052b7c                PROVIDE (__sbss_end, ABSOLUTE (.))
                0x0000000000052b7c                PROVIDE (___sbss_end, ABSOLUTE (.))
 *(.dynbss)
 *(.bss .bss.* .gnu.linkonce.b.*)
 .bss           0x0000000000052b7c        0x0 ../UCOS_practica_bsp//obj/HAL/src/crt0.o
 .bss           0x0000000000052b7c        0x0 obj/default/hello_ucosii.o
 .bss           0x0000000000052b7c        0x0 c:/altera/15.0/nios2eds/bin/gnu/h-x86_64-mingw32/bin/../lib/gcc/nios2-elf/4.9.1/../../../../../H-x86_64-mingw32/nios2-elf/lib/mno-hw-mul\libc.a(lib_a-puts.o)
 .bss           0x0000000000052b7c        0x0 c:/altera/15.0/nios2eds/bin/gnu/h-x86_64-mingw32/bin/../lib/gcc/nios2-elf/4.9.1/../../../../../H-x86_64-mingw32/nios2-elf/lib/mno-hw-mul\libc.a(lib_a-strlen.o)
 .bss           0x0000000000052b7c        0x0 c:/altera/15.0/nios2eds/bin/gnu/h-x86_64-mingw32/bin/../lib/gcc/nios2-elf/4.9.1/../../../../../H-x86_64-mingw32/nios2-elf/lib/mno-hw-mul\libc.a(lib_a-fvwrite.o)
 .bss           0x0000000000052b7c        0x0 c:/altera/15.0/nios2eds/bin/gnu/h-x86_64-mingw32/bin/../lib/gcc/nios2-elf/4.9.1/../../../../../H-x86_64-mingw32/nios2-elf/lib/mno-hw-mul\libc.a(lib_a-impure.o)
 .bss           0x0000000000052b7c       0x28 c:/altera/15.0/nios2eds/bin/gnu/h-x86_64-mingw32/bin/../lib/gcc/nios2-elf/4.9.1/../../../../../H-x86_64-mingw32/nios2-elf/lib/mno-hw-mul\libc.a(lib_a-mallocr.o)
                0x0000000000052b7c                __malloc_current_mallinfo
 .bss           0x0000000000052ba4        0x0 c:/altera/15.0/nios2eds/bin/gnu/h-x86_64-mingw32/bin/../lib/gcc/nios2-elf/4.9.1/../../../../../H-x86_64-mingw32/nios2-elf/lib/mno-hw-mul\libc.a(lib_a-memchr.o)
 .bss           0x0000000000052ba4        0x0 c:/altera/15.0/nios2eds/bin/gnu/h-x86_64-mingw32/bin/../lib/gcc/nios2-elf/4.9.1/../../../../../H-x86_64-mingw32/nios2-elf/lib/mno-hw-mul\libc.a(lib_a-memcpy.o)
 .bss           0x0000000000052ba4        0x0 c:/altera/15.0/nios2eds/bin/gnu/h-x86_64-mingw32/bin/../lib/gcc/nios2-elf/4.9.1/../../../../../H-x86_64-mingw32/nios2-elf/lib/mno-hw-mul\libc.a(lib_a-memmove.o)
 .bss           0x0000000000052ba4        0x0 c:/altera/15.0/nios2eds/bin/gnu/h-x86_64-mingw32/bin/../lib/gcc/nios2-elf/4.9.1/../../../../../H-x86_64-mingw32/nios2-elf/lib/mno-hw-mul\libc.a(lib_a-reallocr.o)
 .bss           0x0000000000052ba4        0x0 c:/altera/15.0/nios2eds/bin/gnu/h-x86_64-mingw32/bin/../lib/gcc/nios2-elf/4.9.1/../../../../../H-x86_64-mingw32/nios2-elf/lib/mno-hw-mul\libc.a(lib_a-sbrkr.o)
 .bss           0x0000000000052ba4        0x0 c:/altera/15.0/nios2eds/bin/gnu/h-x86_64-mingw32/bin/../lib/gcc/nios2-elf/4.9.1/../../../../../H-x86_64-mingw32/nios2-elf/lib/mno-hw-mul\libc.a(lib_a-wsetup.o)
 .bss           0x0000000000052ba4        0x0 c:/altera/15.0/nios2eds/bin/gnu/h-x86_64-mingw32/bin/../lib/gcc/nios2-elf/4.9.1/../../../../../H-x86_64-mingw32/nios2-elf/lib/mno-hw-mul\libc.a(lib_a-fflush.o)
 .bss           0x0000000000052ba4        0x0 c:/altera/15.0/nios2eds/bin/gnu/h-x86_64-mingw32/bin/../lib/gcc/nios2-elf/4.9.1/../../../../../H-x86_64-mingw32/nios2-elf/lib/mno-hw-mul\libc.a(lib_a-findfp.o)
 .bss           0x0000000000052ba4        0x0 c:/altera/15.0/nios2eds/bin/gnu/h-x86_64-mingw32/bin/../lib/gcc/nios2-elf/4.9.1/../../../../../H-x86_64-mingw32/nios2-elf/lib/mno-hw-mul\libc.a(lib_a-freer.o)
 .bss           0x0000000000052ba4        0x0 c:/altera/15.0/nios2eds/bin/gnu/h-x86_64-mingw32/bin/../lib/gcc/nios2-elf/4.9.1/../../../../../H-x86_64-mingw32/nios2-elf/lib/mno-hw-mul\libc.a(lib_a-fwalk.o)
 .bss           0x0000000000052ba4        0x0 c:/altera/15.0/nios2eds/bin/gnu/h-x86_64-mingw32/bin/../lib/gcc/nios2-elf/4.9.1/../../../../../H-x86_64-mingw32/nios2-elf/lib/mno-hw-mul\libc.a(lib_a-int_errno.o)
 .bss           0x0000000000052ba4        0x0 c:/altera/15.0/nios2eds/bin/gnu/h-x86_64-mingw32/bin/../lib/gcc/nios2-elf/4.9.1/../../../../../H-x86_64-mingw32/nios2-elf/lib/mno-hw-mul\libc.a(lib_a-makebuf.o)
 .bss           0x0000000000052ba4        0x0 c:/altera/15.0/nios2eds/bin/gnu/h-x86_64-mingw32/bin/../lib/gcc/nios2-elf/4.9.1/../../../../../H-x86_64-mingw32/nios2-elf/lib/mno-hw-mul\libc.a(lib_a-memset.o)
 .bss           0x0000000000052ba4        0x0 c:/altera/15.0/nios2eds/bin/gnu/h-x86_64-mingw32/bin/../lib/gcc/nios2-elf/4.9.1/../../../../../H-x86_64-mingw32/nios2-elf/lib/mno-hw-mul\libc.a(lib_a-stdio.o)
 .bss           0x0000000000052ba4        0x0 c:/altera/15.0/nios2eds/bin/gnu/h-x86_64-mingw32/bin/../lib/gcc/nios2-elf/4.9.1/../../../../../H-x86_64-mingw32/nios2-elf/lib/mno-hw-mul\libc.a(lib_a-writer.o)
 .bss           0x0000000000052ba4        0x0 c:/altera/15.0/nios2eds/bin/gnu/h-x86_64-mingw32/bin/../lib/gcc/nios2-elf/4.9.1/../../../../../H-x86_64-mingw32/nios2-elf/lib/mno-hw-mul\libc.a(closer.o)
 .bss           0x0000000000052ba4        0x0 c:/altera/15.0/nios2eds/bin/gnu/h-x86_64-mingw32/bin/../lib/gcc/nios2-elf/4.9.1/../../../../../H-x86_64-mingw32/nios2-elf/lib/mno-hw-mul\libc.a(lib_a-fclose.o)
 .bss           0x0000000000052ba4        0x0 c:/altera/15.0/nios2eds/bin/gnu/h-x86_64-mingw32/bin/../lib/gcc/nios2-elf/4.9.1/../../../../../H-x86_64-mingw32/nios2-elf/lib/mno-hw-mul\libc.a(lib_a-fstatr.o)
 .bss           0x0000000000052ba4        0x0 c:/altera/15.0/nios2eds/bin/gnu/h-x86_64-mingw32/bin/../lib/gcc/nios2-elf/4.9.1/../../../../../H-x86_64-mingw32/nios2-elf/lib/mno-hw-mul\libc.a(lib_a-isattyr.o)
 .bss           0x0000000000052ba4        0x0 c:/altera/15.0/nios2eds/bin/gnu/h-x86_64-mingw32/bin/../lib/gcc/nios2-elf/4.9.1/../../../../../H-x86_64-mingw32/nios2-elf/lib/mno-hw-mul\libc.a(lib_a-lseekr.o)
 .bss           0x0000000000052ba4        0x0 c:/altera/15.0/nios2eds/bin/gnu/h-x86_64-mingw32/bin/../lib/gcc/nios2-elf/4.9.1/../../../../../H-x86_64-mingw32/nios2-elf/lib/mno-hw-mul\libc.a(lib_a-readr.o)
 .bss           0x0000000000052ba4        0x0 c:/altera/15.0/nios2eds/bin/gnu/h-x86_64-mingw32/bin/../lib/gcc/nios2-elf/4.9.1/mno-hw-mul\libgcc.a(lib2-mul.o)
 .bss           0x0000000000052ba4        0x0 ../UCOS_practica_bsp/\libucosii_bsp.a(alt_close.o)
 .bss           0x0000000000052ba4        0x0 ../UCOS_practica_bsp/\libucosii_bsp.a(alt_dev.o)
 .bss           0x0000000000052ba4        0x0 ../UCOS_practica_bsp/\libucosii_bsp.a(alt_errno.o)
 .bss           0x0000000000052ba4        0x0 ../UCOS_practica_bsp/\libucosii_bsp.a(alt_fstat.o)
 .bss           0x0000000000052ba4        0x0 ../UCOS_practica_bsp/\libucosii_bsp.a(alt_isatty.o)
 .bss           0x0000000000052ba4        0x0 ../UCOS_practica_bsp/\libucosii_bsp.a(alt_load.o)
 .bss           0x0000000000052ba4        0x0 ../UCOS_practica_bsp/\libucosii_bsp.a(alt_lseek.o)
 .bss           0x0000000000052ba4        0x0 ../UCOS_practica_bsp/\libucosii_bsp.a(alt_main.o)
 .bss           0x0000000000052ba4        0x0 ../UCOS_practica_bsp/\libucosii_bsp.a(alt_read.o)
 .bss           0x0000000000052ba4        0x0 ../UCOS_practica_bsp/\libucosii_bsp.a(alt_release_fd.o)
 .bss           0x0000000000052ba4        0x0 ../UCOS_practica_bsp/\libucosii_bsp.a(alt_sbrk.o)
 .bss           0x0000000000052ba4        0x0 ../UCOS_practica_bsp/\libucosii_bsp.a(alt_write.o)
 .bss           0x0000000000052ba4        0x0 ../UCOS_practica_bsp/\libucosii_bsp.a(alt_env_lock.o)
 .bss           0x0000000000052ba4        0x0 ../UCOS_practica_bsp/\libucosii_bsp.a(alt_malloc_lock.o)
 .bss           0x0000000000052ba4        0x0 ../UCOS_practica_bsp/\libucosii_bsp.a(os_core.o)
 .bss           0x0000000000052ba4        0x0 ../UCOS_practica_bsp/\libucosii_bsp.a(os_dbg.o)
 .bss           0x0000000000052ba4        0x0 ../UCOS_practica_bsp/\libucosii_bsp.a(os_flag.o)
 .bss           0x0000000000052ba4        0x0 ../UCOS_practica_bsp/\libucosii_bsp.a(os_mem.o)
 .bss           0x0000000000052ba4        0x0 ../UCOS_practica_bsp/\libucosii_bsp.a(os_q.o)
 .bss           0x0000000000052ba4        0x0 ../UCOS_practica_bsp/\libucosii_bsp.a(os_sem.o)
 .bss           0x0000000000052ba4        0x0 ../UCOS_practica_bsp/\libucosii_bsp.a(os_task.o)
 .bss           0x0000000000052ba4        0x0 ../UCOS_practica_bsp/\libucosii_bsp.a(os_time.o)
 .bss           0x0000000000052ba4        0x0 ../UCOS_practica_bsp/\libucosii_bsp.a(alt_sys_init.o)
 .bss           0x0000000000052ba4        0x0 ../UCOS_practica_bsp/\libucosii_bsp.a(altera_avalon_jtag_uart_fd.o)
 .bss           0x0000000000052ba4        0x0 ../UCOS_practica_bsp/\libucosii_bsp.a(altera_avalon_jtag_uart_init.o)
 .bss           0x0000000000052ba4        0x0 ../UCOS_practica_bsp/\libucosii_bsp.a(altera_avalon_jtag_uart_ioctl.o)
 .bss           0x0000000000052ba4        0x0 ../UCOS_practica_bsp/\libucosii_bsp.a(altera_avalon_jtag_uart_read.o)
 .bss           0x0000000000052ba4        0x0 ../UCOS_practica_bsp/\libucosii_bsp.a(altera_avalon_jtag_uart_write.o)
 .bss           0x0000000000052ba4        0x0 ../UCOS_practica_bsp/\libucosii_bsp.a(altera_avalon_timer_sc.o)
 .bss           0x0000000000052ba4        0x0 ../UCOS_practica_bsp/\libucosii_bsp.a(altera_avalon_uart_fd.o)
 .bss           0x0000000000052ba4        0x0 ../UCOS_practica_bsp/\libucosii_bsp.a(altera_avalon_uart_init.o)
 .bss           0x0000000000052ba4        0x0 ../UCOS_practica_bsp/\libucosii_bsp.a(altera_avalon_uart_read.o)
 .bss           0x0000000000052ba4        0x0 ../UCOS_practica_bsp/\libucosii_bsp.a(altera_avalon_uart_write.o)
 .bss           0x0000000000052ba4        0x0 ../UCOS_practica_bsp/\libucosii_bsp.a(alt_alarm_start.o)
 .bss           0x0000000000052ba4        0x0 ../UCOS_practica_bsp/\libucosii_bsp.a(alt_dcache_flush_all.o)
 .bss           0x0000000000052ba4        0x0 ../UCOS_practica_bsp/\libucosii_bsp.a(alt_dev_llist_insert.o)
 .bss           0x0000000000052ba4        0x0 ../UCOS_practica_bsp/\libucosii_bsp.a(alt_do_ctors.o)
 .bss           0x0000000000052ba4        0x0 ../UCOS_practica_bsp/\libucosii_bsp.a(alt_do_dtors.o)
 .bss           0x0000000000052ba4        0x0 ../UCOS_practica_bsp/\libucosii_bsp.a(alt_icache_flush_all.o)
 .bss           0x0000000000052ba4        0x0 ../UCOS_practica_bsp/\libucosii_bsp.a(alt_iic.o)
 .bss           0x0000000000052ba4        0x0 ../UCOS_practica_bsp/\libucosii_bsp.a(alt_iic_isr_register.o)
 .bss           0x0000000000052ba4        0x0 ../UCOS_practica_bsp/\libucosii_bsp.a(alt_io_redirect.o)
 .bss           0x0000000000052ba4        0x0 ../UCOS_practica_bsp/\libucosii_bsp.a(alt_irq_entry.o)
 .bss           0x0000000000052ba4        0x0 ../UCOS_practica_bsp/\libucosii_bsp.a(alt_irq_handler.o)
 .bss           0x0000000000052ba4        0x0 ../UCOS_practica_bsp/\libucosii_bsp.a(alt_irq_vars.o)
 .bss           0x0000000000052ba4        0x0 ../UCOS_practica_bsp/\libucosii_bsp.a(alt_open.o)
 .bss           0x0000000000052ba4        0x0 ../UCOS_practica_bsp/\libucosii_bsp.a(alt_tick.o)
 .bss           0x0000000000052ba4        0x0 ../UCOS_practica_bsp/\libucosii_bsp.a(altera_nios2_gen2_irq.o)
 .bss           0x0000000000052ba4        0x0 ../UCOS_practica_bsp/\libucosii_bsp.a(os_cpu_a.o)
 .bss           0x0000000000052ba4        0x0 ../UCOS_practica_bsp/\libucosii_bsp.a(os_cpu_c.o)
 .bss           0x0000000000052ba4        0x0 ../UCOS_practica_bsp/\libucosii_bsp.a(alt_exception_entry.o)
 .bss           0x0000000000052ba4        0x0 ../UCOS_practica_bsp/\libucosii_bsp.a(alt_find_dev.o)
 .bss           0x0000000000052ba4        0x0 ../UCOS_practica_bsp/\libucosii_bsp.a(alt_find_file.o)
 .bss           0x0000000000052ba4        0x0 ../UCOS_practica_bsp/\libucosii_bsp.a(alt_get_fd.o)
 .bss           0x0000000000052ba4        0x0 ../UCOS_practica_bsp/\libucosii_bsp.a(alt_instruction_exception_entry.o)
 .bss           0x0000000000052ba4        0x0 c:/altera/15.0/nios2eds/bin/gnu/h-x86_64-mingw32/bin/../lib/gcc/nios2-elf/4.9.1/../../../../../H-x86_64-mingw32/nios2-elf/lib/mno-hw-mul\libc.a(lib_a-atexit.o)
 .bss           0x0000000000052ba4        0x0 c:/altera/15.0/nios2eds/bin/gnu/h-x86_64-mingw32/bin/../lib/gcc/nios2-elf/4.9.1/../../../../../H-x86_64-mingw32/nios2-elf/lib/mno-hw-mul\libc.a(lib_a-exit.o)
 .bss           0x0000000000052ba4        0x0 c:/altera/15.0/nios2eds/bin/gnu/h-x86_64-mingw32/bin/../lib/gcc/nios2-elf/4.9.1/../../../../../H-x86_64-mingw32/nios2-elf/lib/mno-hw-mul\libc.a(lib_a-memcmp.o)
 .bss           0x0000000000052ba4        0x0 c:/altera/15.0/nios2eds/bin/gnu/h-x86_64-mingw32/bin/../lib/gcc/nios2-elf/4.9.1/../../../../../H-x86_64-mingw32/nios2-elf/lib/mno-hw-mul\libc.a(lib_a-__atexit.o)
 .bss           0x0000000000052ba4        0x0 c:/altera/15.0/nios2eds/bin/gnu/h-x86_64-mingw32/bin/../lib/gcc/nios2-elf/4.9.1/../../../../../H-x86_64-mingw32/nios2-elf/lib/mno-hw-mul\libc.a(lib_a-__call_atexit.o)
 .bss           0x0000000000052ba4        0x0 c:/altera/15.0/nios2eds/bin/gnu/h-x86_64-mingw32/bin/../lib/gcc/nios2-elf/4.9.1/mno-hw-mul\libgcc.a(lib2-divmod.o)
 .bss           0x0000000000052ba4        0x0 ../UCOS_practica_bsp/\libucosii_bsp.a(alt_exit.o)
 *(COMMON)
 COMMON         0x0000000000052ba4     0x6000 obj/default/hello_ucosii.o
                0x0000000000052ba4                task1_stk
                0x0000000000054ba4                task2_stk
                0x0000000000056ba4                leds_stk
 COMMON         0x0000000000058ba4     0x3224 ../UCOS_practica_bsp/\libucosii_bsp.a(os_core.o)
                0x0000000000058ba4                OSFlagTbl
                0x0000000000058f14                OSMemTbl
                0x0000000000059b44                OSTaskStatStk
                0x000000000005a344                OSQTbl
                0x000000000005a524                OSTaskIdleStk
                0x000000000005ad24                OSEventTbl
                0x000000000005b864                OSTCBTbl
                0x000000000005bd74                OSTCBPrioTbl
 COMMON         0x000000000005bdc8      0x100 ../UCOS_practica_bsp/\libucosii_bsp.a(alt_irq_handler.o)
                0x000000000005bdc8                alt_irq
                0x000000000005bec8                . = ALIGN (0x4)
                0x000000000005bec8                __bss_end = ABSOLUTE (.)

.RAM_jesus      0x000000000005bec8        0x0
                0x000000000005bec8                PROVIDE (_alt_partition_RAM_jesus_start, ABSOLUTE (.))
 *(.RAM_jesus .RAM_jesus. RAM_jesus.*)
                0x000000000005bec8                . = ALIGN (0x4)
                0x000000000005bec8                PROVIDE (_alt_partition_RAM_jesus_end, ABSOLUTE (.))
                0x000000000005bec8                _end = ABSOLUTE (.)
                0x000000000005bec8                end = ABSOLUTE (.)
                0x000000000005bec8                __alt_stack_base = ABSOLUTE (.)
                0x000000000005bec8                PROVIDE (_alt_partition_RAM_jesus_load_addr, LOADADDR (.RAM_jesus))

.stab
 *(.stab)

.stabstr
 *(.stabstr)

.stab.excl
 *(.stab.excl)

.stab.exclstr
 *(.stab.exclstr)

.stab.index
 *(.stab.index)

.stab.indexstr
 *(.stab.indexstr)

.comment        0x0000000000000000       0x23
 *(.comment)
 .comment       0x0000000000000000       0x23 obj/default/hello_ucosii.o
                                         0x24 (size before relaxing)
 .comment       0x0000000000000000       0x24 c:/altera/15.0/nios2eds/bin/gnu/h-x86_64-mingw32/bin/../lib/gcc/nios2-elf/4.9.1/../../../../../H-x86_64-mingw32/nios2-elf/lib/mno-hw-mul\libc.a(lib_a-puts.o)
 .comment       0x0000000000000000       0x24 c:/altera/15.0/nios2eds/bin/gnu/h-x86_64-mingw32/bin/../lib/gcc/nios2-elf/4.9.1/../../../../../H-x86_64-mingw32/nios2-elf/lib/mno-hw-mul\libc.a(lib_a-strlen.o)
 .comment       0x0000000000000000       0x24 c:/altera/15.0/nios2eds/bin/gnu/h-x86_64-mingw32/bin/../lib/gcc/nios2-elf/4.9.1/../../../../../H-x86_64-mingw32/nios2-elf/lib/mno-hw-mul\libc.a(lib_a-fvwrite.o)
 .comment       0x0000000000000000       0x24 c:/altera/15.0/nios2eds/bin/gnu/h-x86_64-mingw32/bin/../lib/gcc/nios2-elf/4.9.1/../../../../../H-x86_64-mingw32/nios2-elf/lib/mno-hw-mul\libc.a(lib_a-impure.o)
 .comment       0x0000000000000000       0x24 c:/altera/15.0/nios2eds/bin/gnu/h-x86_64-mingw32/bin/../lib/gcc/nios2-elf/4.9.1/../../../../../H-x86_64-mingw32/nios2-elf/lib/mno-hw-mul\libc.a(lib_a-mallocr.o)
 .comment       0x0000000000000000       0x24 c:/altera/15.0/nios2eds/bin/gnu/h-x86_64-mingw32/bin/../lib/gcc/nios2-elf/4.9.1/../../../../../H-x86_64-mingw32/nios2-elf/lib/mno-hw-mul\libc.a(lib_a-memchr.o)
 .comment       0x0000000000000000       0x24 c:/altera/15.0/nios2eds/bin/gnu/h-x86_64-mingw32/bin/../lib/gcc/nios2-elf/4.9.1/../../../../../H-x86_64-mingw32/nios2-elf/lib/mno-hw-mul\libc.a(lib_a-memcpy.o)
 .comment       0x0000000000000000       0x24 c:/altera/15.0/nios2eds/bin/gnu/h-x86_64-mingw32/bin/../lib/gcc/nios2-elf/4.9.1/../../../../../H-x86_64-mingw32/nios2-elf/lib/mno-hw-mul\libc.a(lib_a-memmove.o)
 .comment       0x0000000000000000       0x24 c:/altera/15.0/nios2eds/bin/gnu/h-x86_64-mingw32/bin/../lib/gcc/nios2-elf/4.9.1/../../../../../H-x86_64-mingw32/nios2-elf/lib/mno-hw-mul\libc.a(lib_a-reallocr.o)
 .comment       0x0000000000000000       0x24 c:/altera/15.0/nios2eds/bin/gnu/h-x86_64-mingw32/bin/../lib/gcc/nios2-elf/4.9.1/../../../../../H-x86_64-mingw32/nios2-elf/lib/mno-hw-mul\libc.a(lib_a-sbrkr.o)
 .comment       0x0000000000000000       0x24 c:/altera/15.0/nios2eds/bin/gnu/h-x86_64-mingw32/bin/../lib/gcc/nios2-elf/4.9.1/../../../../../H-x86_64-mingw32/nios2-elf/lib/mno-hw-mul\libc.a(lib_a-wsetup.o)
 .comment       0x0000000000000000       0x24 c:/altera/15.0/nios2eds/bin/gnu/h-x86_64-mingw32/bin/../lib/gcc/nios2-elf/4.9.1/../../../../../H-x86_64-mingw32/nios2-elf/lib/mno-hw-mul\libc.a(lib_a-fflush.o)
 .comment       0x0000000000000000       0x24 c:/altera/15.0/nios2eds/bin/gnu/h-x86_64-mingw32/bin/../lib/gcc/nios2-elf/4.9.1/../../../../../H-x86_64-mingw32/nios2-elf/lib/mno-hw-mul\libc.a(lib_a-findfp.o)
 .comment       0x0000000000000000       0x24 c:/altera/15.0/nios2eds/bin/gnu/h-x86_64-mingw32/bin/../lib/gcc/nios2-elf/4.9.1/../../../../../H-x86_64-mingw32/nios2-elf/lib/mno-hw-mul\libc.a(lib_a-freer.o)
 .comment       0x0000000000000000       0x24 c:/altera/15.0/nios2eds/bin/gnu/h-x86_64-mingw32/bin/../lib/gcc/nios2-elf/4.9.1/../../../../../H-x86_64-mingw32/nios2-elf/lib/mno-hw-mul\libc.a(lib_a-fwalk.o)
 .comment       0x0000000000000000       0x24 c:/altera/15.0/nios2eds/bin/gnu/h-x86_64-mingw32/bin/../lib/gcc/nios2-elf/4.9.1/../../../../../H-x86_64-mingw32/nios2-elf/lib/mno-hw-mul\libc.a(lib_a-int_errno.o)
 .comment       0x0000000000000000       0x24 c:/altera/15.0/nios2eds/bin/gnu/h-x86_64-mingw32/bin/../lib/gcc/nios2-elf/4.9.1/../../../../../H-x86_64-mingw32/nios2-elf/lib/mno-hw-mul\libc.a(lib_a-makebuf.o)
 .comment       0x0000000000000000       0x24 c:/altera/15.0/nios2eds/bin/gnu/h-x86_64-mingw32/bin/../lib/gcc/nios2-elf/4.9.1/../../../../../H-x86_64-mingw32/nios2-elf/lib/mno-hw-mul\libc.a(lib_a-memset.o)
 .comment       0x0000000000000000       0x24 c:/altera/15.0/nios2eds/bin/gnu/h-x86_64-mingw32/bin/../lib/gcc/nios2-elf/4.9.1/../../../../../H-x86_64-mingw32/nios2-elf/lib/mno-hw-mul\libc.a(lib_a-stdio.o)
 .comment       0x0000000000000000       0x24 c:/altera/15.0/nios2eds/bin/gnu/h-x86_64-mingw32/bin/../lib/gcc/nios2-elf/4.9.1/../../../../../H-x86_64-mingw32/nios2-elf/lib/mno-hw-mul\libc.a(lib_a-writer.o)
 .comment       0x0000000000000000       0x24 c:/altera/15.0/nios2eds/bin/gnu/h-x86_64-mingw32/bin/../lib/gcc/nios2-elf/4.9.1/../../../../../H-x86_64-mingw32/nios2-elf/lib/mno-hw-mul\libc.a(closer.o)
 .comment       0x0000000000000000       0x24 c:/altera/15.0/nios2eds/bin/gnu/h-x86_64-mingw32/bin/../lib/gcc/nios2-elf/4.9.1/../../../../../H-x86_64-mingw32/nios2-elf/lib/mno-hw-mul\libc.a(lib_a-fclose.o)
 .comment       0x0000000000000000       0x24 c:/altera/15.0/nios2eds/bin/gnu/h-x86_64-mingw32/bin/../lib/gcc/nios2-elf/4.9.1/../../../../../H-x86_64-mingw32/nios2-elf/lib/mno-hw-mul\libc.a(lib_a-fstatr.o)
 .comment       0x0000000000000000       0x24 c:/altera/15.0/nios2eds/bin/gnu/h-x86_64-mingw32/bin/../lib/gcc/nios2-elf/4.9.1/../../../../../H-x86_64-mingw32/nios2-elf/lib/mno-hw-mul\libc.a(lib_a-isattyr.o)
 .comment       0x0000000000000000       0x24 c:/altera/15.0/nios2eds/bin/gnu/h-x86_64-mingw32/bin/../lib/gcc/nios2-elf/4.9.1/../../../../../H-x86_64-mingw32/nios2-elf/lib/mno-hw-mul\libc.a(lib_a-lseekr.o)
 .comment       0x0000000000000000       0x24 c:/altera/15.0/nios2eds/bin/gnu/h-x86_64-mingw32/bin/../lib/gcc/nios2-elf/4.9.1/../../../../../H-x86_64-mingw32/nios2-elf/lib/mno-hw-mul\libc.a(lib_a-readr.o)
 .comment       0x0000000000000000       0x24 c:/altera/15.0/nios2eds/bin/gnu/h-x86_64-mingw32/bin/../lib/gcc/nios2-elf/4.9.1/mno-hw-mul\libgcc.a(lib2-mul.o)
 .comment       0x0000000000000000       0x24 ../UCOS_practica_bsp/\libucosii_bsp.a(alt_close.o)
 .comment       0x0000000000000000       0x24 ../UCOS_practica_bsp/\libucosii_bsp.a(alt_dev.o)
 .comment       0x0000000000000000       0x24 ../UCOS_practica_bsp/\libucosii_bsp.a(alt_errno.o)
 .comment       0x0000000000000000       0x24 ../UCOS_practica_bsp/\libucosii_bsp.a(alt_fstat.o)
 .comment       0x0000000000000000       0x24 ../UCOS_practica_bsp/\libucosii_bsp.a(alt_isatty.o)
 .comment       0x0000000000000000       0x24 ../UCOS_practica_bsp/\libucosii_bsp.a(alt_load.o)
 .comment       0x0000000000000000       0x24 ../UCOS_practica_bsp/\libucosii_bsp.a(alt_lseek.o)
 .comment       0x0000000000000000       0x24 ../UCOS_practica_bsp/\libucosii_bsp.a(alt_main.o)
 .comment       0x0000000000000000       0x24 ../UCOS_practica_bsp/\libucosii_bsp.a(alt_read.o)
 .comment       0x0000000000000000       0x24 ../UCOS_practica_bsp/\libucosii_bsp.a(alt_release_fd.o)
 .comment       0x0000000000000000       0x24 ../UCOS_practica_bsp/\libucosii_bsp.a(alt_sbrk.o)
 .comment       0x0000000000000000       0x24 ../UCOS_practica_bsp/\libucosii_bsp.a(alt_write.o)
 .comment       0x0000000000000000       0x24 ../UCOS_practica_bsp/\libucosii_bsp.a(alt_env_lock.o)
 .comment       0x0000000000000000       0x24 ../UCOS_practica_bsp/\libucosii_bsp.a(alt_malloc_lock.o)
 .comment       0x0000000000000000       0x24 ../UCOS_practica_bsp/\libucosii_bsp.a(os_core.o)
 .comment       0x0000000000000000       0x24 ../UCOS_practica_bsp/\libucosii_bsp.a(os_dbg.o)
 .comment       0x0000000000000000       0x24 ../UCOS_practica_bsp/\libucosii_bsp.a(os_flag.o)
 .comment       0x0000000000000000       0x24 ../UCOS_practica_bsp/\libucosii_bsp.a(os_mem.o)
 .comment       0x0000000000000000       0x24 ../UCOS_practica_bsp/\libucosii_bsp.a(os_q.o)
 .comment       0x0000000000000000       0x24 ../UCOS_practica_bsp/\libucosii_bsp.a(os_sem.o)
 .comment       0x0000000000000000       0x24 ../UCOS_practica_bsp/\libucosii_bsp.a(os_task.o)
 .comment       0x0000000000000000       0x24 ../UCOS_practica_bsp/\libucosii_bsp.a(os_time.o)
 .comment       0x0000000000000000       0x24 ../UCOS_practica_bsp/\libucosii_bsp.a(alt_sys_init.o)
 .comment       0x0000000000000000       0x24 ../UCOS_practica_bsp/\libucosii_bsp.a(altera_avalon_jtag_uart_fd.o)
 .comment       0x0000000000000000       0x24 ../UCOS_practica_bsp/\libucosii_bsp.a(altera_avalon_jtag_uart_init.o)
 .comment       0x0000000000000000       0x24 ../UCOS_practica_bsp/\libucosii_bsp.a(altera_avalon_jtag_uart_ioctl.o)
 .comment       0x0000000000000000       0x24 ../UCOS_practica_bsp/\libucosii_bsp.a(altera_avalon_jtag_uart_read.o)
 .comment       0x0000000000000000       0x24 ../UCOS_practica_bsp/\libucosii_bsp.a(altera_avalon_jtag_uart_write.o)
 .comment       0x0000000000000000       0x24 ../UCOS_practica_bsp/\libucosii_bsp.a(altera_avalon_timer_sc.o)
 .comment       0x0000000000000000       0x24 ../UCOS_practica_bsp/\libucosii_bsp.a(altera_avalon_uart_fd.o)
 .comment       0x0000000000000000       0x24 ../UCOS_practica_bsp/\libucosii_bsp.a(altera_avalon_uart_init.o)
 .comment       0x0000000000000000       0x24 ../UCOS_practica_bsp/\libucosii_bsp.a(altera_avalon_uart_read.o)
 .comment       0x0000000000000000       0x24 ../UCOS_practica_bsp/\libucosii_bsp.a(altera_avalon_uart_write.o)
 .comment       0x0000000000000000       0x24 ../UCOS_practica_bsp/\libucosii_bsp.a(alt_alarm_start.o)
 .comment       0x0000000000000000       0x24 ../UCOS_practica_bsp/\libucosii_bsp.a(alt_dcache_flush_all.o)
 .comment       0x0000000000000000       0x24 ../UCOS_practica_bsp/\libucosii_bsp.a(alt_dev_llist_insert.o)
 .comment       0x0000000000000000       0x24 ../UCOS_practica_bsp/\libucosii_bsp.a(alt_do_ctors.o)
 .comment       0x0000000000000000       0x24 ../UCOS_practica_bsp/\libucosii_bsp.a(alt_do_dtors.o)
 .comment       0x0000000000000000       0x24 ../UCOS_practica_bsp/\libucosii_bsp.a(alt_icache_flush_all.o)
 .comment       0x0000000000000000       0x24 ../UCOS_practica_bsp/\libucosii_bsp.a(alt_iic.o)
 .comment       0x0000000000000000       0x24 ../UCOS_practica_bsp/\libucosii_bsp.a(alt_iic_isr_register.o)
 .comment       0x0000000000000000       0x24 ../UCOS_practica_bsp/\libucosii_bsp.a(alt_io_redirect.o)
 .comment       0x0000000000000000       0x24 ../UCOS_practica_bsp/\libucosii_bsp.a(alt_irq_handler.o)
 .comment       0x0000000000000000       0x24 ../UCOS_practica_bsp/\libucosii_bsp.a(alt_irq_vars.o)
 .comment       0x0000000000000000       0x24 ../UCOS_practica_bsp/\libucosii_bsp.a(alt_open.o)
 .comment       0x0000000000000000       0x24 ../UCOS_practica_bsp/\libucosii_bsp.a(alt_tick.o)
 .comment       0x0000000000000000       0x24 ../UCOS_practica_bsp/\libucosii_bsp.a(altera_nios2_gen2_irq.o)
 .comment       0x0000000000000000       0x24 ../UCOS_practica_bsp/\libucosii_bsp.a(os_cpu_c.o)
 .comment       0x0000000000000000       0x24 ../UCOS_practica_bsp/\libucosii_bsp.a(alt_find_dev.o)
 .comment       0x0000000000000000       0x24 ../UCOS_practica_bsp/\libucosii_bsp.a(alt_find_file.o)
 .comment       0x0000000000000000       0x24 ../UCOS_practica_bsp/\libucosii_bsp.a(alt_get_fd.o)
 .comment       0x0000000000000000       0x24 ../UCOS_practica_bsp/\libucosii_bsp.a(alt_instruction_exception_entry.o)
 .comment       0x0000000000000000       0x24 c:/altera/15.0/nios2eds/bin/gnu/h-x86_64-mingw32/bin/../lib/gcc/nios2-elf/4.9.1/../../../../../H-x86_64-mingw32/nios2-elf/lib/mno-hw-mul\libc.a(lib_a-atexit.o)
 .comment       0x0000000000000000       0x24 c:/altera/15.0/nios2eds/bin/gnu/h-x86_64-mingw32/bin/../lib/gcc/nios2-elf/4.9.1/../../../../../H-x86_64-mingw32/nios2-elf/lib/mno-hw-mul\libc.a(lib_a-exit.o)
 .comment       0x0000000000000000       0x24 c:/altera/15.0/nios2eds/bin/gnu/h-x86_64-mingw32/bin/../lib/gcc/nios2-elf/4.9.1/../../../../../H-x86_64-mingw32/nios2-elf/lib/mno-hw-mul\libc.a(lib_a-memcmp.o)
 .comment       0x0000000000000000       0x24 c:/altera/15.0/nios2eds/bin/gnu/h-x86_64-mingw32/bin/../lib/gcc/nios2-elf/4.9.1/../../../../../H-x86_64-mingw32/nios2-elf/lib/mno-hw-mul\libc.a(lib_a-__atexit.o)
 .comment       0x0000000000000000       0x24 c:/altera/15.0/nios2eds/bin/gnu/h-x86_64-mingw32/bin/../lib/gcc/nios2-elf/4.9.1/../../../../../H-x86_64-mingw32/nios2-elf/lib/mno-hw-mul\libc.a(lib_a-__call_atexit.o)
 .comment       0x0000000000000000       0x24 c:/altera/15.0/nios2eds/bin/gnu/h-x86_64-mingw32/bin/../lib/gcc/nios2-elf/4.9.1/mno-hw-mul\libgcc.a(lib2-divmod.o)
 .comment       0x0000000000000000       0x24 ../UCOS_practica_bsp/\libucosii_bsp.a(alt_exit.o)

.debug
 *(.debug)

.line
 *(.line)

.debug_srcinfo
 *(.debug_srcinfo)

.debug_sfnames
 *(.debug_sfnames)

.debug_aranges  0x0000000000000000      0xb80
 *(.debug_aranges)
 .debug_aranges
                0x0000000000000000       0x28 ../UCOS_practica_bsp//obj/HAL/src/crt0.o
 .debug_aranges
                0x0000000000000028       0x28 obj/default/hello_ucosii.o
 .debug_aranges
                0x0000000000000050       0x20 c:/altera/15.0/nios2eds/bin/gnu/h-x86_64-mingw32/bin/../lib/gcc/nios2-elf/4.9.1/../../../../../H-x86_64-mingw32/nios2-elf/lib/mno-hw-mul\libc.a(lib_a-puts.o)
 .debug_aranges
                0x0000000000000070       0x20 c:/altera/15.0/nios2eds/bin/gnu/h-x86_64-mingw32/bin/../lib/gcc/nios2-elf/4.9.1/../../../../../H-x86_64-mingw32/nios2-elf/lib/mno-hw-mul\libc.a(lib_a-strlen.o)
 .debug_aranges
                0x0000000000000090       0x20 c:/altera/15.0/nios2eds/bin/gnu/h-x86_64-mingw32/bin/../lib/gcc/nios2-elf/4.9.1/../../../../../H-x86_64-mingw32/nios2-elf/lib/mno-hw-mul\libc.a(lib_a-fvwrite.o)
 .debug_aranges
                0x00000000000000b0       0x18 c:/altera/15.0/nios2eds/bin/gnu/h-x86_64-mingw32/bin/../lib/gcc/nios2-elf/4.9.1/../../../../../H-x86_64-mingw32/nios2-elf/lib/mno-hw-mul\libc.a(lib_a-impure.o)
 .debug_aranges
                0x00000000000000c8       0x20 c:/altera/15.0/nios2eds/bin/gnu/h-x86_64-mingw32/bin/../lib/gcc/nios2-elf/4.9.1/../../../../../H-x86_64-mingw32/nios2-elf/lib/mno-hw-mul\libc.a(lib_a-mallocr.o)
 .debug_aranges
                0x00000000000000e8       0x20 c:/altera/15.0/nios2eds/bin/gnu/h-x86_64-mingw32/bin/../lib/gcc/nios2-elf/4.9.1/../../../../../H-x86_64-mingw32/nios2-elf/lib/mno-hw-mul\libc.a(lib_a-memchr.o)
 .debug_aranges
                0x0000000000000108       0x20 c:/altera/15.0/nios2eds/bin/gnu/h-x86_64-mingw32/bin/../lib/gcc/nios2-elf/4.9.1/../../../../../H-x86_64-mingw32/nios2-elf/lib/mno-hw-mul\libc.a(lib_a-memcpy.o)
 .debug_aranges
                0x0000000000000128       0x20 c:/altera/15.0/nios2eds/bin/gnu/h-x86_64-mingw32/bin/../lib/gcc/nios2-elf/4.9.1/../../../../../H-x86_64-mingw32/nios2-elf/lib/mno-hw-mul\libc.a(lib_a-memmove.o)
 .debug_aranges
                0x0000000000000148       0x20 c:/altera/15.0/nios2eds/bin/gnu/h-x86_64-mingw32/bin/../lib/gcc/nios2-elf/4.9.1/../../../../../H-x86_64-mingw32/nios2-elf/lib/mno-hw-mul\libc.a(lib_a-reallocr.o)
 .debug_aranges
                0x0000000000000168       0x20 c:/altera/15.0/nios2eds/bin/gnu/h-x86_64-mingw32/bin/../lib/gcc/nios2-elf/4.9.1/../../../../../H-x86_64-mingw32/nios2-elf/lib/mno-hw-mul\libc.a(lib_a-sbrkr.o)
 .debug_aranges
                0x0000000000000188       0x20 c:/altera/15.0/nios2eds/bin/gnu/h-x86_64-mingw32/bin/../lib/gcc/nios2-elf/4.9.1/../../../../../H-x86_64-mingw32/nios2-elf/lib/mno-hw-mul\libc.a(lib_a-wsetup.o)
 .debug_aranges
                0x00000000000001a8       0x20 c:/altera/15.0/nios2eds/bin/gnu/h-x86_64-mingw32/bin/../lib/gcc/nios2-elf/4.9.1/../../../../../H-x86_64-mingw32/nios2-elf/lib/mno-hw-mul\libc.a(lib_a-fflush.o)
 .debug_aranges
                0x00000000000001c8       0x20 c:/altera/15.0/nios2eds/bin/gnu/h-x86_64-mingw32/bin/../lib/gcc/nios2-elf/4.9.1/../../../../../H-x86_64-mingw32/nios2-elf/lib/mno-hw-mul\libc.a(lib_a-findfp.o)
 .debug_aranges
                0x00000000000001e8       0x20 c:/altera/15.0/nios2eds/bin/gnu/h-x86_64-mingw32/bin/../lib/gcc/nios2-elf/4.9.1/../../../../../H-x86_64-mingw32/nios2-elf/lib/mno-hw-mul\libc.a(lib_a-freer.o)
 .debug_aranges
                0x0000000000000208       0x20 c:/altera/15.0/nios2eds/bin/gnu/h-x86_64-mingw32/bin/../lib/gcc/nios2-elf/4.9.1/../../../../../H-x86_64-mingw32/nios2-elf/lib/mno-hw-mul\libc.a(lib_a-fwalk.o)
 .debug_aranges
                0x0000000000000228       0x18 c:/altera/15.0/nios2eds/bin/gnu/h-x86_64-mingw32/bin/../lib/gcc/nios2-elf/4.9.1/../../../../../H-x86_64-mingw32/nios2-elf/lib/mno-hw-mul\libc.a(lib_a-int_errno.o)
 .debug_aranges
                0x0000000000000240       0x20 c:/altera/15.0/nios2eds/bin/gnu/h-x86_64-mingw32/bin/../lib/gcc/nios2-elf/4.9.1/../../../../../H-x86_64-mingw32/nios2-elf/lib/mno-hw-mul\libc.a(lib_a-makebuf.o)
 .debug_aranges
                0x0000000000000260       0x20 c:/altera/15.0/nios2eds/bin/gnu/h-x86_64-mingw32/bin/../lib/gcc/nios2-elf/4.9.1/../../../../../H-x86_64-mingw32/nios2-elf/lib/mno-hw-mul\libc.a(lib_a-memset.o)
 .debug_aranges
                0x0000000000000280       0x20 c:/altera/15.0/nios2eds/bin/gnu/h-x86_64-mingw32/bin/../lib/gcc/nios2-elf/4.9.1/../../../../../H-x86_64-mingw32/nios2-elf/lib/mno-hw-mul\libc.a(lib_a-stdio.o)
 .debug_aranges
                0x00000000000002a0       0x20 c:/altera/15.0/nios2eds/bin/gnu/h-x86_64-mingw32/bin/../lib/gcc/nios2-elf/4.9.1/../../../../../H-x86_64-mingw32/nios2-elf/lib/mno-hw-mul\libc.a(lib_a-writer.o)
 .debug_aranges
                0x00000000000002c0       0x20 c:/altera/15.0/nios2eds/bin/gnu/h-x86_64-mingw32/bin/../lib/gcc/nios2-elf/4.9.1/../../../../../H-x86_64-mingw32/nios2-elf/lib/mno-hw-mul\libc.a(closer.o)
 .debug_aranges
                0x00000000000002e0       0x20 c:/altera/15.0/nios2eds/bin/gnu/h-x86_64-mingw32/bin/../lib/gcc/nios2-elf/4.9.1/../../../../../H-x86_64-mingw32/nios2-elf/lib/mno-hw-mul\libc.a(lib_a-fclose.o)
 .debug_aranges
                0x0000000000000300       0x20 c:/altera/15.0/nios2eds/bin/gnu/h-x86_64-mingw32/bin/../lib/gcc/nios2-elf/4.9.1/../../../../../H-x86_64-mingw32/nios2-elf/lib/mno-hw-mul\libc.a(lib_a-fstatr.o)
 .debug_aranges
                0x0000000000000320       0x20 c:/altera/15.0/nios2eds/bin/gnu/h-x86_64-mingw32/bin/../lib/gcc/nios2-elf/4.9.1/../../../../../H-x86_64-mingw32/nios2-elf/lib/mno-hw-mul\libc.a(lib_a-isattyr.o)
 .debug_aranges
                0x0000000000000340       0x20 c:/altera/15.0/nios2eds/bin/gnu/h-x86_64-mingw32/bin/../lib/gcc/nios2-elf/4.9.1/../../../../../H-x86_64-mingw32/nios2-elf/lib/mno-hw-mul\libc.a(lib_a-lseekr.o)
 .debug_aranges
                0x0000000000000360       0x20 c:/altera/15.0/nios2eds/bin/gnu/h-x86_64-mingw32/bin/../lib/gcc/nios2-elf/4.9.1/../../../../../H-x86_64-mingw32/nios2-elf/lib/mno-hw-mul\libc.a(lib_a-readr.o)
 .debug_aranges
                0x0000000000000380       0x20 c:/altera/15.0/nios2eds/bin/gnu/h-x86_64-mingw32/bin/../lib/gcc/nios2-elf/4.9.1/mno-hw-mul\libgcc.a(lib2-mul.o)
 .debug_aranges
                0x00000000000003a0       0x20 ../UCOS_practica_bsp/\libucosii_bsp.a(alt_close.o)
 .debug_aranges
                0x00000000000003c0       0x20 ../UCOS_practica_bsp/\libucosii_bsp.a(alt_dev.o)
 .debug_aranges
                0x00000000000003e0       0x18 ../UCOS_practica_bsp/\libucosii_bsp.a(alt_errno.o)
 .debug_aranges
                0x00000000000003f8       0x20 ../UCOS_practica_bsp/\libucosii_bsp.a(alt_fstat.o)
 .debug_aranges
                0x0000000000000418       0x20 ../UCOS_practica_bsp/\libucosii_bsp.a(alt_isatty.o)
 .debug_aranges
                0x0000000000000438       0x20 ../UCOS_practica_bsp/\libucosii_bsp.a(alt_load.o)
 .debug_aranges
                0x0000000000000458       0x20 ../UCOS_practica_bsp/\libucosii_bsp.a(alt_lseek.o)
 .debug_aranges
                0x0000000000000478       0x20 ../UCOS_practica_bsp/\libucosii_bsp.a(alt_main.o)
 .debug_aranges
                0x0000000000000498       0x20 ../UCOS_practica_bsp/\libucosii_bsp.a(alt_read.o)
 .debug_aranges
                0x00000000000004b8       0x20 ../UCOS_practica_bsp/\libucosii_bsp.a(alt_release_fd.o)
 .debug_aranges
                0x00000000000004d8       0x20 ../UCOS_practica_bsp/\libucosii_bsp.a(alt_sbrk.o)
 .debug_aranges
                0x00000000000004f8       0x20 ../UCOS_practica_bsp/\libucosii_bsp.a(alt_write.o)
 .debug_aranges
                0x0000000000000518       0x20 ../UCOS_practica_bsp/\libucosii_bsp.a(alt_env_lock.o)
 .debug_aranges
                0x0000000000000538       0x20 ../UCOS_practica_bsp/\libucosii_bsp.a(alt_malloc_lock.o)
 .debug_aranges
                0x0000000000000558       0x20 ../UCOS_practica_bsp/\libucosii_bsp.a(os_core.o)
 .debug_aranges
                0x0000000000000578       0x20 ../UCOS_practica_bsp/\libucosii_bsp.a(os_dbg.o)
 .debug_aranges
                0x0000000000000598       0x20 ../UCOS_practica_bsp/\libucosii_bsp.a(os_flag.o)
 .debug_aranges
                0x00000000000005b8       0x20 ../UCOS_practica_bsp/\libucosii_bsp.a(os_mem.o)
 .debug_aranges
                0x00000000000005d8       0x20 ../UCOS_practica_bsp/\libucosii_bsp.a(os_q.o)
 .debug_aranges
                0x00000000000005f8       0x20 ../UCOS_practica_bsp/\libucosii_bsp.a(os_sem.o)
 .debug_aranges
                0x0000000000000618       0x20 ../UCOS_practica_bsp/\libucosii_bsp.a(os_task.o)
 .debug_aranges
                0x0000000000000638       0x20 ../UCOS_practica_bsp/\libucosii_bsp.a(os_time.o)
 .debug_aranges
                0x0000000000000658       0x20 ../UCOS_practica_bsp/\libucosii_bsp.a(alt_sys_init.o)
 .debug_aranges
                0x0000000000000678       0x20 ../UCOS_practica_bsp/\libucosii_bsp.a(altera_avalon_jtag_uart_fd.o)
 .debug_aranges
                0x0000000000000698       0x20 ../UCOS_practica_bsp/\libucosii_bsp.a(altera_avalon_jtag_uart_init.o)
 .debug_aranges
                0x00000000000006b8       0x20 ../UCOS_practica_bsp/\libucosii_bsp.a(altera_avalon_jtag_uart_ioctl.o)
 .debug_aranges
                0x00000000000006d8       0x20 ../UCOS_practica_bsp/\libucosii_bsp.a(altera_avalon_jtag_uart_read.o)
 .debug_aranges
                0x00000000000006f8       0x20 ../UCOS_practica_bsp/\libucosii_bsp.a(altera_avalon_jtag_uart_write.o)
 .debug_aranges
                0x0000000000000718       0x20 ../UCOS_practica_bsp/\libucosii_bsp.a(altera_avalon_timer_sc.o)
 .debug_aranges
                0x0000000000000738       0x20 ../UCOS_practica_bsp/\libucosii_bsp.a(altera_avalon_uart_fd.o)
 .debug_aranges
                0x0000000000000758       0x20 ../UCOS_practica_bsp/\libucosii_bsp.a(altera_avalon_uart_init.o)
 .debug_aranges
                0x0000000000000778       0x20 ../UCOS_practica_bsp/\libucosii_bsp.a(altera_avalon_uart_read.o)
 .debug_aranges
                0x0000000000000798       0x20 ../UCOS_practica_bsp/\libucosii_bsp.a(altera_avalon_uart_write.o)
 .debug_aranges
                0x00000000000007b8       0x20 ../UCOS_practica_bsp/\libucosii_bsp.a(alt_alarm_start.o)
 .debug_aranges
                0x00000000000007d8       0x20 ../UCOS_practica_bsp/\libucosii_bsp.a(alt_dcache_flush_all.o)
 .debug_aranges
                0x00000000000007f8       0x20 ../UCOS_practica_bsp/\libucosii_bsp.a(alt_dev_llist_insert.o)
 .debug_aranges
                0x0000000000000818       0x20 ../UCOS_practica_bsp/\libucosii_bsp.a(alt_do_ctors.o)
 .debug_aranges
                0x0000000000000838       0x20 ../UCOS_practica_bsp/\libucosii_bsp.a(alt_do_dtors.o)
 .debug_aranges
                0x0000000000000858       0x20 ../UCOS_practica_bsp/\libucosii_bsp.a(alt_icache_flush_all.o)
 .debug_aranges
                0x0000000000000878       0x20 ../UCOS_practica_bsp/\libucosii_bsp.a(alt_iic.o)
 .debug_aranges
                0x0000000000000898       0x20 ../UCOS_practica_bsp/\libucosii_bsp.a(alt_iic_isr_register.o)
 .debug_aranges
                0x00000000000008b8       0x20 ../UCOS_practica_bsp/\libucosii_bsp.a(alt_io_redirect.o)
 .debug_aranges
                0x00000000000008d8       0x30 ../UCOS_practica_bsp/\libucosii_bsp.a(alt_irq_entry.o)
 .debug_aranges
                0x0000000000000908       0x20 ../UCOS_practica_bsp/\libucosii_bsp.a(alt_irq_handler.o)
 .debug_aranges
                0x0000000000000928       0x18 ../UCOS_practica_bsp/\libucosii_bsp.a(alt_irq_vars.o)
 .debug_aranges
                0x0000000000000940       0x20 ../UCOS_practica_bsp/\libucosii_bsp.a(alt_open.o)
 .debug_aranges
                0x0000000000000960       0x20 ../UCOS_practica_bsp/\libucosii_bsp.a(alt_tick.o)
 .debug_aranges
                0x0000000000000980       0x20 ../UCOS_practica_bsp/\libucosii_bsp.a(altera_nios2_gen2_irq.o)
 .debug_aranges
                0x00000000000009a0       0x20 ../UCOS_practica_bsp/\libucosii_bsp.a(os_cpu_a.o)
 .debug_aranges
                0x00000000000009c0       0x20 ../UCOS_practica_bsp/\libucosii_bsp.a(os_cpu_c.o)
 .debug_aranges
                0x00000000000009e0       0x38 ../UCOS_practica_bsp/\libucosii_bsp.a(alt_exception_entry.o)
 .debug_aranges
                0x0000000000000a18       0x20 ../UCOS_practica_bsp/\libucosii_bsp.a(alt_find_dev.o)
 .debug_aranges
                0x0000000000000a38       0x20 ../UCOS_practica_bsp/\libucosii_bsp.a(alt_find_file.o)
 .debug_aranges
                0x0000000000000a58       0x20 ../UCOS_practica_bsp/\libucosii_bsp.a(alt_get_fd.o)
 .debug_aranges
                0x0000000000000a78       0x28 ../UCOS_practica_bsp/\libucosii_bsp.a(alt_instruction_exception_entry.o)
 .debug_aranges
                0x0000000000000aa0       0x20 c:/altera/15.0/nios2eds/bin/gnu/h-x86_64-mingw32/bin/../lib/gcc/nios2-elf/4.9.1/../../../../../H-x86_64-mingw32/nios2-elf/lib/mno-hw-mul\libc.a(lib_a-atexit.o)
 .debug_aranges
                0x0000000000000ac0       0x20 c:/altera/15.0/nios2eds/bin/gnu/h-x86_64-mingw32/bin/../lib/gcc/nios2-elf/4.9.1/../../../../../H-x86_64-mingw32/nios2-elf/lib/mno-hw-mul\libc.a(lib_a-exit.o)
 .debug_aranges
                0x0000000000000ae0       0x20 c:/altera/15.0/nios2eds/bin/gnu/h-x86_64-mingw32/bin/../lib/gcc/nios2-elf/4.9.1/../../../../../H-x86_64-mingw32/nios2-elf/lib/mno-hw-mul\libc.a(lib_a-memcmp.o)
 .debug_aranges
                0x0000000000000b00       0x20 c:/altera/15.0/nios2eds/bin/gnu/h-x86_64-mingw32/bin/../lib/gcc/nios2-elf/4.9.1/../../../../../H-x86_64-mingw32/nios2-elf/lib/mno-hw-mul\libc.a(lib_a-__atexit.o)
 .debug_aranges
                0x0000000000000b20       0x20 c:/altera/15.0/nios2eds/bin/gnu/h-x86_64-mingw32/bin/../lib/gcc/nios2-elf/4.9.1/../../../../../H-x86_64-mingw32/nios2-elf/lib/mno-hw-mul\libc.a(lib_a-__call_atexit.o)
 .debug_aranges
                0x0000000000000b40       0x20 c:/altera/15.0/nios2eds/bin/gnu/h-x86_64-mingw32/bin/../lib/gcc/nios2-elf/4.9.1/mno-hw-mul\libgcc.a(lib2-divmod.o)
 .debug_aranges
                0x0000000000000b60       0x20 ../UCOS_practica_bsp/\libucosii_bsp.a(alt_exit.o)

.debug_pubnames
 *(.debug_pubnames)

.debug_info     0x0000000000000000    0x22295
 *(.debug_info .gnu.linkonce.wi.*)
 .debug_info    0x0000000000000000       0xbb ../UCOS_practica_bsp//obj/HAL/src/crt0.o
 .debug_info    0x00000000000000bb     0x102c obj/default/hello_ucosii.o
 .debug_info    0x00000000000010e7      0x9f4 c:/altera/15.0/nios2eds/bin/gnu/h-x86_64-mingw32/bin/../lib/gcc/nios2-elf/4.9.1/../../../../../H-x86_64-mingw32/nios2-elf/lib/mno-hw-mul\libc.a(lib_a-puts.o)
 .debug_info    0x0000000000001adb       0xdb c:/altera/15.0/nios2eds/bin/gnu/h-x86_64-mingw32/bin/../lib/gcc/nios2-elf/4.9.1/../../../../../H-x86_64-mingw32/nios2-elf/lib/mno-hw-mul\libc.a(lib_a-strlen.o)
 .debug_info    0x0000000000001bb6      0xc31 c:/altera/15.0/nios2eds/bin/gnu/h-x86_64-mingw32/bin/../lib/gcc/nios2-elf/4.9.1/../../../../../H-x86_64-mingw32/nios2-elf/lib/mno-hw-mul\libc.a(lib_a-fvwrite.o)
 .debug_info    0x00000000000027e7      0x88f c:/altera/15.0/nios2eds/bin/gnu/h-x86_64-mingw32/bin/../lib/gcc/nios2-elf/4.9.1/../../../../../H-x86_64-mingw32/nios2-elf/lib/mno-hw-mul\libc.a(lib_a-impure.o)
 .debug_info    0x0000000000003076      0xd71 c:/altera/15.0/nios2eds/bin/gnu/h-x86_64-mingw32/bin/../lib/gcc/nios2-elf/4.9.1/../../../../../H-x86_64-mingw32/nios2-elf/lib/mno-hw-mul\libc.a(lib_a-mallocr.o)
 .debug_info    0x0000000000003de7      0x12b c:/altera/15.0/nios2eds/bin/gnu/h-x86_64-mingw32/bin/../lib/gcc/nios2-elf/4.9.1/../../../../../H-x86_64-mingw32/nios2-elf/lib/mno-hw-mul\libc.a(lib_a-memchr.o)
 .debug_info    0x0000000000003f12      0x133 c:/altera/15.0/nios2eds/bin/gnu/h-x86_64-mingw32/bin/../lib/gcc/nios2-elf/4.9.1/../../../../../H-x86_64-mingw32/nios2-elf/lib/mno-hw-mul\libc.a(lib_a-memcpy.o)
 .debug_info    0x0000000000004045      0x133 c:/altera/15.0/nios2eds/bin/gnu/h-x86_64-mingw32/bin/../lib/gcc/nios2-elf/4.9.1/../../../../../H-x86_64-mingw32/nios2-elf/lib/mno-hw-mul\libc.a(lib_a-memmove.o)
 .debug_info    0x0000000000004178      0xcc6 c:/altera/15.0/nios2eds/bin/gnu/h-x86_64-mingw32/bin/../lib/gcc/nios2-elf/4.9.1/../../../../../H-x86_64-mingw32/nios2-elf/lib/mno-hw-mul\libc.a(lib_a-reallocr.o)
 .debug_info    0x0000000000004e3e      0x8ef c:/altera/15.0/nios2eds/bin/gnu/h-x86_64-mingw32/bin/../lib/gcc/nios2-elf/4.9.1/../../../../../H-x86_64-mingw32/nios2-elf/lib/mno-hw-mul\libc.a(lib_a-sbrkr.o)
 .debug_info    0x000000000000572d      0x91d c:/altera/15.0/nios2eds/bin/gnu/h-x86_64-mingw32/bin/../lib/gcc/nios2-elf/4.9.1/../../../../../H-x86_64-mingw32/nios2-elf/lib/mno-hw-mul\libc.a(lib_a-wsetup.o)
 .debug_info    0x000000000000604a      0xa3a c:/altera/15.0/nios2eds/bin/gnu/h-x86_64-mingw32/bin/../lib/gcc/nios2-elf/4.9.1/../../../../../H-x86_64-mingw32/nios2-elf/lib/mno-hw-mul\libc.a(lib_a-fflush.o)
 .debug_info    0x0000000000006a84      0xd37 c:/altera/15.0/nios2eds/bin/gnu/h-x86_64-mingw32/bin/../lib/gcc/nios2-elf/4.9.1/../../../../../H-x86_64-mingw32/nios2-elf/lib/mno-hw-mul\libc.a(lib_a-findfp.o)
 .debug_info    0x00000000000077bb      0xc02 c:/altera/15.0/nios2eds/bin/gnu/h-x86_64-mingw32/bin/../lib/gcc/nios2-elf/4.9.1/../../../../../H-x86_64-mingw32/nios2-elf/lib/mno-hw-mul\libc.a(lib_a-freer.o)
 .debug_info    0x00000000000083bd      0xab7 c:/altera/15.0/nios2eds/bin/gnu/h-x86_64-mingw32/bin/../lib/gcc/nios2-elf/4.9.1/../../../../../H-x86_64-mingw32/nios2-elf/lib/mno-hw-mul\libc.a(lib_a-fwalk.o)
 .debug_info    0x0000000000008e74       0x83 c:/altera/15.0/nios2eds/bin/gnu/h-x86_64-mingw32/bin/../lib/gcc/nios2-elf/4.9.1/../../../../../H-x86_64-mingw32/nios2-elf/lib/mno-hw-mul\libc.a(lib_a-int_errno.o)
 .debug_info    0x0000000000008ef7      0xaff c:/altera/15.0/nios2eds/bin/gnu/h-x86_64-mingw32/bin/../lib/gcc/nios2-elf/4.9.1/../../../../../H-x86_64-mingw32/nios2-elf/lib/mno-hw-mul\libc.a(lib_a-makebuf.o)
 .debug_info    0x00000000000099f6      0x11a c:/altera/15.0/nios2eds/bin/gnu/h-x86_64-mingw32/bin/../lib/gcc/nios2-elf/4.9.1/../../../../../H-x86_64-mingw32/nios2-elf/lib/mno-hw-mul\libc.a(lib_a-memset.o)
 .debug_info    0x0000000000009b10      0xb83 c:/altera/15.0/nios2eds/bin/gnu/h-x86_64-mingw32/bin/../lib/gcc/nios2-elf/4.9.1/../../../../../H-x86_64-mingw32/nios2-elf/lib/mno-hw-mul\libc.a(lib_a-stdio.o)
 .debug_info    0x000000000000a693      0x921 c:/altera/15.0/nios2eds/bin/gnu/h-x86_64-mingw32/bin/../lib/gcc/nios2-elf/4.9.1/../../../../../H-x86_64-mingw32/nios2-elf/lib/mno-hw-mul\libc.a(lib_a-writer.o)
 .debug_info    0x000000000000afb4      0x8ce c:/altera/15.0/nios2eds/bin/gnu/h-x86_64-mingw32/bin/../lib/gcc/nios2-elf/4.9.1/../../../../../H-x86_64-mingw32/nios2-elf/lib/mno-hw-mul\libc.a(closer.o)
 .debug_info    0x000000000000b882      0xa12 c:/altera/15.0/nios2eds/bin/gnu/h-x86_64-mingw32/bin/../lib/gcc/nios2-elf/4.9.1/../../../../../H-x86_64-mingw32/nios2-elf/lib/mno-hw-mul\libc.a(lib_a-fclose.o)
 .debug_info    0x000000000000c294      0xa5c c:/altera/15.0/nios2eds/bin/gnu/h-x86_64-mingw32/bin/../lib/gcc/nios2-elf/4.9.1/../../../../../H-x86_64-mingw32/nios2-elf/lib/mno-hw-mul\libc.a(lib_a-fstatr.o)
 .debug_info    0x000000000000ccf0      0x8ce c:/altera/15.0/nios2eds/bin/gnu/h-x86_64-mingw32/bin/../lib/gcc/nios2-elf/4.9.1/../../../../../H-x86_64-mingw32/nios2-elf/lib/mno-hw-mul\libc.a(lib_a-isattyr.o)
 .debug_info    0x000000000000d5be      0x91a c:/altera/15.0/nios2eds/bin/gnu/h-x86_64-mingw32/bin/../lib/gcc/nios2-elf/4.9.1/../../../../../H-x86_64-mingw32/nios2-elf/lib/mno-hw-mul\libc.a(lib_a-lseekr.o)
 .debug_info    0x000000000000ded8      0x91a c:/altera/15.0/nios2eds/bin/gnu/h-x86_64-mingw32/bin/../lib/gcc/nios2-elf/4.9.1/../../../../../H-x86_64-mingw32/nios2-elf/lib/mno-hw-mul\libc.a(lib_a-readr.o)
 .debug_info    0x000000000000e7f2       0xb4 c:/altera/15.0/nios2eds/bin/gnu/h-x86_64-mingw32/bin/../lib/gcc/nios2-elf/4.9.1/mno-hw-mul\libgcc.a(lib2-mul.o)
 .debug_info    0x000000000000e8a6      0x34e ../UCOS_practica_bsp/\libucosii_bsp.a(alt_close.o)
 .debug_info    0x000000000000ebf4      0x57e ../UCOS_practica_bsp/\libucosii_bsp.a(alt_dev.o)
 .debug_info    0x000000000000f172       0x9f ../UCOS_practica_bsp/\libucosii_bsp.a(alt_errno.o)
 .debug_info    0x000000000000f211      0x4b5 ../UCOS_practica_bsp/\libucosii_bsp.a(alt_fstat.o)
 .debug_info    0x000000000000f6c6      0x4b8 ../UCOS_practica_bsp/\libucosii_bsp.a(alt_isatty.o)
 .debug_info    0x000000000000fb7e      0x13e ../UCOS_practica_bsp/\libucosii_bsp.a(alt_load.o)
 .debug_info    0x000000000000fcbc      0x37f ../UCOS_practica_bsp/\libucosii_bsp.a(alt_lseek.o)
 .debug_info    0x000000000001003b      0x266 ../UCOS_practica_bsp/\libucosii_bsp.a(alt_main.o)
 .debug_info    0x00000000000102a1      0x4dd ../UCOS_practica_bsp/\libucosii_bsp.a(alt_read.o)
 .debug_info    0x000000000001077e      0x2f2 ../UCOS_practica_bsp/\libucosii_bsp.a(alt_release_fd.o)
 .debug_info    0x0000000000010a70      0x1a5 ../UCOS_practica_bsp/\libucosii_bsp.a(alt_sbrk.o)
 .debug_info    0x0000000000010c15      0x4e4 ../UCOS_practica_bsp/\libucosii_bsp.a(alt_write.o)
 .debug_info    0x00000000000110f9      0xc50 ../UCOS_practica_bsp/\libucosii_bsp.a(alt_env_lock.o)
 .debug_info    0x0000000000011d49      0xd96 ../UCOS_practica_bsp/\libucosii_bsp.a(alt_malloc_lock.o)
 .debug_info    0x0000000000012adf     0x1606 ../UCOS_practica_bsp/\libucosii_bsp.a(os_core.o)
 .debug_info    0x00000000000140e5      0xaa1 ../UCOS_practica_bsp/\libucosii_bsp.a(os_dbg.o)
 .debug_info    0x0000000000014b86      0xf95 ../UCOS_practica_bsp/\libucosii_bsp.a(os_flag.o)
 .debug_info    0x0000000000015b1b      0x673 ../UCOS_practica_bsp/\libucosii_bsp.a(os_mem.o)
 .debug_info    0x000000000001618e      0xd9c ../UCOS_practica_bsp/\libucosii_bsp.a(os_q.o)
 .debug_info    0x0000000000016f2a      0x9fd ../UCOS_practica_bsp/\libucosii_bsp.a(os_sem.o)
 .debug_info    0x0000000000017927     0x1110 ../UCOS_practica_bsp/\libucosii_bsp.a(os_task.o)
 .debug_info    0x0000000000018a37      0x6e2 ../UCOS_practica_bsp/\libucosii_bsp.a(os_time.o)
 .debug_info    0x0000000000019119      0x722 ../UCOS_practica_bsp/\libucosii_bsp.a(alt_sys_init.o)
 .debug_info    0x000000000001983b      0x674 ../UCOS_practica_bsp/\libucosii_bsp.a(altera_avalon_jtag_uart_fd.o)
 .debug_info    0x0000000000019eaf      0x6b4 ../UCOS_practica_bsp/\libucosii_bsp.a(altera_avalon_jtag_uart_init.o)
 .debug_info    0x000000000001a563      0x3c6 ../UCOS_practica_bsp/\libucosii_bsp.a(altera_avalon_jtag_uart_ioctl.o)
 .debug_info    0x000000000001a929      0x578 ../UCOS_practica_bsp/\libucosii_bsp.a(altera_avalon_jtag_uart_read.o)
 .debug_info    0x000000000001aea1      0x572 ../UCOS_practica_bsp/\libucosii_bsp.a(altera_avalon_jtag_uart_write.o)
 .debug_info    0x000000000001b413      0x21f ../UCOS_practica_bsp/\libucosii_bsp.a(altera_avalon_timer_sc.o)
 .debug_info    0x000000000001b632      0x5a3 ../UCOS_practica_bsp/\libucosii_bsp.a(altera_avalon_uart_fd.o)
 .debug_info    0x000000000001bbd5      0x5e6 ../UCOS_practica_bsp/\libucosii_bsp.a(altera_avalon_uart_init.o)
 .debug_info    0x000000000001c1bb      0x563 ../UCOS_practica_bsp/\libucosii_bsp.a(altera_avalon_uart_read.o)
 .debug_info    0x000000000001c71e      0x568 ../UCOS_practica_bsp/\libucosii_bsp.a(altera_avalon_uart_write.o)
 .debug_info    0x000000000001cc86      0x2c5 ../UCOS_practica_bsp/\libucosii_bsp.a(alt_alarm_start.o)
 .debug_info    0x000000000001cf4b       0x8b ../UCOS_practica_bsp/\libucosii_bsp.a(alt_dcache_flush_all.o)
 .debug_info    0x000000000001cfd6      0x1a2 ../UCOS_practica_bsp/\libucosii_bsp.a(alt_dev_llist_insert.o)
 .debug_info    0x000000000001d178       0x83 ../UCOS_practica_bsp/\libucosii_bsp.a(alt_do_ctors.o)
 .debug_info    0x000000000001d1fb       0x83 ../UCOS_practica_bsp/\libucosii_bsp.a(alt_do_dtors.o)
 .debug_info    0x000000000001d27e       0x8b ../UCOS_practica_bsp/\libucosii_bsp.a(alt_icache_flush_all.o)
 .debug_info    0x000000000001d309      0x349 ../UCOS_practica_bsp/\libucosii_bsp.a(alt_iic.o)
 .debug_info    0x000000000001d652      0x1e8 ../UCOS_practica_bsp/\libucosii_bsp.a(alt_iic_isr_register.o)
 .debug_info    0x000000000001d83a      0x4d2 ../UCOS_practica_bsp/\libucosii_bsp.a(alt_io_redirect.o)
 .debug_info    0x000000000001dd0c       0xc4 ../UCOS_practica_bsp/\libucosii_bsp.a(alt_irq_entry.o)
 .debug_info    0x000000000001ddd0      0x1a9 ../UCOS_practica_bsp/\libucosii_bsp.a(alt_irq_handler.o)
 .debug_info    0x000000000001df79       0x88 ../UCOS_practica_bsp/\libucosii_bsp.a(alt_irq_vars.o)
 .debug_info    0x000000000001e001      0x3dd ../UCOS_practica_bsp/\libucosii_bsp.a(alt_open.o)
 .debug_info    0x000000000001e3de      0x2a0 ../UCOS_practica_bsp/\libucosii_bsp.a(alt_tick.o)
 .debug_info    0x000000000001e67e       0x8b ../UCOS_practica_bsp/\libucosii_bsp.a(altera_nios2_gen2_irq.o)
 .debug_info    0x000000000001e709       0xc3 ../UCOS_practica_bsp/\libucosii_bsp.a(os_cpu_a.o)
 .debug_info    0x000000000001e7cc      0xcd3 ../UCOS_practica_bsp/\libucosii_bsp.a(os_cpu_c.o)
 .debug_info    0x000000000001f49f       0xca ../UCOS_practica_bsp/\libucosii_bsp.a(alt_exception_entry.o)
 .debug_info    0x000000000001f569      0x316 ../UCOS_practica_bsp/\libucosii_bsp.a(alt_find_dev.o)
 .debug_info    0x000000000001f87f      0x313 ../UCOS_practica_bsp/\libucosii_bsp.a(alt_find_file.o)
 .debug_info    0x000000000001fb92      0x444 ../UCOS_practica_bsp/\libucosii_bsp.a(alt_get_fd.o)
 .debug_info    0x000000000001ffd6      0x1d8 ../UCOS_practica_bsp/\libucosii_bsp.a(alt_instruction_exception_entry.o)
 .debug_info    0x00000000000201ae      0x10a c:/altera/15.0/nios2eds/bin/gnu/h-x86_64-mingw32/bin/../lib/gcc/nios2-elf/4.9.1/../../../../../H-x86_64-mingw32/nios2-elf/lib/mno-hw-mul\libc.a(lib_a-atexit.o)
 .debug_info    0x00000000000202b8      0x8df c:/altera/15.0/nios2eds/bin/gnu/h-x86_64-mingw32/bin/../lib/gcc/nios2-elf/4.9.1/../../../../../H-x86_64-mingw32/nios2-elf/lib/mno-hw-mul\libc.a(lib_a-exit.o)
 .debug_info    0x0000000000020b97      0x113 c:/altera/15.0/nios2eds/bin/gnu/h-x86_64-mingw32/bin/../lib/gcc/nios2-elf/4.9.1/../../../../../H-x86_64-mingw32/nios2-elf/lib/mno-hw-mul\libc.a(lib_a-memcmp.o)
 .debug_info    0x0000000000020caa      0x93b c:/altera/15.0/nios2eds/bin/gnu/h-x86_64-mingw32/bin/../lib/gcc/nios2-elf/4.9.1/../../../../../H-x86_64-mingw32/nios2-elf/lib/mno-hw-mul\libc.a(lib_a-__atexit.o)
 .debug_info    0x00000000000215e5      0x948 c:/altera/15.0/nios2eds/bin/gnu/h-x86_64-mingw32/bin/../lib/gcc/nios2-elf/4.9.1/../../../../../H-x86_64-mingw32/nios2-elf/lib/mno-hw-mul\libc.a(lib_a-__call_atexit.o)
 .debug_info    0x0000000000021f2d      0x234 c:/altera/15.0/nios2eds/bin/gnu/h-x86_64-mingw32/bin/../lib/gcc/nios2-elf/4.9.1/mno-hw-mul\libgcc.a(lib2-divmod.o)
 .debug_info    0x0000000000022161      0x134 ../UCOS_practica_bsp/\libucosii_bsp.a(alt_exit.o)

.debug_abbrev   0x0000000000000000     0x81ed
 *(.debug_abbrev)
 .debug_abbrev  0x0000000000000000       0x12 ../UCOS_practica_bsp//obj/HAL/src/crt0.o
 .debug_abbrev  0x0000000000000012      0x17f obj/default/hello_ucosii.o
 .debug_abbrev  0x0000000000000191      0x226 c:/altera/15.0/nios2eds/bin/gnu/h-x86_64-mingw32/bin/../lib/gcc/nios2-elf/4.9.1/../../../../../H-x86_64-mingw32/nios2-elf/lib/mno-hw-mul\libc.a(lib_a-puts.o)
 .debug_abbrev  0x00000000000003b7       0x90 c:/altera/15.0/nios2eds/bin/gnu/h-x86_64-mingw32/bin/../lib/gcc/nios2-elf/4.9.1/../../../../../H-x86_64-mingw32/nios2-elf/lib/mno-hw-mul\libc.a(lib_a-strlen.o)
 .debug_abbrev  0x0000000000000447      0x252 c:/altera/15.0/nios2eds/bin/gnu/h-x86_64-mingw32/bin/../lib/gcc/nios2-elf/4.9.1/../../../../../H-x86_64-mingw32/nios2-elf/lib/mno-hw-mul\libc.a(lib_a-fvwrite.o)
 .debug_abbrev  0x0000000000000699      0x180 c:/altera/15.0/nios2eds/bin/gnu/h-x86_64-mingw32/bin/../lib/gcc/nios2-elf/4.9.1/../../../../../H-x86_64-mingw32/nios2-elf/lib/mno-hw-mul\libc.a(lib_a-impure.o)
 .debug_abbrev  0x0000000000000819      0x2ad c:/altera/15.0/nios2eds/bin/gnu/h-x86_64-mingw32/bin/../lib/gcc/nios2-elf/4.9.1/../../../../../H-x86_64-mingw32/nios2-elf/lib/mno-hw-mul\libc.a(lib_a-mallocr.o)
 .debug_abbrev  0x0000000000000ac6       0xab c:/altera/15.0/nios2eds/bin/gnu/h-x86_64-mingw32/bin/../lib/gcc/nios2-elf/4.9.1/../../../../../H-x86_64-mingw32/nios2-elf/lib/mno-hw-mul\libc.a(lib_a-memchr.o)
 .debug_abbrev  0x0000000000000b71       0x9c c:/altera/15.0/nios2eds/bin/gnu/h-x86_64-mingw32/bin/../lib/gcc/nios2-elf/4.9.1/../../../../../H-x86_64-mingw32/nios2-elf/lib/mno-hw-mul\libc.a(lib_a-memcpy.o)
 .debug_abbrev  0x0000000000000c0d       0x9c c:/altera/15.0/nios2eds/bin/gnu/h-x86_64-mingw32/bin/../lib/gcc/nios2-elf/4.9.1/../../../../../H-x86_64-mingw32/nios2-elf/lib/mno-hw-mul\libc.a(lib_a-memmove.o)
 .debug_abbrev  0x0000000000000ca9      0x269 c:/altera/15.0/nios2eds/bin/gnu/h-x86_64-mingw32/bin/../lib/gcc/nios2-elf/4.9.1/../../../../../H-x86_64-mingw32/nios2-elf/lib/mno-hw-mul\libc.a(lib_a-reallocr.o)
 .debug_abbrev  0x0000000000000f12      0x1fd c:/altera/15.0/nios2eds/bin/gnu/h-x86_64-mingw32/bin/../lib/gcc/nios2-elf/4.9.1/../../../../../H-x86_64-mingw32/nios2-elf/lib/mno-hw-mul\libc.a(lib_a-sbrkr.o)
 .debug_abbrev  0x000000000000110f      0x1f3 c:/altera/15.0/nios2eds/bin/gnu/h-x86_64-mingw32/bin/../lib/gcc/nios2-elf/4.9.1/../../../../../H-x86_64-mingw32/nios2-elf/lib/mno-hw-mul\libc.a(lib_a-wsetup.o)
 .debug_abbrev  0x0000000000001302      0x275 c:/altera/15.0/nios2eds/bin/gnu/h-x86_64-mingw32/bin/../lib/gcc/nios2-elf/4.9.1/../../../../../H-x86_64-mingw32/nios2-elf/lib/mno-hw-mul\libc.a(lib_a-fflush.o)
 .debug_abbrev  0x0000000000001577      0x387 c:/altera/15.0/nios2eds/bin/gnu/h-x86_64-mingw32/bin/../lib/gcc/nios2-elf/4.9.1/../../../../../H-x86_64-mingw32/nios2-elf/lib/mno-hw-mul\libc.a(lib_a-findfp.o)
 .debug_abbrev  0x00000000000018fe      0x27b c:/altera/15.0/nios2eds/bin/gnu/h-x86_64-mingw32/bin/../lib/gcc/nios2-elf/4.9.1/../../../../../H-x86_64-mingw32/nios2-elf/lib/mno-hw-mul\libc.a(lib_a-freer.o)
 .debug_abbrev  0x0000000000001b79      0x242 c:/altera/15.0/nios2eds/bin/gnu/h-x86_64-mingw32/bin/../lib/gcc/nios2-elf/4.9.1/../../../../../H-x86_64-mingw32/nios2-elf/lib/mno-hw-mul\libc.a(lib_a-fwalk.o)
 .debug_abbrev  0x0000000000001dbb       0x37 c:/altera/15.0/nios2eds/bin/gnu/h-x86_64-mingw32/bin/../lib/gcc/nios2-elf/4.9.1/../../../../../H-x86_64-mingw32/nios2-elf/lib/mno-hw-mul\libc.a(lib_a-int_errno.o)
 .debug_abbrev  0x0000000000001df2      0x206 c:/altera/15.0/nios2eds/bin/gnu/h-x86_64-mingw32/bin/../lib/gcc/nios2-elf/4.9.1/../../../../../H-x86_64-mingw32/nios2-elf/lib/mno-hw-mul\libc.a(lib_a-makebuf.o)
 .debug_abbrev  0x0000000000001ff8       0xae c:/altera/15.0/nios2eds/bin/gnu/h-x86_64-mingw32/bin/../lib/gcc/nios2-elf/4.9.1/../../../../../H-x86_64-mingw32/nios2-elf/lib/mno-hw-mul\libc.a(lib_a-memset.o)
 .debug_abbrev  0x00000000000020a6      0x246 c:/altera/15.0/nios2eds/bin/gnu/h-x86_64-mingw32/bin/../lib/gcc/nios2-elf/4.9.1/../../../../../H-x86_64-mingw32/nios2-elf/lib/mno-hw-mul\libc.a(lib_a-stdio.o)
 .debug_abbrev  0x00000000000022ec      0x1de c:/altera/15.0/nios2eds/bin/gnu/h-x86_64-mingw32/bin/../lib/gcc/nios2-elf/4.9.1/../../../../../H-x86_64-mingw32/nios2-elf/lib/mno-hw-mul\libc.a(lib_a-writer.o)
 .debug_abbrev  0x00000000000024ca      0x1d9 c:/altera/15.0/nios2eds/bin/gnu/h-x86_64-mingw32/bin/../lib/gcc/nios2-elf/4.9.1/../../../../../H-x86_64-mingw32/nios2-elf/lib/mno-hw-mul\libc.a(closer.o)
 .debug_abbrev  0x00000000000026a3      0x2a9 c:/altera/15.0/nios2eds/bin/gnu/h-x86_64-mingw32/bin/../lib/gcc/nios2-elf/4.9.1/../../../../../H-x86_64-mingw32/nios2-elf/lib/mno-hw-mul\libc.a(lib_a-fclose.o)
 .debug_abbrev  0x000000000000294c      0x1e8 c:/altera/15.0/nios2eds/bin/gnu/h-x86_64-mingw32/bin/../lib/gcc/nios2-elf/4.9.1/../../../../../H-x86_64-mingw32/nios2-elf/lib/mno-hw-mul\libc.a(lib_a-fstatr.o)
 .debug_abbrev  0x0000000000002b34      0x1d9 c:/altera/15.0/nios2eds/bin/gnu/h-x86_64-mingw32/bin/../lib/gcc/nios2-elf/4.9.1/../../../../../H-x86_64-mingw32/nios2-elf/lib/mno-hw-mul\libc.a(lib_a-isattyr.o)
 .debug_abbrev  0x0000000000002d0d      0x1e8 c:/altera/15.0/nios2eds/bin/gnu/h-x86_64-mingw32/bin/../lib/gcc/nios2-elf/4.9.1/../../../../../H-x86_64-mingw32/nios2-elf/lib/mno-hw-mul\libc.a(lib_a-lseekr.o)
 .debug_abbrev  0x0000000000002ef5      0x1d9 c:/altera/15.0/nios2eds/bin/gnu/h-x86_64-mingw32/bin/../lib/gcc/nios2-elf/4.9.1/../../../../../H-x86_64-mingw32/nios2-elf/lib/mno-hw-mul\libc.a(lib_a-readr.o)
 .debug_abbrev  0x00000000000030ce       0x6f c:/altera/15.0/nios2eds/bin/gnu/h-x86_64-mingw32/bin/../lib/gcc/nios2-elf/4.9.1/mno-hw-mul\libgcc.a(lib2-mul.o)
 .debug_abbrev  0x000000000000313d      0x126 ../UCOS_practica_bsp/\libucosii_bsp.a(alt_close.o)
 .debug_abbrev  0x0000000000003263      0x11c ../UCOS_practica_bsp/\libucosii_bsp.a(alt_dev.o)
 .debug_abbrev  0x000000000000337f       0x5a ../UCOS_practica_bsp/\libucosii_bsp.a(alt_errno.o)
 .debug_abbrev  0x00000000000033d9      0x126 ../UCOS_practica_bsp/\libucosii_bsp.a(alt_fstat.o)
 .debug_abbrev  0x00000000000034ff      0x126 ../UCOS_practica_bsp/\libucosii_bsp.a(alt_isatty.o)
 .debug_abbrev  0x0000000000003625       0x9f ../UCOS_practica_bsp/\libucosii_bsp.a(alt_load.o)
 .debug_abbrev  0x00000000000036c4      0x126 ../UCOS_practica_bsp/\libucosii_bsp.a(alt_lseek.o)
 .debug_abbrev  0x00000000000037ea      0x139 ../UCOS_practica_bsp/\libucosii_bsp.a(alt_main.o)
 .debug_abbrev  0x0000000000003923      0x135 ../UCOS_practica_bsp/\libucosii_bsp.a(alt_read.o)
 .debug_abbrev  0x0000000000003a58       0xe5 ../UCOS_practica_bsp/\libucosii_bsp.a(alt_release_fd.o)
 .debug_abbrev  0x0000000000003b3d      0x112 ../UCOS_practica_bsp/\libucosii_bsp.a(alt_sbrk.o)
 .debug_abbrev  0x0000000000003c4f      0x13a ../UCOS_practica_bsp/\libucosii_bsp.a(alt_write.o)
 .debug_abbrev  0x0000000000003d89      0x1d4 ../UCOS_practica_bsp/\libucosii_bsp.a(alt_env_lock.o)
 .debug_abbrev  0x0000000000003f5d      0x25e ../UCOS_practica_bsp/\libucosii_bsp.a(alt_malloc_lock.o)
 .debug_abbrev  0x00000000000041bb      0x302 ../UCOS_practica_bsp/\libucosii_bsp.a(os_core.o)
 .debug_abbrev  0x00000000000044bd       0xf7 ../UCOS_practica_bsp/\libucosii_bsp.a(os_dbg.o)
 .debug_abbrev  0x00000000000045b4      0x25a ../UCOS_practica_bsp/\libucosii_bsp.a(os_flag.o)
 .debug_abbrev  0x000000000000480e      0x228 ../UCOS_practica_bsp/\libucosii_bsp.a(os_mem.o)
 .debug_abbrev  0x0000000000004a36      0x248 ../UCOS_practica_bsp/\libucosii_bsp.a(os_q.o)
 .debug_abbrev  0x0000000000004c7e      0x262 ../UCOS_practica_bsp/\libucosii_bsp.a(os_sem.o)
 .debug_abbrev  0x0000000000004ee0      0x247 ../UCOS_practica_bsp/\libucosii_bsp.a(os_task.o)
 .debug_abbrev  0x0000000000005127      0x20c ../UCOS_practica_bsp/\libucosii_bsp.a(os_time.o)
 .debug_abbrev  0x0000000000005333      0x1cc ../UCOS_practica_bsp/\libucosii_bsp.a(alt_sys_init.o)
 .debug_abbrev  0x00000000000054ff      0x16c ../UCOS_practica_bsp/\libucosii_bsp.a(altera_avalon_jtag_uart_fd.o)
 .debug_abbrev  0x000000000000566b      0x248 ../UCOS_practica_bsp/\libucosii_bsp.a(altera_avalon_jtag_uart_init.o)
 .debug_abbrev  0x00000000000058b3      0x156 ../UCOS_practica_bsp/\libucosii_bsp.a(altera_avalon_jtag_uart_ioctl.o)
 .debug_abbrev  0x0000000000005a09      0x1fa ../UCOS_practica_bsp/\libucosii_bsp.a(altera_avalon_jtag_uart_read.o)
 .debug_abbrev  0x0000000000005c03      0x1f6 ../UCOS_practica_bsp/\libucosii_bsp.a(altera_avalon_jtag_uart_write.o)
 .debug_abbrev  0x0000000000005df9      0x155 ../UCOS_practica_bsp/\libucosii_bsp.a(altera_avalon_timer_sc.o)
 .debug_abbrev  0x0000000000005f4e      0x145 ../UCOS_practica_bsp/\libucosii_bsp.a(altera_avalon_uart_fd.o)
 .debug_abbrev  0x0000000000006093      0x1f1 ../UCOS_practica_bsp/\libucosii_bsp.a(altera_avalon_uart_init.o)
 .debug_abbrev  0x0000000000006284      0x1c8 ../UCOS_practica_bsp/\libucosii_bsp.a(altera_avalon_uart_read.o)
 .debug_abbrev  0x000000000000644c      0x1cf ../UCOS_practica_bsp/\libucosii_bsp.a(altera_avalon_uart_write.o)
 .debug_abbrev  0x000000000000661b      0x162 ../UCOS_practica_bsp/\libucosii_bsp.a(alt_alarm_start.o)
 .debug_abbrev  0x000000000000677d       0x42 ../UCOS_practica_bsp/\libucosii_bsp.a(alt_dcache_flush_all.o)
 .debug_abbrev  0x00000000000067bf      0x114 ../UCOS_practica_bsp/\libucosii_bsp.a(alt_dev_llist_insert.o)
 .debug_abbrev  0x00000000000068d3       0x79 ../UCOS_practica_bsp/\libucosii_bsp.a(alt_do_ctors.o)
 .debug_abbrev  0x000000000000694c       0x79 ../UCOS_practica_bsp/\libucosii_bsp.a(alt_do_dtors.o)
 .debug_abbrev  0x00000000000069c5       0x42 ../UCOS_practica_bsp/\libucosii_bsp.a(alt_icache_flush_all.o)
 .debug_abbrev  0x0000000000006a07      0x163 ../UCOS_practica_bsp/\libucosii_bsp.a(alt_iic.o)
 .debug_abbrev  0x0000000000006b6a      0x169 ../UCOS_practica_bsp/\libucosii_bsp.a(alt_iic_isr_register.o)
 .debug_abbrev  0x0000000000006cd3      0x11b ../UCOS_practica_bsp/\libucosii_bsp.a(alt_io_redirect.o)
 .debug_abbrev  0x0000000000006dee       0x12 ../UCOS_practica_bsp/\libucosii_bsp.a(alt_irq_entry.o)
 .debug_abbrev  0x0000000000006e00      0x13a ../UCOS_practica_bsp/\libucosii_bsp.a(alt_irq_handler.o)
 .debug_abbrev  0x0000000000006f3a       0x40 ../UCOS_practica_bsp/\libucosii_bsp.a(alt_irq_vars.o)
 .debug_abbrev  0x0000000000006f7a      0x14f ../UCOS_practica_bsp/\libucosii_bsp.a(alt_open.o)
 .debug_abbrev  0x00000000000070c9      0x15a ../UCOS_practica_bsp/\libucosii_bsp.a(alt_tick.o)
 .debug_abbrev  0x0000000000007223       0x42 ../UCOS_practica_bsp/\libucosii_bsp.a(altera_nios2_gen2_irq.o)
 .debug_abbrev  0x0000000000007265       0x14 ../UCOS_practica_bsp/\libucosii_bsp.a(os_cpu_a.o)
 .debug_abbrev  0x0000000000007279      0x206 ../UCOS_practica_bsp/\libucosii_bsp.a(os_cpu_c.o)
 .debug_abbrev  0x000000000000747f       0x12 ../UCOS_practica_bsp/\libucosii_bsp.a(alt_exception_entry.o)
 .debug_abbrev  0x0000000000007491       0xf7 ../UCOS_practica_bsp/\libucosii_bsp.a(alt_find_dev.o)
 .debug_abbrev  0x0000000000007588       0xf7 ../UCOS_practica_bsp/\libucosii_bsp.a(alt_find_file.o)
 .debug_abbrev  0x000000000000767f      0x19b ../UCOS_practica_bsp/\libucosii_bsp.a(alt_get_fd.o)
 .debug_abbrev  0x000000000000781a       0xd1 ../UCOS_practica_bsp/\libucosii_bsp.a(alt_instruction_exception_entry.o)
 .debug_abbrev  0x00000000000078eb       0xb8 c:/altera/15.0/nios2eds/bin/gnu/h-x86_64-mingw32/bin/../lib/gcc/nios2-elf/4.9.1/../../../../../H-x86_64-mingw32/nios2-elf/lib/mno-hw-mul\libc.a(lib_a-atexit.o)
 .debug_abbrev  0x00000000000079a3      0x1e6 c:/altera/15.0/nios2eds/bin/gnu/h-x86_64-mingw32/bin/../lib/gcc/nios2-elf/4.9.1/../../../../../H-x86_64-mingw32/nios2-elf/lib/mno-hw-mul\libc.a(lib_a-exit.o)
 .debug_abbrev  0x0000000000007b89       0x7f c:/altera/15.0/nios2eds/bin/gnu/h-x86_64-mingw32/bin/../lib/gcc/nios2-elf/4.9.1/../../../../../H-x86_64-mingw32/nios2-elf/lib/mno-hw-mul\libc.a(lib_a-memcmp.o)
 .debug_abbrev  0x0000000000007c08      0x21e c:/altera/15.0/nios2eds/bin/gnu/h-x86_64-mingw32/bin/../lib/gcc/nios2-elf/4.9.1/../../../../../H-x86_64-mingw32/nios2-elf/lib/mno-hw-mul\libc.a(lib_a-__atexit.o)
 .debug_abbrev  0x0000000000007e26      0x210 c:/altera/15.0/nios2eds/bin/gnu/h-x86_64-mingw32/bin/../lib/gcc/nios2-elf/4.9.1/../../../../../H-x86_64-mingw32/nios2-elf/lib/mno-hw-mul\libc.a(lib_a-__call_atexit.o)
 .debug_abbrev  0x0000000000008036       0xd9 c:/altera/15.0/nios2eds/bin/gnu/h-x86_64-mingw32/bin/../lib/gcc/nios2-elf/4.9.1/mno-hw-mul\libgcc.a(lib2-divmod.o)
 .debug_abbrev  0x000000000000810f       0xde ../UCOS_practica_bsp/\libucosii_bsp.a(alt_exit.o)

.debug_line     0x0000000000000000     0x97ab
 *(.debug_line)
 .debug_line    0x0000000000000000       0x66 ../UCOS_practica_bsp//obj/HAL/src/crt0.o
 .debug_line    0x0000000000000066      0x35f obj/default/hello_ucosii.o
 .debug_line    0x00000000000003c5      0x226 c:/altera/15.0/nios2eds/bin/gnu/h-x86_64-mingw32/bin/../lib/gcc/nios2-elf/4.9.1/../../../../../H-x86_64-mingw32/nios2-elf/lib/mno-hw-mul\libc.a(lib_a-puts.o)
 .debug_line    0x00000000000005eb      0x171 c:/altera/15.0/nios2eds/bin/gnu/h-x86_64-mingw32/bin/../lib/gcc/nios2-elf/4.9.1/../../../../../H-x86_64-mingw32/nios2-elf/lib/mno-hw-mul\libc.a(lib_a-strlen.o)
 .debug_line    0x000000000000075c      0x35a c:/altera/15.0/nios2eds/bin/gnu/h-x86_64-mingw32/bin/../lib/gcc/nios2-elf/4.9.1/../../../../../H-x86_64-mingw32/nios2-elf/lib/mno-hw-mul\libc.a(lib_a-fvwrite.o)
 .debug_line    0x0000000000000ab6      0x162 c:/altera/15.0/nios2eds/bin/gnu/h-x86_64-mingw32/bin/../lib/gcc/nios2-elf/4.9.1/../../../../../H-x86_64-mingw32/nios2-elf/lib/mno-hw-mul\libc.a(lib_a-impure.o)
 .debug_line    0x0000000000000c18      0x400 c:/altera/15.0/nios2eds/bin/gnu/h-x86_64-mingw32/bin/../lib/gcc/nios2-elf/4.9.1/../../../../../H-x86_64-mingw32/nios2-elf/lib/mno-hw-mul\libc.a(lib_a-mallocr.o)
 .debug_line    0x0000000000001018      0x190 c:/altera/15.0/nios2eds/bin/gnu/h-x86_64-mingw32/bin/../lib/gcc/nios2-elf/4.9.1/../../../../../H-x86_64-mingw32/nios2-elf/lib/mno-hw-mul\libc.a(lib_a-memchr.o)
 .debug_line    0x00000000000011a8      0x187 c:/altera/15.0/nios2eds/bin/gnu/h-x86_64-mingw32/bin/../lib/gcc/nios2-elf/4.9.1/../../../../../H-x86_64-mingw32/nios2-elf/lib/mno-hw-mul\libc.a(lib_a-memcpy.o)
 .debug_line    0x000000000000132f      0x18e c:/altera/15.0/nios2eds/bin/gnu/h-x86_64-mingw32/bin/../lib/gcc/nios2-elf/4.9.1/../../../../../H-x86_64-mingw32/nios2-elf/lib/mno-hw-mul\libc.a(lib_a-memmove.o)
 .debug_line    0x00000000000014bd      0x2ff c:/altera/15.0/nios2eds/bin/gnu/h-x86_64-mingw32/bin/../lib/gcc/nios2-elf/4.9.1/../../../../../H-x86_64-mingw32/nios2-elf/lib/mno-hw-mul\libc.a(lib_a-reallocr.o)
 .debug_line    0x00000000000017bc      0x1ec c:/altera/15.0/nios2eds/bin/gnu/h-x86_64-mingw32/bin/../lib/gcc/nios2-elf/4.9.1/../../../../../H-x86_64-mingw32/nios2-elf/lib/mno-hw-mul\libc.a(lib_a-sbrkr.o)
 .debug_line    0x00000000000019a8      0x25b c:/altera/15.0/nios2eds/bin/gnu/h-x86_64-mingw32/bin/../lib/gcc/nios2-elf/4.9.1/../../../../../H-x86_64-mingw32/nios2-elf/lib/mno-hw-mul\libc.a(lib_a-wsetup.o)
 .debug_line    0x0000000000001c03      0x2c0 c:/altera/15.0/nios2eds/bin/gnu/h-x86_64-mingw32/bin/../lib/gcc/nios2-elf/4.9.1/../../../../../H-x86_64-mingw32/nios2-elf/lib/mno-hw-mul\libc.a(lib_a-fflush.o)
 .debug_line    0x0000000000001ec3      0x308 c:/altera/15.0/nios2eds/bin/gnu/h-x86_64-mingw32/bin/../lib/gcc/nios2-elf/4.9.1/../../../../../H-x86_64-mingw32/nios2-elf/lib/mno-hw-mul\libc.a(lib_a-findfp.o)
 .debug_line    0x00000000000021cb      0x2e7 c:/altera/15.0/nios2eds/bin/gnu/h-x86_64-mingw32/bin/../lib/gcc/nios2-elf/4.9.1/../../../../../H-x86_64-mingw32/nios2-elf/lib/mno-hw-mul\libc.a(lib_a-freer.o)
 .debug_line    0x00000000000024b2      0x22b c:/altera/15.0/nios2eds/bin/gnu/h-x86_64-mingw32/bin/../lib/gcc/nios2-elf/4.9.1/../../../../../H-x86_64-mingw32/nios2-elf/lib/mno-hw-mul\libc.a(lib_a-fwalk.o)
 .debug_line    0x00000000000026dd       0x60 c:/altera/15.0/nios2eds/bin/gnu/h-x86_64-mingw32/bin/../lib/gcc/nios2-elf/4.9.1/../../../../../H-x86_64-mingw32/nios2-elf/lib/mno-hw-mul\libc.a(lib_a-int_errno.o)
 .debug_line    0x000000000000273d      0x277 c:/altera/15.0/nios2eds/bin/gnu/h-x86_64-mingw32/bin/../lib/gcc/nios2-elf/4.9.1/../../../../../H-x86_64-mingw32/nios2-elf/lib/mno-hw-mul\libc.a(lib_a-makebuf.o)
 .debug_line    0x00000000000029b4      0x191 c:/altera/15.0/nios2eds/bin/gnu/h-x86_64-mingw32/bin/../lib/gcc/nios2-elf/4.9.1/../../../../../H-x86_64-mingw32/nios2-elf/lib/mno-hw-mul\libc.a(lib_a-memset.o)
 .debug_line    0x0000000000002b45      0x22a c:/altera/15.0/nios2eds/bin/gnu/h-x86_64-mingw32/bin/../lib/gcc/nios2-elf/4.9.1/../../../../../H-x86_64-mingw32/nios2-elf/lib/mno-hw-mul\libc.a(lib_a-stdio.o)
 .debug_line    0x0000000000002d6f      0x1f9 c:/altera/15.0/nios2eds/bin/gnu/h-x86_64-mingw32/bin/../lib/gcc/nios2-elf/4.9.1/../../../../../H-x86_64-mingw32/nios2-elf/lib/mno-hw-mul\libc.a(lib_a-writer.o)
 .debug_line    0x0000000000002f68      0x1f9 c:/altera/15.0/nios2eds/bin/gnu/h-x86_64-mingw32/bin/../lib/gcc/nios2-elf/4.9.1/../../../../../H-x86_64-mingw32/nios2-elf/lib/mno-hw-mul\libc.a(closer.o)
 .debug_line    0x0000000000003161      0x22c c:/altera/15.0/nios2eds/bin/gnu/h-x86_64-mingw32/bin/../lib/gcc/nios2-elf/4.9.1/../../../../../H-x86_64-mingw32/nios2-elf/lib/mno-hw-mul\libc.a(lib_a-fclose.o)
 .debug_line    0x000000000000338d      0x202 c:/altera/15.0/nios2eds/bin/gnu/h-x86_64-mingw32/bin/../lib/gcc/nios2-elf/4.9.1/../../../../../H-x86_64-mingw32/nios2-elf/lib/mno-hw-mul\libc.a(lib_a-fstatr.o)
 .debug_line    0x000000000000358f      0x1fa c:/altera/15.0/nios2eds/bin/gnu/h-x86_64-mingw32/bin/../lib/gcc/nios2-elf/4.9.1/../../../../../H-x86_64-mingw32/nios2-elf/lib/mno-hw-mul\libc.a(lib_a-isattyr.o)
 .debug_line    0x0000000000003789      0x204 c:/altera/15.0/nios2eds/bin/gnu/h-x86_64-mingw32/bin/../lib/gcc/nios2-elf/4.9.1/../../../../../H-x86_64-mingw32/nios2-elf/lib/mno-hw-mul\libc.a(lib_a-lseekr.o)
 .debug_line    0x000000000000398d      0x1f8 c:/altera/15.0/nios2eds/bin/gnu/h-x86_64-mingw32/bin/../lib/gcc/nios2-elf/4.9.1/../../../../../H-x86_64-mingw32/nios2-elf/lib/mno-hw-mul\libc.a(lib_a-readr.o)
 .debug_line    0x0000000000003b85       0x80 c:/altera/15.0/nios2eds/bin/gnu/h-x86_64-mingw32/bin/../lib/gcc/nios2-elf/4.9.1/mno-hw-mul\libgcc.a(lib2-mul.o)
 .debug_line    0x0000000000003c05      0x16d ../UCOS_practica_bsp/\libucosii_bsp.a(alt_close.o)
 .debug_line    0x0000000000003d72      0x134 ../UCOS_practica_bsp/\libucosii_bsp.a(alt_dev.o)
 .debug_line    0x0000000000003ea6       0x51 ../UCOS_practica_bsp/\libucosii_bsp.a(alt_errno.o)
 .debug_line    0x0000000000003ef7      0x166 ../UCOS_practica_bsp/\libucosii_bsp.a(alt_fstat.o)
 .debug_line    0x000000000000405d      0x16a ../UCOS_practica_bsp/\libucosii_bsp.a(alt_isatty.o)
 .debug_line    0x00000000000041c7       0x8d ../UCOS_practica_bsp/\libucosii_bsp.a(alt_load.o)
 .debug_line    0x0000000000004254      0x16b ../UCOS_practica_bsp/\libucosii_bsp.a(alt_lseek.o)
 .debug_line    0x00000000000043bf      0x12f ../UCOS_practica_bsp/\libucosii_bsp.a(alt_main.o)
 .debug_line    0x00000000000044ee      0x1dc ../UCOS_practica_bsp/\libucosii_bsp.a(alt_read.o)
 .debug_line    0x00000000000046ca       0xbf ../UCOS_practica_bsp/\libucosii_bsp.a(alt_release_fd.o)
 .debug_line    0x0000000000004789       0xeb ../UCOS_practica_bsp/\libucosii_bsp.a(alt_sbrk.o)
 .debug_line    0x0000000000004874      0x1db ../UCOS_practica_bsp/\libucosii_bsp.a(alt_write.o)
 .debug_line    0x0000000000004a4f      0x192 ../UCOS_practica_bsp/\libucosii_bsp.a(alt_env_lock.o)
 .debug_line    0x0000000000004be1      0x200 ../UCOS_practica_bsp/\libucosii_bsp.a(alt_malloc_lock.o)
 .debug_line    0x0000000000004de1      0x67c ../UCOS_practica_bsp/\libucosii_bsp.a(os_core.o)
 .debug_line    0x000000000000545d       0xd2 ../UCOS_practica_bsp/\libucosii_bsp.a(os_dbg.o)
 .debug_line    0x000000000000552f      0x505 ../UCOS_practica_bsp/\libucosii_bsp.a(os_flag.o)
 .debug_line    0x0000000000005a34      0x23f ../UCOS_practica_bsp/\libucosii_bsp.a(os_mem.o)
 .debug_line    0x0000000000005c73      0x410 ../UCOS_practica_bsp/\libucosii_bsp.a(os_q.o)
 .debug_line    0x0000000000006083      0x2ea ../UCOS_practica_bsp/\libucosii_bsp.a(os_sem.o)
 .debug_line    0x000000000000636d      0x547 ../UCOS_practica_bsp/\libucosii_bsp.a(os_task.o)
 .debug_line    0x00000000000068b4      0x1ab ../UCOS_practica_bsp/\libucosii_bsp.a(os_time.o)
 .debug_line    0x0000000000006a5f      0x1ac ../UCOS_practica_bsp/\libucosii_bsp.a(alt_sys_init.o)
 .debug_line    0x0000000000006c0b      0x155 ../UCOS_practica_bsp/\libucosii_bsp.a(altera_avalon_jtag_uart_fd.o)
 .debug_line    0x0000000000006d60      0x21e ../UCOS_practica_bsp/\libucosii_bsp.a(altera_avalon_jtag_uart_init.o)
 .debug_line    0x0000000000006f7e      0x154 ../UCOS_practica_bsp/\libucosii_bsp.a(altera_avalon_jtag_uart_ioctl.o)
 .debug_line    0x00000000000070d2      0x1d8 ../UCOS_practica_bsp/\libucosii_bsp.a(altera_avalon_jtag_uart_read.o)
 .debug_line    0x00000000000072aa      0x1d8 ../UCOS_practica_bsp/\libucosii_bsp.a(altera_avalon_jtag_uart_write.o)
 .debug_line    0x0000000000007482       0xfd ../UCOS_practica_bsp/\libucosii_bsp.a(altera_avalon_timer_sc.o)
 .debug_line    0x000000000000757f      0x132 ../UCOS_practica_bsp/\libucosii_bsp.a(altera_avalon_uart_fd.o)
 .debug_line    0x00000000000076b1      0x22d ../UCOS_practica_bsp/\libucosii_bsp.a(altera_avalon_uart_init.o)
 .debug_line    0x00000000000078de      0x1f9 ../UCOS_practica_bsp/\libucosii_bsp.a(altera_avalon_uart_read.o)
 .debug_line    0x0000000000007ad7      0x1eb ../UCOS_practica_bsp/\libucosii_bsp.a(altera_avalon_uart_write.o)
 .debug_line    0x0000000000007cc2       0xfa ../UCOS_practica_bsp/\libucosii_bsp.a(alt_alarm_start.o)
 .debug_line    0x0000000000007dbc       0x51 ../UCOS_practica_bsp/\libucosii_bsp.a(alt_dcache_flush_all.o)
 .debug_line    0x0000000000007e0d       0xd0 ../UCOS_practica_bsp/\libucosii_bsp.a(alt_dev_llist_insert.o)
 .debug_line    0x0000000000007edd       0x59 ../UCOS_practica_bsp/\libucosii_bsp.a(alt_do_ctors.o)
 .debug_line    0x0000000000007f36       0x59 ../UCOS_practica_bsp/\libucosii_bsp.a(alt_do_dtors.o)
 .debug_line    0x0000000000007f8f       0x4f ../UCOS_practica_bsp/\libucosii_bsp.a(alt_icache_flush_all.o)
 .debug_line    0x0000000000007fde       0xef ../UCOS_practica_bsp/\libucosii_bsp.a(alt_iic.o)
 .debug_line    0x00000000000080cd       0xdb ../UCOS_practica_bsp/\libucosii_bsp.a(alt_iic_isr_register.o)
 .debug_line    0x00000000000081a8      0x13c ../UCOS_practica_bsp/\libucosii_bsp.a(alt_io_redirect.o)
 .debug_line    0x00000000000082e4       0x6b ../UCOS_practica_bsp/\libucosii_bsp.a(alt_irq_entry.o)
 .debug_line    0x000000000000834f       0xc8 ../UCOS_practica_bsp/\libucosii_bsp.a(alt_irq_handler.o)
 .debug_line    0x0000000000008417       0x50 ../UCOS_practica_bsp/\libucosii_bsp.a(alt_irq_vars.o)
 .debug_line    0x0000000000008467      0x13c ../UCOS_practica_bsp/\libucosii_bsp.a(alt_open.o)
 .debug_line    0x00000000000085a3       0xfe ../UCOS_practica_bsp/\libucosii_bsp.a(alt_tick.o)
 .debug_line    0x00000000000086a1       0x51 ../UCOS_practica_bsp/\libucosii_bsp.a(altera_nios2_gen2_irq.o)
 .debug_line    0x00000000000086f2       0x86 ../UCOS_practica_bsp/\libucosii_bsp.a(os_cpu_a.o)
 .debug_line    0x0000000000008778      0x199 ../UCOS_practica_bsp/\libucosii_bsp.a(os_cpu_c.o)
 .debug_line    0x0000000000008911       0xb3 ../UCOS_practica_bsp/\libucosii_bsp.a(alt_exception_entry.o)
 .debug_line    0x00000000000089c4       0xc4 ../UCOS_practica_bsp/\libucosii_bsp.a(alt_find_dev.o)
 .debug_line    0x0000000000008a88       0xe0 ../UCOS_practica_bsp/\libucosii_bsp.a(alt_find_file.o)
 .debug_line    0x0000000000008b68      0x12b ../UCOS_practica_bsp/\libucosii_bsp.a(alt_get_fd.o)
 .debug_line    0x0000000000008c93       0xb9 ../UCOS_practica_bsp/\libucosii_bsp.a(alt_instruction_exception_entry.o)
 .debug_line    0x0000000000008d4c       0xe9 c:/altera/15.0/nios2eds/bin/gnu/h-x86_64-mingw32/bin/../lib/gcc/nios2-elf/4.9.1/../../../../../H-x86_64-mingw32/nios2-elf/lib/mno-hw-mul\libc.a(lib_a-atexit.o)
 .debug_line    0x0000000000008e35      0x1fd c:/altera/15.0/nios2eds/bin/gnu/h-x86_64-mingw32/bin/../lib/gcc/nios2-elf/4.9.1/../../../../../H-x86_64-mingw32/nios2-elf/lib/mno-hw-mul\libc.a(lib_a-exit.o)
 .debug_line    0x0000000000009032      0x178 c:/altera/15.0/nios2eds/bin/gnu/h-x86_64-mingw32/bin/../lib/gcc/nios2-elf/4.9.1/../../../../../H-x86_64-mingw32/nios2-elf/lib/mno-hw-mul\libc.a(lib_a-memcmp.o)
 .debug_line    0x00000000000091aa      0x227 c:/altera/15.0/nios2eds/bin/gnu/h-x86_64-mingw32/bin/../lib/gcc/nios2-elf/4.9.1/../../../../../H-x86_64-mingw32/nios2-elf/lib/mno-hw-mul\libc.a(lib_a-__atexit.o)
 .debug_line    0x00000000000093d1      0x244 c:/altera/15.0/nios2eds/bin/gnu/h-x86_64-mingw32/bin/../lib/gcc/nios2-elf/4.9.1/../../../../../H-x86_64-mingw32/nios2-elf/lib/mno-hw-mul\libc.a(lib_a-__call_atexit.o)
 .debug_line    0x0000000000009615       0xc7 c:/altera/15.0/nios2eds/bin/gnu/h-x86_64-mingw32/bin/../lib/gcc/nios2-elf/4.9.1/mno-hw-mul\libgcc.a(lib2-divmod.o)
 .debug_line    0x00000000000096dc       0xcf ../UCOS_practica_bsp/\libucosii_bsp.a(alt_exit.o)

.debug_frame    0x0000000000000000     0x2878
 *(.debug_frame)
 .debug_frame   0x0000000000000000       0xc0 obj/default/hello_ucosii.o
 .debug_frame   0x00000000000000c0       0x48 c:/altera/15.0/nios2eds/bin/gnu/h-x86_64-mingw32/bin/../lib/gcc/nios2-elf/4.9.1/../../../../../H-x86_64-mingw32/nios2-elf/lib/mno-hw-mul\libc.a(lib_a-puts.o)
 .debug_frame   0x0000000000000108       0x20 c:/altera/15.0/nios2eds/bin/gnu/h-x86_64-mingw32/bin/../lib/gcc/nios2-elf/4.9.1/../../../../../H-x86_64-mingw32/nios2-elf/lib/mno-hw-mul\libc.a(lib_a-strlen.o)
 .debug_frame   0x0000000000000128       0x78 c:/altera/15.0/nios2eds/bin/gnu/h-x86_64-mingw32/bin/../lib/gcc/nios2-elf/4.9.1/../../../../../H-x86_64-mingw32/nios2-elf/lib/mno-hw-mul\libc.a(lib_a-fvwrite.o)
 .debug_frame   0x00000000000001a0       0x54 c:/altera/15.0/nios2eds/bin/gnu/h-x86_64-mingw32/bin/../lib/gcc/nios2-elf/4.9.1/../../../../../H-x86_64-mingw32/nios2-elf/lib/mno-hw-mul\libc.a(lib_a-mallocr.o)
 .debug_frame   0x00000000000001f4       0x20 c:/altera/15.0/nios2eds/bin/gnu/h-x86_64-mingw32/bin/../lib/gcc/nios2-elf/4.9.1/../../../../../H-x86_64-mingw32/nios2-elf/lib/mno-hw-mul\libc.a(lib_a-memchr.o)
 .debug_frame   0x0000000000000214       0x30 c:/altera/15.0/nios2eds/bin/gnu/h-x86_64-mingw32/bin/../lib/gcc/nios2-elf/4.9.1/../../../../../H-x86_64-mingw32/nios2-elf/lib/mno-hw-mul\libc.a(lib_a-memcpy.o)
 .debug_frame   0x0000000000000244       0x20 c:/altera/15.0/nios2eds/bin/gnu/h-x86_64-mingw32/bin/../lib/gcc/nios2-elf/4.9.1/../../../../../H-x86_64-mingw32/nios2-elf/lib/mno-hw-mul\libc.a(lib_a-memmove.o)
 .debug_frame   0x0000000000000264       0x70 c:/altera/15.0/nios2eds/bin/gnu/h-x86_64-mingw32/bin/../lib/gcc/nios2-elf/4.9.1/../../../../../H-x86_64-mingw32/nios2-elf/lib/mno-hw-mul\libc.a(lib_a-reallocr.o)
 .debug_frame   0x00000000000002d4       0x38 c:/altera/15.0/nios2eds/bin/gnu/h-x86_64-mingw32/bin/../lib/gcc/nios2-elf/4.9.1/../../../../../H-x86_64-mingw32/nios2-elf/lib/mno-hw-mul\libc.a(lib_a-sbrkr.o)
 .debug_frame   0x000000000000030c       0x38 c:/altera/15.0/nios2eds/bin/gnu/h-x86_64-mingw32/bin/../lib/gcc/nios2-elf/4.9.1/../../../../../H-x86_64-mingw32/nios2-elf/lib/mno-hw-mul\libc.a(lib_a-wsetup.o)
 .debug_frame   0x0000000000000344       0x50 c:/altera/15.0/nios2eds/bin/gnu/h-x86_64-mingw32/bin/../lib/gcc/nios2-elf/4.9.1/../../../../../H-x86_64-mingw32/nios2-elf/lib/mno-hw-mul\libc.a(lib_a-fflush.o)
 .debug_frame   0x0000000000000394      0x160 c:/altera/15.0/nios2eds/bin/gnu/h-x86_64-mingw32/bin/../lib/gcc/nios2-elf/4.9.1/../../../../../H-x86_64-mingw32/nios2-elf/lib/mno-hw-mul\libc.a(lib_a-findfp.o)
 .debug_frame   0x00000000000004f4       0x70 c:/altera/15.0/nios2eds/bin/gnu/h-x86_64-mingw32/bin/../lib/gcc/nios2-elf/4.9.1/../../../../../H-x86_64-mingw32/nios2-elf/lib/mno-hw-mul\libc.a(lib_a-freer.o)
 .debug_frame   0x0000000000000564       0x88 c:/altera/15.0/nios2eds/bin/gnu/h-x86_64-mingw32/bin/../lib/gcc/nios2-elf/4.9.1/../../../../../H-x86_64-mingw32/nios2-elf/lib/mno-hw-mul\libc.a(lib_a-fwalk.o)
 .debug_frame   0x00000000000005ec       0x4c c:/altera/15.0/nios2eds/bin/gnu/h-x86_64-mingw32/bin/../lib/gcc/nios2-elf/4.9.1/../../../../../H-x86_64-mingw32/nios2-elf/lib/mno-hw-mul\libc.a(lib_a-makebuf.o)
 .debug_frame   0x0000000000000638       0x20 c:/altera/15.0/nios2eds/bin/gnu/h-x86_64-mingw32/bin/../lib/gcc/nios2-elf/4.9.1/../../../../../H-x86_64-mingw32/nios2-elf/lib/mno-hw-mul\libc.a(lib_a-memset.o)
 .debug_frame   0x0000000000000658       0xb4 c:/altera/15.0/nios2eds/bin/gnu/h-x86_64-mingw32/bin/../lib/gcc/nios2-elf/4.9.1/../../../../../H-x86_64-mingw32/nios2-elf/lib/mno-hw-mul\libc.a(lib_a-stdio.o)
 .debug_frame   0x000000000000070c       0x38 c:/altera/15.0/nios2eds/bin/gnu/h-x86_64-mingw32/bin/../lib/gcc/nios2-elf/4.9.1/../../../../../H-x86_64-mingw32/nios2-elf/lib/mno-hw-mul\libc.a(lib_a-writer.o)
 .debug_frame   0x0000000000000744       0x38 c:/altera/15.0/nios2eds/bin/gnu/h-x86_64-mingw32/bin/../lib/gcc/nios2-elf/4.9.1/../../../../../H-x86_64-mingw32/nios2-elf/lib/mno-hw-mul\libc.a(closer.o)
 .debug_frame   0x000000000000077c       0x60 c:/altera/15.0/nios2eds/bin/gnu/h-x86_64-mingw32/bin/../lib/gcc/nios2-elf/4.9.1/../../../../../H-x86_64-mingw32/nios2-elf/lib/mno-hw-mul\libc.a(lib_a-fclose.o)
 .debug_frame   0x00000000000007dc       0x38 c:/altera/15.0/nios2eds/bin/gnu/h-x86_64-mingw32/bin/../lib/gcc/nios2-elf/4.9.1/../../../../../H-x86_64-mingw32/nios2-elf/lib/mno-hw-mul\libc.a(lib_a-fstatr.o)
 .debug_frame   0x0000000000000814       0x38 c:/altera/15.0/nios2eds/bin/gnu/h-x86_64-mingw32/bin/../lib/gcc/nios2-elf/4.9.1/../../../../../H-x86_64-mingw32/nios2-elf/lib/mno-hw-mul\libc.a(lib_a-isattyr.o)
 .debug_frame   0x000000000000084c       0x38 c:/altera/15.0/nios2eds/bin/gnu/h-x86_64-mingw32/bin/../lib/gcc/nios2-elf/4.9.1/../../../../../H-x86_64-mingw32/nios2-elf/lib/mno-hw-mul\libc.a(lib_a-lseekr.o)
 .debug_frame   0x0000000000000884       0x38 c:/altera/15.0/nios2eds/bin/gnu/h-x86_64-mingw32/bin/../lib/gcc/nios2-elf/4.9.1/../../../../../H-x86_64-mingw32/nios2-elf/lib/mno-hw-mul\libc.a(lib_a-readr.o)
 .debug_frame   0x00000000000008bc       0x20 c:/altera/15.0/nios2eds/bin/gnu/h-x86_64-mingw32/bin/../lib/gcc/nios2-elf/4.9.1/mno-hw-mul\libgcc.a(lib2-mul.o)
 .debug_frame   0x00000000000008dc       0x60 ../UCOS_practica_bsp/\libucosii_bsp.a(alt_close.o)
 .debug_frame   0x000000000000093c       0x34 ../UCOS_practica_bsp/\libucosii_bsp.a(alt_dev.o)
 .debug_frame   0x0000000000000970       0x60 ../UCOS_practica_bsp/\libucosii_bsp.a(alt_fstat.o)
 .debug_frame   0x00000000000009d0       0x60 ../UCOS_practica_bsp/\libucosii_bsp.a(alt_isatty.o)
 .debug_frame   0x0000000000000a30       0x5c ../UCOS_practica_bsp/\libucosii_bsp.a(alt_load.o)
 .debug_frame   0x0000000000000a8c       0x60 ../UCOS_practica_bsp/\libucosii_bsp.a(alt_lseek.o)
 .debug_frame   0x0000000000000aec       0x2c ../UCOS_practica_bsp/\libucosii_bsp.a(alt_main.o)
 .debug_frame   0x0000000000000b18       0x60 ../UCOS_practica_bsp/\libucosii_bsp.a(alt_read.o)
 .debug_frame   0x0000000000000b78       0x3c ../UCOS_practica_bsp/\libucosii_bsp.a(alt_release_fd.o)
 .debug_frame   0x0000000000000bb4       0x34 ../UCOS_practica_bsp/\libucosii_bsp.a(alt_sbrk.o)
 .debug_frame   0x0000000000000be8       0x60 ../UCOS_practica_bsp/\libucosii_bsp.a(alt_write.o)
 .debug_frame   0x0000000000000c48       0x60 ../UCOS_practica_bsp/\libucosii_bsp.a(alt_env_lock.o)
 .debug_frame   0x0000000000000ca8       0x64 ../UCOS_practica_bsp/\libucosii_bsp.a(alt_malloc_lock.o)
 .debug_frame   0x0000000000000d0c      0x530 ../UCOS_practica_bsp/\libucosii_bsp.a(os_core.o)
 .debug_frame   0x000000000000123c       0x34 ../UCOS_practica_bsp/\libucosii_bsp.a(os_dbg.o)
 .debug_frame   0x0000000000001270      0x200 ../UCOS_practica_bsp/\libucosii_bsp.a(os_flag.o)
 .debug_frame   0x0000000000001470      0x118 ../UCOS_practica_bsp/\libucosii_bsp.a(os_mem.o)
 .debug_frame   0x0000000000001588      0x1bc ../UCOS_practica_bsp/\libucosii_bsp.a(os_q.o)
 .debug_frame   0x0000000000001744      0x144 ../UCOS_practica_bsp/\libucosii_bsp.a(os_sem.o)
 .debug_frame   0x0000000000001888      0x1e4 ../UCOS_practica_bsp/\libucosii_bsp.a(os_task.o)
 .debug_frame   0x0000000000001a6c       0xd8 ../UCOS_practica_bsp/\libucosii_bsp.a(os_time.o)
 .debug_frame   0x0000000000001b44       0x88 ../UCOS_practica_bsp/\libucosii_bsp.a(alt_sys_init.o)
 .debug_frame   0x0000000000001bcc       0xb0 ../UCOS_practica_bsp/\libucosii_bsp.a(altera_avalon_jtag_uart_fd.o)
 .debug_frame   0x0000000000001c7c       0xac ../UCOS_practica_bsp/\libucosii_bsp.a(altera_avalon_jtag_uart_init.o)
 .debug_frame   0x0000000000001d28       0x34 ../UCOS_practica_bsp/\libucosii_bsp.a(altera_avalon_jtag_uart_ioctl.o)
 .debug_frame   0x0000000000001d5c       0x38 ../UCOS_practica_bsp/\libucosii_bsp.a(altera_avalon_jtag_uart_read.o)
 .debug_frame   0x0000000000001d94       0x38 ../UCOS_practica_bsp/\libucosii_bsp.a(altera_avalon_jtag_uart_write.o)
 .debug_frame   0x0000000000001dcc       0x60 ../UCOS_practica_bsp/\libucosii_bsp.a(altera_avalon_timer_sc.o)
 .debug_frame   0x0000000000001e2c       0x88 ../UCOS_practica_bsp/\libucosii_bsp.a(altera_avalon_uart_fd.o)
 .debug_frame   0x0000000000001eb4       0xd4 ../UCOS_practica_bsp/\libucosii_bsp.a(altera_avalon_uart_init.o)
 .debug_frame   0x0000000000001f88       0x60 ../UCOS_practica_bsp/\libucosii_bsp.a(altera_avalon_uart_read.o)
 .debug_frame   0x0000000000001fe8       0x60 ../UCOS_practica_bsp/\libucosii_bsp.a(altera_avalon_uart_write.o)
 .debug_frame   0x0000000000002048       0x34 ../UCOS_practica_bsp/\libucosii_bsp.a(alt_alarm_start.o)
 .debug_frame   0x000000000000207c       0x34 ../UCOS_practica_bsp/\libucosii_bsp.a(alt_dcache_flush_all.o)
 .debug_frame   0x00000000000020b0       0x60 ../UCOS_practica_bsp/\libucosii_bsp.a(alt_dev_llist_insert.o)
 .debug_frame   0x0000000000002110       0x38 ../UCOS_practica_bsp/\libucosii_bsp.a(alt_do_ctors.o)
 .debug_frame   0x0000000000002148       0x38 ../UCOS_practica_bsp/\libucosii_bsp.a(alt_do_dtors.o)
 .debug_frame   0x0000000000002180       0x34 ../UCOS_practica_bsp/\libucosii_bsp.a(alt_icache_flush_all.o)
 .debug_frame   0x00000000000021b4       0xa4 ../UCOS_practica_bsp/\libucosii_bsp.a(alt_iic.o)
 .debug_frame   0x0000000000002258       0x38 ../UCOS_practica_bsp/\libucosii_bsp.a(alt_iic_isr_register.o)
 .debug_frame   0x0000000000002290       0x64 ../UCOS_practica_bsp/\libucosii_bsp.a(alt_io_redirect.o)
 .debug_frame   0x00000000000022f4       0x38 ../UCOS_practica_bsp/\libucosii_bsp.a(alt_irq_handler.o)
 .debug_frame   0x000000000000232c       0x8c ../UCOS_practica_bsp/\libucosii_bsp.a(alt_open.o)
 .debug_frame   0x00000000000023b8       0x5c ../UCOS_practica_bsp/\libucosii_bsp.a(alt_tick.o)
 .debug_frame   0x0000000000002414       0x34 ../UCOS_practica_bsp/\libucosii_bsp.a(altera_nios2_gen2_irq.o)
 .debug_frame   0x0000000000002448      0x17c ../UCOS_practica_bsp/\libucosii_bsp.a(os_cpu_c.o)
 .debug_frame   0x00000000000025c4       0x38 ../UCOS_practica_bsp/\libucosii_bsp.a(alt_find_dev.o)
 .debug_frame   0x00000000000025fc       0x38 ../UCOS_practica_bsp/\libucosii_bsp.a(alt_find_file.o)
 .debug_frame   0x0000000000002634       0x3c ../UCOS_practica_bsp/\libucosii_bsp.a(alt_get_fd.o)
 .debug_frame   0x0000000000002670       0x5c ../UCOS_practica_bsp/\libucosii_bsp.a(alt_instruction_exception_entry.o)
 .debug_frame   0x00000000000026cc       0x20 c:/altera/15.0/nios2eds/bin/gnu/h-x86_64-mingw32/bin/../lib/gcc/nios2-elf/4.9.1/../../../../../H-x86_64-mingw32/nios2-elf/lib/mno-hw-mul\libc.a(lib_a-atexit.o)
 .debug_frame   0x00000000000026ec       0x28 c:/altera/15.0/nios2eds/bin/gnu/h-x86_64-mingw32/bin/../lib/gcc/nios2-elf/4.9.1/../../../../../H-x86_64-mingw32/nios2-elf/lib/mno-hw-mul\libc.a(lib_a-exit.o)
 .debug_frame   0x0000000000002714       0x20 c:/altera/15.0/nios2eds/bin/gnu/h-x86_64-mingw32/bin/../lib/gcc/nios2-elf/4.9.1/../../../../../H-x86_64-mingw32/nios2-elf/lib/mno-hw-mul\libc.a(lib_a-memcmp.o)
 .debug_frame   0x0000000000002734       0x38 c:/altera/15.0/nios2eds/bin/gnu/h-x86_64-mingw32/bin/../lib/gcc/nios2-elf/4.9.1/../../../../../H-x86_64-mingw32/nios2-elf/lib/mno-hw-mul\libc.a(lib_a-__atexit.o)
 .debug_frame   0x000000000000276c       0x54 c:/altera/15.0/nios2eds/bin/gnu/h-x86_64-mingw32/bin/../lib/gcc/nios2-elf/4.9.1/../../../../../H-x86_64-mingw32/nios2-elf/lib/mno-hw-mul\libc.a(lib_a-__call_atexit.o)
 .debug_frame   0x00000000000027c0       0x8c c:/altera/15.0/nios2eds/bin/gnu/h-x86_64-mingw32/bin/../lib/gcc/nios2-elf/4.9.1/mno-hw-mul\libgcc.a(lib2-divmod.o)
 .debug_frame   0x000000000000284c       0x2c ../UCOS_practica_bsp/\libucosii_bsp.a(alt_exit.o)

.debug_str      0x0000000000000000     0x3bbf
 *(.debug_str)
 .debug_str     0x0000000000000000      0x20d obj/default/hello_ucosii.o
                                        0x250 (size before relaxing)
 .debug_str     0x000000000000020d      0x4a0 c:/altera/15.0/nios2eds/bin/gnu/h-x86_64-mingw32/bin/../lib/gcc/nios2-elf/4.9.1/../../../../../H-x86_64-mingw32/nios2-elf/lib/mno-hw-mul\libc.a(lib_a-puts.o)
                                        0x5ba (size before relaxing)
 .debug_str     0x00000000000006ad       0xda c:/altera/15.0/nios2eds/bin/gnu/h-x86_64-mingw32/bin/../lib/gcc/nios2-elf/4.9.1/../../../../../H-x86_64-mingw32/nios2-elf/lib/mno-hw-mul\libc.a(lib_a-strlen.o)
                                        0x1bb (size before relaxing)
 .debug_str     0x0000000000000787       0xa5 c:/altera/15.0/nios2eds/bin/gnu/h-x86_64-mingw32/bin/../lib/gcc/nios2-elf/4.9.1/../../../../../H-x86_64-mingw32/nios2-elf/lib/mno-hw-mul\libc.a(lib_a-fvwrite.o)
                                        0x604 (size before relaxing)
 .debug_str     0x000000000000082c       0xea c:/altera/15.0/nios2eds/bin/gnu/h-x86_64-mingw32/bin/../lib/gcc/nios2-elf/4.9.1/../../../../../H-x86_64-mingw32/nios2-elf/lib/mno-hw-mul\libc.a(lib_a-impure.o)
                                        0x572 (size before relaxing)
 .debug_str     0x0000000000000916      0x2c0 c:/altera/15.0/nios2eds/bin/gnu/h-x86_64-mingw32/bin/../lib/gcc/nios2-elf/4.9.1/../../../../../H-x86_64-mingw32/nios2-elf/lib/mno-hw-mul\libc.a(lib_a-mallocr.o)
                                        0x781 (size before relaxing)
 .debug_str     0x0000000000000bd6       0x53 c:/altera/15.0/nios2eds/bin/gnu/h-x86_64-mingw32/bin/../lib/gcc/nios2-elf/4.9.1/../../../../../H-x86_64-mingw32/nios2-elf/lib/mno-hw-mul\libc.a(lib_a-memchr.o)
                                        0x1c2 (size before relaxing)
 .debug_str     0x0000000000000c29       0x65 c:/altera/15.0/nios2eds/bin/gnu/h-x86_64-mingw32/bin/../lib/gcc/nios2-elf/4.9.1/../../../../../H-x86_64-mingw32/nios2-elf/lib/mno-hw-mul\libc.a(lib_a-memcpy.o)
                                        0x1cf (size before relaxing)
 .debug_str     0x0000000000000c8e       0x48 c:/altera/15.0/nios2eds/bin/gnu/h-x86_64-mingw32/bin/../lib/gcc/nios2-elf/4.9.1/../../../../../H-x86_64-mingw32/nios2-elf/lib/mno-hw-mul\libc.a(lib_a-memmove.o)
                                        0x1db (size before relaxing)
 .debug_str     0x0000000000000cd6       0x49 c:/altera/15.0/nios2eds/bin/gnu/h-x86_64-mingw32/bin/../lib/gcc/nios2-elf/4.9.1/../../../../../H-x86_64-mingw32/nios2-elf/lib/mno-hw-mul\libc.a(lib_a-reallocr.o)
                                        0x653 (size before relaxing)
 .debug_str     0x0000000000000d1f       0x46 c:/altera/15.0/nios2eds/bin/gnu/h-x86_64-mingw32/bin/../lib/gcc/nios2-elf/4.9.1/../../../../../H-x86_64-mingw32/nios2-elf/lib/mno-hw-mul\libc.a(lib_a-sbrkr.o)
                                        0x568 (size before relaxing)
 .debug_str     0x0000000000000d65       0x52 c:/altera/15.0/nios2eds/bin/gnu/h-x86_64-mingw32/bin/../lib/gcc/nios2-elf/4.9.1/../../../../../H-x86_64-mingw32/nios2-elf/lib/mno-hw-mul\libc.a(lib_a-wsetup.o)
                                        0x581 (size before relaxing)
 .debug_str     0x0000000000000db7       0x55 c:/altera/15.0/nios2eds/bin/gnu/h-x86_64-mingw32/bin/../lib/gcc/nios2-elf/4.9.1/../../../../../H-x86_64-mingw32/nios2-elf/lib/mno-hw-mul\libc.a(lib_a-fflush.o)
                                        0x5b1 (size before relaxing)
 .debug_str     0x0000000000000e0c      0x104 c:/altera/15.0/nios2eds/bin/gnu/h-x86_64-mingw32/bin/../lib/gcc/nios2-elf/4.9.1/../../../../../H-x86_64-mingw32/nios2-elf/lib/mno-hw-mul\libc.a(lib_a-findfp.o)
                                        0x66b (size before relaxing)
 .debug_str     0x0000000000000f10       0x34 c:/altera/15.0/nios2eds/bin/gnu/h-x86_64-mingw32/bin/../lib/gcc/nios2-elf/4.9.1/../../../../../H-x86_64-mingw32/nios2-elf/lib/mno-hw-mul\libc.a(lib_a-freer.o)
                                        0x6cb (size before relaxing)
 .debug_str     0x0000000000000f44       0x61 c:/altera/15.0/nios2eds/bin/gnu/h-x86_64-mingw32/bin/../lib/gcc/nios2-elf/4.9.1/../../../../../H-x86_64-mingw32/nios2-elf/lib/mno-hw-mul\libc.a(lib_a-fwalk.o)
                                        0x5b3 (size before relaxing)
 .debug_str     0x0000000000000fa5       0x40 c:/altera/15.0/nios2eds/bin/gnu/h-x86_64-mingw32/bin/../lib/gcc/nios2-elf/4.9.1/../../../../../H-x86_64-mingw32/nios2-elf/lib/mno-hw-mul\libc.a(lib_a-int_errno.o)
                                        0x1a1 (size before relaxing)
 .debug_str     0x0000000000000fe5      0x12c c:/altera/15.0/nios2eds/bin/gnu/h-x86_64-mingw32/bin/../lib/gcc/nios2-elf/4.9.1/../../../../../H-x86_64-mingw32/nios2-elf/lib/mno-hw-mul\libc.a(lib_a-makebuf.o)
                                        0x67b (size before relaxing)
 .debug_str     0x0000000000001111       0x45 c:/altera/15.0/nios2eds/bin/gnu/h-x86_64-mingw32/bin/../lib/gcc/nios2-elf/4.9.1/../../../../../H-x86_64-mingw32/nios2-elf/lib/mno-hw-mul\libc.a(lib_a-memset.o)
                                        0x1bc (size before relaxing)
 .debug_str     0x0000000000001156       0x9c c:/altera/15.0/nios2eds/bin/gnu/h-x86_64-mingw32/bin/../lib/gcc/nios2-elf/4.9.1/../../../../../H-x86_64-mingw32/nios2-elf/lib/mno-hw-mul\libc.a(lib_a-stdio.o)
                                        0x5cc (size before relaxing)
 .debug_str     0x00000000000011f2       0x3d c:/altera/15.0/nios2eds/bin/gnu/h-x86_64-mingw32/bin/../lib/gcc/nios2-elf/4.9.1/../../../../../H-x86_64-mingw32/nios2-elf/lib/mno-hw-mul\libc.a(lib_a-writer.o)
                                        0x56c (size before relaxing)
 .debug_str     0x000000000000122f       0x3d c:/altera/15.0/nios2eds/bin/gnu/h-x86_64-mingw32/bin/../lib/gcc/nios2-elf/4.9.1/../../../../../H-x86_64-mingw32/nios2-elf/lib/mno-hw-mul\libc.a(closer.o)
                                        0x55c (size before relaxing)
 .debug_str     0x000000000000126c       0x53 c:/altera/15.0/nios2eds/bin/gnu/h-x86_64-mingw32/bin/../lib/gcc/nios2-elf/4.9.1/../../../../../H-x86_64-mingw32/nios2-elf/lib/mno-hw-mul\libc.a(lib_a-fclose.o)
                                        0x5ae (size before relaxing)
 .debug_str     0x00000000000012bf       0x49 c:/altera/15.0/nios2eds/bin/gnu/h-x86_64-mingw32/bin/../lib/gcc/nios2-elf/4.9.1/../../../../../H-x86_64-mingw32/nios2-elf/lib/mno-hw-mul\libc.a(lib_a-fstatr.o)
                                        0x64f (size before relaxing)
 .debug_str     0x0000000000001308       0x45 c:/altera/15.0/nios2eds/bin/gnu/h-x86_64-mingw32/bin/../lib/gcc/nios2-elf/4.9.1/../../../../../H-x86_64-mingw32/nios2-elf/lib/mno-hw-mul\libc.a(lib_a-isattyr.o)
                                        0x55f (size before relaxing)
 .debug_str     0x000000000000134d       0x43 c:/altera/15.0/nios2eds/bin/gnu/h-x86_64-mingw32/bin/../lib/gcc/nios2-elf/4.9.1/../../../../../H-x86_64-mingw32/nios2-elf/lib/mno-hw-mul\libc.a(lib_a-lseekr.o)
                                        0x570 (size before relaxing)
 .debug_str     0x0000000000001390       0x3c c:/altera/15.0/nios2eds/bin/gnu/h-x86_64-mingw32/bin/../lib/gcc/nios2-elf/4.9.1/../../../../../H-x86_64-mingw32/nios2-elf/lib/mno-hw-mul\libc.a(lib_a-readr.o)
                                        0x569 (size before relaxing)
 .debug_str     0x00000000000013cc      0x146 c:/altera/15.0/nios2eds/bin/gnu/h-x86_64-mingw32/bin/../lib/gcc/nios2-elf/4.9.1/mno-hw-mul\libgcc.a(lib2-mul.o)
                                        0x191 (size before relaxing)
 .debug_str     0x0000000000001512      0x164 ../UCOS_practica_bsp/\libucosii_bsp.a(alt_close.o)
                                        0x26b (size before relaxing)
 .debug_str     0x0000000000001676       0xb7 ../UCOS_practica_bsp/\libucosii_bsp.a(alt_dev.o)
                                        0x3d9 (size before relaxing)
 .debug_str     0x000000000000172d       0x14 ../UCOS_practica_bsp/\libucosii_bsp.a(alt_errno.o)
                                        0x175 (size before relaxing)
 .debug_str     0x0000000000001741       0x14 ../UCOS_practica_bsp/\libucosii_bsp.a(alt_fstat.o)
                                        0x34c (size before relaxing)
 .debug_str     0x0000000000001755       0x15 ../UCOS_practica_bsp/\libucosii_bsp.a(alt_isatty.o)
                                        0x354 (size before relaxing)
 .debug_str     0x000000000000176a       0xe9 ../UCOS_practica_bsp/\libucosii_bsp.a(alt_load.o)
                                        0x242 (size before relaxing)
 .debug_str     0x0000000000001853       0x14 ../UCOS_practica_bsp/\libucosii_bsp.a(alt_lseek.o)
                                        0x271 (size before relaxing)
 .debug_str     0x0000000000001867       0x5d ../UCOS_practica_bsp/\libucosii_bsp.a(alt_main.o)
                                        0x290 (size before relaxing)
 .debug_str     0x00000000000018c4       0x13 ../UCOS_practica_bsp/\libucosii_bsp.a(alt_read.o)
                                        0x357 (size before relaxing)
 .debug_str     0x00000000000018d7       0x28 ../UCOS_practica_bsp/\libucosii_bsp.a(alt_release_fd.o)
                                        0x255 (size before relaxing)
 .debug_str     0x00000000000018ff       0x98 ../UCOS_practica_bsp/\libucosii_bsp.a(alt_sbrk.o)
                                        0x204 (size before relaxing)
 .debug_str     0x0000000000001997       0x14 ../UCOS_practica_bsp/\libucosii_bsp.a(alt_write.o)
                                        0x358 (size before relaxing)
 .debug_str     0x00000000000019ab      0x23f ../UCOS_practica_bsp/\libucosii_bsp.a(alt_env_lock.o)
                                        0x7f1 (size before relaxing)
 .debug_str     0x0000000000001bea       0x36 ../UCOS_practica_bsp/\libucosii_bsp.a(alt_malloc_lock.o)
                                        0x853 (size before relaxing)
 .debug_str     0x0000000000001c20      0x52e ../UCOS_practica_bsp/\libucosii_bsp.a(os_core.o)
                                        0x986 (size before relaxing)
 .debug_str     0x000000000000214e      0x2e5 ../UCOS_practica_bsp/\libucosii_bsp.a(os_dbg.o)
                                        0x8f5 (size before relaxing)
 .debug_str     0x0000000000002433      0x136 ../UCOS_practica_bsp/\libucosii_bsp.a(os_flag.o)
                                        0x622 (size before relaxing)
 .debug_str     0x0000000000002569       0xcf ../UCOS_practica_bsp/\libucosii_bsp.a(os_mem.o)
                                        0x32b (size before relaxing)
 .debug_str     0x0000000000002638       0xc0 ../UCOS_practica_bsp/\libucosii_bsp.a(os_q.o)
                                        0x5a5 (size before relaxing)
 .debug_str     0x00000000000026f8       0x77 ../UCOS_practica_bsp/\libucosii_bsp.a(os_sem.o)
                                        0x52e (size before relaxing)
 .debug_str     0x000000000000276f      0x103 ../UCOS_practica_bsp/\libucosii_bsp.a(os_task.o)
                                        0x631 (size before relaxing)
 .debug_str     0x0000000000002872       0x5f ../UCOS_practica_bsp/\libucosii_bsp.a(os_time.o)
                                        0x4d1 (size before relaxing)
 .debug_str     0x00000000000028d1      0x20e ../UCOS_practica_bsp/\libucosii_bsp.a(alt_sys_init.o)
                                        0x542 (size before relaxing)
 .debug_str     0x0000000000002adf       0xb2 ../UCOS_practica_bsp/\libucosii_bsp.a(altera_avalon_jtag_uart_fd.o)
                                        0x4c4 (size before relaxing)
 .debug_str     0x0000000000002b91       0xf6 ../UCOS_practica_bsp/\libucosii_bsp.a(altera_avalon_jtag_uart_init.o)
                                        0x48b (size before relaxing)
 .debug_str     0x0000000000002c87       0x4a ../UCOS_practica_bsp/\libucosii_bsp.a(altera_avalon_jtag_uart_ioctl.o)
                                        0x3b3 (size before relaxing)
 .debug_str     0x0000000000002cd1       0x63 ../UCOS_practica_bsp/\libucosii_bsp.a(altera_avalon_jtag_uart_read.o)
                                        0x426 (size before relaxing)
 .debug_str     0x0000000000002d34       0x4a ../UCOS_practica_bsp/\libucosii_bsp.a(altera_avalon_jtag_uart_write.o)
                                        0x427 (size before relaxing)
 .debug_str     0x0000000000002d7e       0x66 ../UCOS_practica_bsp/\libucosii_bsp.a(altera_avalon_timer_sc.o)
                                        0x27b (size before relaxing)
 .debug_str     0x0000000000002de4       0x77 ../UCOS_practica_bsp/\libucosii_bsp.a(altera_avalon_uart_fd.o)
                                        0x430 (size before relaxing)
 .debug_str     0x0000000000002e5b       0xad ../UCOS_practica_bsp/\libucosii_bsp.a(altera_avalon_uart_init.o)
                                        0x425 (size before relaxing)
 .debug_str     0x0000000000002f08       0x4f ../UCOS_practica_bsp/\libucosii_bsp.a(altera_avalon_uart_read.o)
                                        0x3f9 (size before relaxing)
 .debug_str     0x0000000000002f57       0x49 ../UCOS_practica_bsp/\libucosii_bsp.a(altera_avalon_uart_write.o)
                                        0x3ed (size before relaxing)
 .debug_str     0x0000000000002fa0       0x59 ../UCOS_practica_bsp/\libucosii_bsp.a(alt_alarm_start.o)
                                        0x2ae (size before relaxing)
 .debug_str     0x0000000000002ff9       0x34 ../UCOS_practica_bsp/\libucosii_bsp.a(alt_dcache_flush_all.o)
                                        0x185 (size before relaxing)
 .debug_str     0x000000000000302d       0x34 ../UCOS_practica_bsp/\libucosii_bsp.a(alt_dev_llist_insert.o)
                                        0x1fc (size before relaxing)
 .debug_str     0x0000000000003061       0x48 ../UCOS_practica_bsp/\libucosii_bsp.a(alt_do_ctors.o)
                                        0x10c (size before relaxing)
 .debug_str     0x00000000000030a9       0x4c ../UCOS_practica_bsp/\libucosii_bsp.a(alt_do_dtors.o)
                                        0x10b (size before relaxing)
 .debug_str     0x00000000000030f5       0x34 ../UCOS_practica_bsp/\libucosii_bsp.a(alt_icache_flush_all.o)
                                        0x185 (size before relaxing)
 .debug_str     0x0000000000003129       0xbd ../UCOS_practica_bsp/\libucosii_bsp.a(alt_iic.o)
                                        0x26e (size before relaxing)
 .debug_str     0x00000000000031e6       0x4c ../UCOS_practica_bsp/\libucosii_bsp.a(alt_iic_isr_register.o)
                                        0x218 (size before relaxing)
 .debug_str     0x0000000000003232       0x56 ../UCOS_practica_bsp/\libucosii_bsp.a(alt_io_redirect.o)
                                        0x376 (size before relaxing)
 .debug_str     0x0000000000003288       0x3a ../UCOS_practica_bsp/\libucosii_bsp.a(alt_irq_handler.o)
                                        0x1ef (size before relaxing)
 .debug_str     0x00000000000032c2       0x17 ../UCOS_practica_bsp/\libucosii_bsp.a(alt_irq_vars.o)
                                        0x176 (size before relaxing)
 .debug_str     0x00000000000032d9       0x29 ../UCOS_practica_bsp/\libucosii_bsp.a(alt_open.o)
                                        0x2a3 (size before relaxing)
 .debug_str     0x0000000000003302       0x4a ../UCOS_practica_bsp/\libucosii_bsp.a(alt_tick.o)
                                        0x28f (size before relaxing)
 .debug_str     0x000000000000334c       0x3b ../UCOS_practica_bsp/\libucosii_bsp.a(altera_nios2_gen2_irq.o)
                                        0x18c (size before relaxing)
 .debug_str     0x0000000000003387       0xd5 ../UCOS_practica_bsp/\libucosii_bsp.a(os_cpu_c.o)
                                        0x866 (size before relaxing)
 .debug_str     0x000000000000345c       0x24 ../UCOS_practica_bsp/\libucosii_bsp.a(alt_find_dev.o)
                                        0x24c (size before relaxing)
 .debug_str     0x0000000000003480       0x26 ../UCOS_practica_bsp/\libucosii_bsp.a(alt_find_file.o)
                                        0x25a (size before relaxing)
 .debug_str     0x00000000000034a6       0x30 ../UCOS_practica_bsp/\libucosii_bsp.a(alt_get_fd.o)
                                        0x2f8 (size before relaxing)
 .debug_str     0x00000000000034d6      0x48b ../UCOS_practica_bsp/\libucosii_bsp.a(alt_instruction_exception_entry.o)
                                        0x5cf (size before relaxing)
 .debug_str     0x0000000000003961       0x82 c:/altera/15.0/nios2eds/bin/gnu/h-x86_64-mingw32/bin/../lib/gcc/nios2-elf/4.9.1/../../../../../H-x86_64-mingw32/nios2-elf/lib/mno-hw-mul\libc.a(lib_a-atexit.o)
                                        0x1e5 (size before relaxing)
 .debug_str     0x00000000000039e3       0x4d c:/altera/15.0/nios2eds/bin/gnu/h-x86_64-mingw32/bin/../lib/gcc/nios2-elf/4.9.1/../../../../../H-x86_64-mingw32/nios2-elf/lib/mno-hw-mul\libc.a(lib_a-exit.o)
                                        0x57b (size before relaxing)
 .debug_str     0x0000000000003a30       0x45 c:/altera/15.0/nios2eds/bin/gnu/h-x86_64-mingw32/bin/../lib/gcc/nios2-elf/4.9.1/../../../../../H-x86_64-mingw32/nios2-elf/lib/mno-hw-mul\libc.a(lib_a-memcmp.o)
                                        0x1a8 (size before relaxing)
 .debug_str     0x0000000000003a75       0x4e c:/altera/15.0/nios2eds/bin/gnu/h-x86_64-mingw32/bin/../lib/gcc/nios2-elf/4.9.1/../../../../../H-x86_64-mingw32/nios2-elf/lib/mno-hw-mul\libc.a(lib_a-__atexit.o)
                                        0x5c8 (size before relaxing)
 .debug_str     0x0000000000003ac3       0x53 c:/altera/15.0/nios2eds/bin/gnu/h-x86_64-mingw32/bin/../lib/gcc/nios2-elf/4.9.1/../../../../../H-x86_64-mingw32/nios2-elf/lib/mno-hw-mul\libc.a(lib_a-__call_atexit.o)
                                        0x591 (size before relaxing)
 .debug_str     0x0000000000003b16       0x7f c:/altera/15.0/nios2eds/bin/gnu/h-x86_64-mingw32/bin/../lib/gcc/nios2-elf/4.9.1/mno-hw-mul\libgcc.a(lib2-divmod.o)
                                        0x1d0 (size before relaxing)
 .debug_str     0x0000000000003b95       0x2a ../UCOS_practica_bsp/\libucosii_bsp.a(alt_exit.o)
                                        0x1c3 (size before relaxing)

.debug_loc      0x0000000000000000     0x486a
 *(.debug_loc)
 .debug_loc     0x0000000000000000      0x149 obj/default/hello_ucosii.o
 .debug_loc     0x0000000000000149       0xb9 c:/altera/15.0/nios2eds/bin/gnu/h-x86_64-mingw32/bin/../lib/gcc/nios2-elf/4.9.1/../../../../../H-x86_64-mingw32/nios2-elf/lib/mno-hw-mul\libc.a(lib_a-puts.o)
 .debug_loc     0x0000000000000202       0x47 c:/altera/15.0/nios2eds/bin/gnu/h-x86_64-mingw32/bin/../lib/gcc/nios2-elf/4.9.1/../../../../../H-x86_64-mingw32/nios2-elf/lib/mno-hw-mul\libc.a(lib_a-strlen.o)
 .debug_loc     0x0000000000000249      0x5ca c:/altera/15.0/nios2eds/bin/gnu/h-x86_64-mingw32/bin/../lib/gcc/nios2-elf/4.9.1/../../../../../H-x86_64-mingw32/nios2-elf/lib/mno-hw-mul\libc.a(lib_a-fvwrite.o)
 .debug_loc     0x0000000000000813      0xbad c:/altera/15.0/nios2eds/bin/gnu/h-x86_64-mingw32/bin/../lib/gcc/nios2-elf/4.9.1/../../../../../H-x86_64-mingw32/nios2-elf/lib/mno-hw-mul\libc.a(lib_a-mallocr.o)
 .debug_loc     0x00000000000013c0      0x19f c:/altera/15.0/nios2eds/bin/gnu/h-x86_64-mingw32/bin/../lib/gcc/nios2-elf/4.9.1/../../../../../H-x86_64-mingw32/nios2-elf/lib/mno-hw-mul\libc.a(lib_a-memchr.o)
 .debug_loc     0x000000000000155f      0x2a2 c:/altera/15.0/nios2eds/bin/gnu/h-x86_64-mingw32/bin/../lib/gcc/nios2-elf/4.9.1/../../../../../H-x86_64-mingw32/nios2-elf/lib/mno-hw-mul\libc.a(lib_a-memcpy.o)
 .debug_loc     0x0000000000001801      0x34f c:/altera/15.0/nios2eds/bin/gnu/h-x86_64-mingw32/bin/../lib/gcc/nios2-elf/4.9.1/../../../../../H-x86_64-mingw32/nios2-elf/lib/mno-hw-mul\libc.a(lib_a-memmove.o)
 .debug_loc     0x0000000000001b50      0xe5b c:/altera/15.0/nios2eds/bin/gnu/h-x86_64-mingw32/bin/../lib/gcc/nios2-elf/4.9.1/../../../../../H-x86_64-mingw32/nios2-elf/lib/mno-hw-mul\libc.a(lib_a-reallocr.o)
 .debug_loc     0x00000000000029ab       0x58 c:/altera/15.0/nios2eds/bin/gnu/h-x86_64-mingw32/bin/../lib/gcc/nios2-elf/4.9.1/../../../../../H-x86_64-mingw32/nios2-elf/lib/mno-hw-mul\libc.a(lib_a-sbrkr.o)
 .debug_loc     0x0000000000002a03       0x84 c:/altera/15.0/nios2eds/bin/gnu/h-x86_64-mingw32/bin/../lib/gcc/nios2-elf/4.9.1/../../../../../H-x86_64-mingw32/nios2-elf/lib/mno-hw-mul\libc.a(lib_a-wsetup.o)
 .debug_loc     0x0000000000002a87      0x23e c:/altera/15.0/nios2eds/bin/gnu/h-x86_64-mingw32/bin/../lib/gcc/nios2-elf/4.9.1/../../../../../H-x86_64-mingw32/nios2-elf/lib/mno-hw-mul\libc.a(lib_a-fflush.o)
 .debug_loc     0x0000000000002cc5      0x213 c:/altera/15.0/nios2eds/bin/gnu/h-x86_64-mingw32/bin/../lib/gcc/nios2-elf/4.9.1/../../../../../H-x86_64-mingw32/nios2-elf/lib/mno-hw-mul\libc.a(lib_a-findfp.o)
 .debug_loc     0x0000000000002ed8      0x4d3 c:/altera/15.0/nios2eds/bin/gnu/h-x86_64-mingw32/bin/../lib/gcc/nios2-elf/4.9.1/../../../../../H-x86_64-mingw32/nios2-elf/lib/mno-hw-mul\libc.a(lib_a-freer.o)
 .debug_loc     0x00000000000033ab      0x2d4 c:/altera/15.0/nios2eds/bin/gnu/h-x86_64-mingw32/bin/../lib/gcc/nios2-elf/4.9.1/../../../../../H-x86_64-mingw32/nios2-elf/lib/mno-hw-mul\libc.a(lib_a-fwalk.o)
 .debug_loc     0x000000000000367f      0x132 c:/altera/15.0/nios2eds/bin/gnu/h-x86_64-mingw32/bin/../lib/gcc/nios2-elf/4.9.1/../../../../../H-x86_64-mingw32/nios2-elf/lib/mno-hw-mul\libc.a(lib_a-makebuf.o)
 .debug_loc     0x00000000000037b1      0x190 c:/altera/15.0/nios2eds/bin/gnu/h-x86_64-mingw32/bin/../lib/gcc/nios2-elf/4.9.1/../../../../../H-x86_64-mingw32/nios2-elf/lib/mno-hw-mul\libc.a(lib_a-memset.o)
 .debug_loc     0x0000000000003941      0x319 c:/altera/15.0/nios2eds/bin/gnu/h-x86_64-mingw32/bin/../lib/gcc/nios2-elf/4.9.1/../../../../../H-x86_64-mingw32/nios2-elf/lib/mno-hw-mul\libc.a(lib_a-stdio.o)
 .debug_loc     0x0000000000003c5a       0xb0 c:/altera/15.0/nios2eds/bin/gnu/h-x86_64-mingw32/bin/../lib/gcc/nios2-elf/4.9.1/../../../../../H-x86_64-mingw32/nios2-elf/lib/mno-hw-mul\libc.a(lib_a-writer.o)
 .debug_loc     0x0000000000003d0a       0x58 c:/altera/15.0/nios2eds/bin/gnu/h-x86_64-mingw32/bin/../lib/gcc/nios2-elf/4.9.1/../../../../../H-x86_64-mingw32/nios2-elf/lib/mno-hw-mul\libc.a(closer.o)
 .debug_loc     0x0000000000003d62      0x12b c:/altera/15.0/nios2eds/bin/gnu/h-x86_64-mingw32/bin/../lib/gcc/nios2-elf/4.9.1/../../../../../H-x86_64-mingw32/nios2-elf/lib/mno-hw-mul\libc.a(lib_a-fclose.o)
 .debug_loc     0x0000000000003e8d       0x84 c:/altera/15.0/nios2eds/bin/gnu/h-x86_64-mingw32/bin/../lib/gcc/nios2-elf/4.9.1/../../../../../H-x86_64-mingw32/nios2-elf/lib/mno-hw-mul\libc.a(lib_a-fstatr.o)
 .debug_loc     0x0000000000003f11       0x58 c:/altera/15.0/nios2eds/bin/gnu/h-x86_64-mingw32/bin/../lib/gcc/nios2-elf/4.9.1/../../../../../H-x86_64-mingw32/nios2-elf/lib/mno-hw-mul\libc.a(lib_a-isattyr.o)
 .debug_loc     0x0000000000003f69       0xb0 c:/altera/15.0/nios2eds/bin/gnu/h-x86_64-mingw32/bin/../lib/gcc/nios2-elf/4.9.1/../../../../../H-x86_64-mingw32/nios2-elf/lib/mno-hw-mul\libc.a(lib_a-lseekr.o)
 .debug_loc     0x0000000000004019       0xb0 c:/altera/15.0/nios2eds/bin/gnu/h-x86_64-mingw32/bin/../lib/gcc/nios2-elf/4.9.1/../../../../../H-x86_64-mingw32/nios2-elf/lib/mno-hw-mul\libc.a(lib_a-readr.o)
 .debug_loc     0x00000000000040c9       0x93 c:/altera/15.0/nios2eds/bin/gnu/h-x86_64-mingw32/bin/../lib/gcc/nios2-elf/4.9.1/mno-hw-mul\libgcc.a(lib2-mul.o)
 .debug_loc     0x000000000000415c       0x2c c:/altera/15.0/nios2eds/bin/gnu/h-x86_64-mingw32/bin/../lib/gcc/nios2-elf/4.9.1/../../../../../H-x86_64-mingw32/nios2-elf/lib/mno-hw-mul\libc.a(lib_a-atexit.o)
 .debug_loc     0x0000000000004188       0x1e c:/altera/15.0/nios2eds/bin/gnu/h-x86_64-mingw32/bin/../lib/gcc/nios2-elf/4.9.1/../../../../../H-x86_64-mingw32/nios2-elf/lib/mno-hw-mul\libc.a(lib_a-exit.o)
 .debug_loc     0x00000000000041a6      0x126 c:/altera/15.0/nios2eds/bin/gnu/h-x86_64-mingw32/bin/../lib/gcc/nios2-elf/4.9.1/../../../../../H-x86_64-mingw32/nios2-elf/lib/mno-hw-mul\libc.a(lib_a-memcmp.o)
 .debug_loc     0x00000000000042cc      0x185 c:/altera/15.0/nios2eds/bin/gnu/h-x86_64-mingw32/bin/../lib/gcc/nios2-elf/4.9.1/../../../../../H-x86_64-mingw32/nios2-elf/lib/mno-hw-mul\libc.a(lib_a-__atexit.o)
 .debug_loc     0x0000000000004451      0x1a6 c:/altera/15.0/nios2eds/bin/gnu/h-x86_64-mingw32/bin/../lib/gcc/nios2-elf/4.9.1/../../../../../H-x86_64-mingw32/nios2-elf/lib/mno-hw-mul\libc.a(lib_a-__call_atexit.o)
 .debug_loc     0x00000000000045f7      0x273 c:/altera/15.0/nios2eds/bin/gnu/h-x86_64-mingw32/bin/../lib/gcc/nios2-elf/4.9.1/mno-hw-mul\libgcc.a(lib2-divmod.o)

.debug_macinfo
 *(.debug_macinfo)

.debug_weaknames
 *(.debug_weaknames)

.debug_funcnames
 *(.debug_funcnames)

.debug_typenames
 *(.debug_typenames)

.debug_varnames
 *(.debug_varnames)

.debug_alt_sim_info
                0x0000000000000000       0x10
 *(.debug_alt_sim_info)
 .debug_alt_sim_info
                0x0000000000000000       0x10 ../UCOS_practica_bsp//obj/HAL/src/crt0.o
                0x0000000000075b60                __alt_data_end = 0x75b60
                0x0000000000075b60                PROVIDE (__alt_stack_pointer, __alt_data_end)
                0x000000000005bec8                PROVIDE (__alt_stack_limit, __alt_stack_base)
                0x000000000005bec8                PROVIDE (__alt_heap_start, end)
                0x0000000000075b60                PROVIDE (__alt_heap_limit, 0x75b60)
OUTPUT(UCOS_practica.elf elf32-littlenios2)

.debug_ranges   0x0000000000000000      0x340
 .debug_ranges  0x0000000000000000       0x20 ../UCOS_practica_bsp//obj/HAL/src/crt0.o
 .debug_ranges  0x0000000000000020       0x18 obj/default/hello_ucosii.o
 .debug_ranges  0x0000000000000038       0x18 c:/altera/15.0/nios2eds/bin/gnu/h-x86_64-mingw32/bin/../lib/gcc/nios2-elf/4.9.1/../../../../../H-x86_64-mingw32/nios2-elf/lib/mno-hw-mul\libc.a(lib_a-fvwrite.o)
 .debug_ranges  0x0000000000000050       0x38 c:/altera/15.0/nios2eds/bin/gnu/h-x86_64-mingw32/bin/../lib/gcc/nios2-elf/4.9.1/../../../../../H-x86_64-mingw32/nios2-elf/lib/mno-hw-mul\libc.a(lib_a-mallocr.o)
 .debug_ranges  0x0000000000000088      0x140 c:/altera/15.0/nios2eds/bin/gnu/h-x86_64-mingw32/bin/../lib/gcc/nios2-elf/4.9.1/../../../../../H-x86_64-mingw32/nios2-elf/lib/mno-hw-mul\libc.a(lib_a-reallocr.o)
 .debug_ranges  0x00000000000001c8       0x20 c:/altera/15.0/nios2eds/bin/gnu/h-x86_64-mingw32/bin/../lib/gcc/nios2-elf/4.9.1/../../../../../H-x86_64-mingw32/nios2-elf/lib/mno-hw-mul\libc.a(lib_a-fflush.o)
 .debug_ranges  0x00000000000001e8       0x68 c:/altera/15.0/nios2eds/bin/gnu/h-x86_64-mingw32/bin/../lib/gcc/nios2-elf/4.9.1/../../../../../H-x86_64-mingw32/nios2-elf/lib/mno-hw-mul\libc.a(lib_a-findfp.o)
 .debug_ranges  0x0000000000000250       0x40 c:/altera/15.0/nios2eds/bin/gnu/h-x86_64-mingw32/bin/../lib/gcc/nios2-elf/4.9.1/../../../../../H-x86_64-mingw32/nios2-elf/lib/mno-hw-mul\libc.a(lib_a-fwalk.o)
 .debug_ranges  0x0000000000000290       0x18 c:/altera/15.0/nios2eds/bin/gnu/h-x86_64-mingw32/bin/../lib/gcc/nios2-elf/4.9.1/../../../../../H-x86_64-mingw32/nios2-elf/lib/mno-hw-mul\libc.a(lib_a-fclose.o)
 .debug_ranges  0x00000000000002a8       0x28 ../UCOS_practica_bsp/\libucosii_bsp.a(alt_irq_entry.o)
 .debug_ranges  0x00000000000002d0       0x10 ../UCOS_practica_bsp/\libucosii_bsp.a(alt_irq_handler.o)
 .debug_ranges  0x00000000000002e0       0x30 ../UCOS_practica_bsp/\libucosii_bsp.a(alt_exception_entry.o)
 .debug_ranges  0x0000000000000310       0x18 ../UCOS_practica_bsp/\libucosii_bsp.a(alt_instruction_exception_entry.o)
 .debug_ranges  0x0000000000000328       0x18 c:/altera/15.0/nios2eds/bin/gnu/h-x86_64-mingw32/bin/../lib/gcc/nios2-elf/4.9.1/../../../../../H-x86_64-mingw32/nios2-elf/lib/mno-hw-mul\libc.a(lib_a-__call_atexit.o)
