
rtos_4.elf:     file format elf32-littlenios2
rtos_4.elf
architecture: nios2:r1, flags 0x00000112:
EXEC_P, HAS_SYMS, D_PAGED
start address 0x0004024c

Program Header:
    LOAD off    0x00001000 vaddr 0x00040000 paddr 0x00040000 align 2**12
         filesz 0x00000020 memsz 0x00000020 flags r-x
    LOAD off    0x00001020 vaddr 0x00040020 paddr 0x00040020 align 2**12
         filesz 0x0001278c memsz 0x0001278c flags r-x
    LOAD off    0x000137ac vaddr 0x000527ac paddr 0x000542a4 align 2**12
         filesz 0x00001af8 memsz 0x00001af8 flags rw-
    LOAD off    0x00015d9c vaddr 0x00055d9c paddr 0x00055d9c align 2**12
         filesz 0x00000000 memsz 0x00009eb8 flags rw-

Sections:
Idx Name          Size      VMA       LMA       File off  Algn
  0 .entry        00000020  00040000  00040000  00001000  2**5
                  CONTENTS, ALLOC, LOAD, READONLY, CODE
  1 .exceptions   0000022c  00040020  00040020  00001020  2**2
                  CONTENTS, ALLOC, LOAD, READONLY, CODE
  2 .text         00012210  0004024c  0004024c  0000124c  2**2
                  CONTENTS, ALLOC, LOAD, READONLY, CODE
  3 .rodata       00000350  0005245c  0005245c  0001345c  2**2
                  CONTENTS, ALLOC, LOAD, READONLY, DATA
  4 .rwdata       00001af8  000527ac  000542a4  000137ac  2**2
                  CONTENTS, ALLOC, LOAD, DATA, SMALL_DATA
  5 .bss          00009eb8  00055d9c  00055d9c  00015d9c  2**2
                  ALLOC, SMALL_DATA
  6 .onchip_memory2 00000000  0005fc54  0005fc54  000152a4  2**0
                  CONTENTS
  7 .comment      00000023  00000000  00000000  000152a4  2**0
                  CONTENTS, READONLY
  8 .debug_aranges 00000d80  00000000  00000000  000152c8  2**3
                  CONTENTS, READONLY, DEBUGGING
  9 .debug_info   00025df3  00000000  00000000  00016048  2**0
                  CONTENTS, READONLY, DEBUGGING
 10 .debug_abbrev 00009884  00000000  00000000  0003be3b  2**0
                  CONTENTS, READONLY, DEBUGGING
 11 .debug_line   0000bc12  00000000  00000000  000456bf  2**0
                  CONTENTS, READONLY, DEBUGGING
 12 .debug_frame  00002cc8  00000000  00000000  000512d4  2**2
                  CONTENTS, READONLY, DEBUGGING
 13 .debug_str    00004093  00000000  00000000  00053f9c  2**0
                  CONTENTS, READONLY, DEBUGGING
 14 .debug_loc    00017099  00000000  00000000  0005802f  2**0
                  CONTENTS, READONLY, DEBUGGING
 15 .debug_alt_sim_info 00000030  00000000  00000000  0006f0c8  2**2
                  CONTENTS, READONLY, DEBUGGING
 16 .debug_ranges 00001348  00000000  00000000  0006f0f8  2**3
                  CONTENTS, READONLY, DEBUGGING
 17 .thread_model 00000003  00000000  00000000  00074692  2**0
                  CONTENTS, READONLY
 18 .cpu          0000000a  00000000  00000000  00074695  2**0
                  CONTENTS, READONLY
 19 .qsys         00000001  00000000  00000000  0007469f  2**0
                  CONTENTS, READONLY
 20 .simulation_enabled 00000001  00000000  00000000  000746a0  2**0
                  CONTENTS, READONLY
 21 .sysid_hash   00000004  00000000  00000000  000746a1  2**0
                  CONTENTS, READONLY
 22 .sysid_base   00000004  00000000  00000000  000746a5  2**0
                  CONTENTS, READONLY
 23 .sysid_time   00000004  00000000  00000000  000746a9  2**0
                  CONTENTS, READONLY
 24 .stderr_dev   00000009  00000000  00000000  000746ad  2**0
                  CONTENTS, READONLY
 25 .stdin_dev    00000009  00000000  00000000  000746b6  2**0
                  CONTENTS, READONLY
 26 .stdout_dev   00000009  00000000  00000000  000746bf  2**0
                  CONTENTS, READONLY
 27 .sopc_system_name 00000011  00000000  00000000  000746c8  2**0
                  CONTENTS, READONLY
 28 .quartus_project_dir 00000028  00000000  00000000  000746d9  2**0
                  CONTENTS, READONLY
 29 .jdi          00004d23  00000000  00000000  00074701  2**0
                  CONTENTS, READONLY
 30 .sopcinfo     0005b74d  00000000  00000000  00079424  2**0
                  CONTENTS, READONLY
SYMBOL TABLE:
00040000 l    d  .entry	00000000 .entry
00040020 l    d  .exceptions	00000000 .exceptions
0004024c l    d  .text	00000000 .text
0005245c l    d  .rodata	00000000 .rodata
000527ac l    d  .rwdata	00000000 .rwdata
00055d9c l    d  .bss	00000000 .bss
0005fc54 l    d  .onchip_memory2	00000000 .onchip_memory2
00000000 l    d  .comment	00000000 .comment
00000000 l    d  .debug_aranges	00000000 .debug_aranges
00000000 l    d  .debug_info	00000000 .debug_info
00000000 l    d  .debug_abbrev	00000000 .debug_abbrev
00000000 l    d  .debug_line	00000000 .debug_line
00000000 l    d  .debug_frame	00000000 .debug_frame
00000000 l    d  .debug_str	00000000 .debug_str
00000000 l    d  .debug_loc	00000000 .debug_loc
00000000 l    d  .debug_alt_sim_info	00000000 .debug_alt_sim_info
00000000 l    d  .debug_ranges	00000000 .debug_ranges
00000000 l    df *ABS*	00000000 ../rtos_4_bsp//obj/HAL/src/crt0.o
00040294 l       .text	00000000 alt_after_alt_main
00000000 l    df *ABS*	00000000 obj/default/FreeRTOS/portable/GCC/NiosII/port_am.o
00040020 l       .exceptions	00000000 save_context
0004009c l       .exceptions	00000000 save_sp_to_pxCurrentTCB
000400ac l       .exceptions	00000000 hw_irq_test
00040150 l       .exceptions	00000000 soft_exceptions
000400c0 l       .exceptions	00000000 hw_irq_handler
000400d4 l       .exceptions	00000000 restore_context
0004016c l       .exceptions	00000000 call_scheduler
00000000 l    df *ABS*	00000000 alt_irq_handler.c
00000000 l    df *ABS*	00000000 list.c
00000000 l    df *ABS*	00000000 port.c
00040678 l     F .text	000000a0 prvSetupTimerInterrupt
00000000 l    df *ABS*	00000000 heap_2.c
00055e24 l     O .bss	00009c40 xHeap
00054258 l     O .rwdata	00000002 heapSTRUCT_SIZE
00055d9c l     O .bss	00000008 xStart
00055da4 l     O .bss	00000008 xEnd
0005425c l     O .rwdata	00000004 xFreeBytesRemaining
00055dac l     O .bss	00000004 xHeapHasBeenInitialised.2265
00000000 l    df *ABS*	00000000 queue.c
00041640 l     F .text	00000158 prvCopyDataToQueue
000419a0 l     F .text	00000050 prvIsQueueFull
00041830 l     F .text	000000f0 prvUnlockQueue
00041798 l     F .text	00000098 prvCopyDataFromQueue
00041920 l     F .text	00000048 prvIsQueueEmpty
00000000 l    df *ABS*	00000000 tasks.c
0005fa64 l     O .bss	00000064 pxReadyTasksLists
0005fac8 l     O .bss	00000014 xDelayedTaskList1
0005fadc l     O .bss	00000014 xDelayedTaskList2
00055db4 l     O .bss	00000004 pxDelayedTaskList
00055db8 l     O .bss	00000004 pxOverflowDelayedTaskList
0005faf0 l     O .bss	00000014 xPendingReadyList
0005fb04 l     O .bss	00000014 xTasksWaitingTermination
00055dbc l     O .bss	00000004 uxTasksDeleted
0005fb18 l     O .bss	00000014 xSuspendedTaskList
00055dc0 l     O .bss	00000004 uxCurrentNumberOfTasks
00055dc4 l     O .bss	00000004 xTickCount
00055dc8 l     O .bss	00000004 uxTopUsedPriority
00055dcc l     O .bss	00000004 uxTopReadyPriority
00055dd0 l     O .bss	00000004 xSchedulerRunning
00055dd4 l     O .bss	00000004 uxSchedulerSuspended
00055dd8 l     O .bss	00000004 uxMissedTicks
00055ddc l     O .bss	00000004 xMissedYield
00055de0 l     O .bss	00000004 xNumOfOverflows
00055de4 l     O .bss	00000004 uxTaskNumber
00054260 l     O .rwdata	00000004 xNextTaskUnblockTime
00042dc8 l     F .text	000000b4 prvAllocateTCBAndStack
00042b10 l     F .text	000000dc prvInitialiseTCBVariables
00042bec l     F .text	000000b4 prvInitialiseTaskLists
00042d40 l     F .text	00000088 prvAddCurrentTaskToDelayedList
00042af4 l     F .text	0000001c prvIdleTask
00052461 l     O .rodata	00000014 ucExpectedStackBytes.3313
00042ca0 l     F .text	000000a0 prvCheckTasksWaitingTermination
00042f48 l     F .text	00000040 prvDeleteTCB
00042e7c l     F .text	0000006c usTaskCheckFreeStackSpace
00000000 l    df *ABS*	00000000 freeRTOScheck.c
00043250 l     F .text	000000b4 prvCheckTask
00043304 l     F .text	00000174 prvFirstRegTestTask
0004338c l       .text	00000000 RegTest1
00043460 l       .text	00000000 RegTest1Error
00043478 l     F .text	00000170 prvSecondRegTestTask
00043500 l       .text	00000000 RegTest2
000435d0 l       .text	00000000 RegTest2Error
00000000 l    df *ABS*	00000000 hello_world.c
00000000 l    df *ABS*	00000000 memcmp.c
00000000 l    df *ABS*	00000000 memcpy.c
00000000 l    df *ABS*	00000000 memset.c
00000000 l    df *ABS*	00000000 printf.c
00000000 l    df *ABS*	00000000 putchar.c
00000000 l    df *ABS*	00000000 strncpy.c
00000000 l    df *ABS*	00000000 vfprintf.c
000524fa l     O .rodata	00000010 zeroes.4181
0005250a l     O .rodata	00000010 blanks.4180
00000000 l    df *ABS*	00000000 wsetup.c
00000000 l    df *ABS*	00000000 dtoa.c
00045e08 l     F .text	00000200 quorem
00000000 l    df *ABS*	00000000 fflush.c
00000000 l    df *ABS*	00000000 findfp.c
00047988 l     F .text	00000008 __fp_lock
00047990 l     F .text	00000008 __fp_unlock
000479a4 l     F .text	000001a0 __sinit.part.1
00000000 l    df *ABS*	00000000 mallocr.c
00000000 l    df *ABS*	00000000 fwalk.c
00000000 l    df *ABS*	00000000 impure.c
000527ac l     O .rwdata	00000424 impure_data
00000000 l    df *ABS*	00000000 locale.c
00052bf0 l     O .rwdata	00000020 lc_ctype_charset
00052bd0 l     O .rwdata	00000020 lc_message_charset
00052c10 l     O .rwdata	00000038 lconv
00000000 l    df *ABS*	00000000 makebuf.c
00000000 l    df *ABS*	00000000 mallocr.c
00000000 l    df *ABS*	00000000 memchr.c
00000000 l    df *ABS*	00000000 mprec.c
0005253c l     O .rodata	0000000c p05.2678
00000000 l    df *ABS*	00000000 putc.c
00000000 l    df *ABS*	00000000 s_fpclassify.c
00000000 l    df *ABS*	00000000 sbrkr.c
00000000 l    df *ABS*	00000000 stdio.c
00000000 l    df *ABS*	00000000 strcmp.c
00000000 l    df *ABS*	00000000 strlen.c
00000000 l    df *ABS*	00000000 vfprintf.c
0004a208 l     F .text	000000fc __sprint_r.part.0
00052670 l     O .rodata	00000010 blanks.4125
00052660 l     O .rodata	00000010 zeroes.4126
00000000 l    df *ABS*	00000000 wbuf.c
00000000 l    df *ABS*	00000000 writer.c
00000000 l    df *ABS*	00000000 closer.c
00000000 l    df *ABS*	00000000 mallocr.c
00000000 l    df *ABS*	00000000 fclose.c
00000000 l    df *ABS*	00000000 fputwc.c
00000000 l    df *ABS*	00000000 fstatr.c
00000000 l    df *ABS*	00000000 fvwrite.c
00000000 l    df *ABS*	00000000 int_errno.c
00000000 l    df *ABS*	00000000 isattyr.c
00000000 l    df *ABS*	00000000 lseekr.c
00000000 l    df *ABS*	00000000 memmove.c
00000000 l    df *ABS*	00000000 readr.c
00000000 l    df *ABS*	00000000 mallocr.c
00000000 l    df *ABS*	00000000 wcrtomb.c
00000000 l    df *ABS*	00000000 wctomb_r.c
00000000 l    df *ABS*	00000000 libgcc2.c
00000000 l    df *ABS*	00000000 libgcc2.c
00000000 l    df *ABS*	00000000 lib2-divmod.c
0004d6c4 l     F .text	0000006c udivmodsi4
00000000 l    df *ABS*	00000000 adddf3.c
00000000 l    df *ABS*	00000000 divdf3.c
00000000 l    df *ABS*	00000000 eqdf2.c
00000000 l    df *ABS*	00000000 gedf2.c
00000000 l    df *ABS*	00000000 ledf2.c
00000000 l    df *ABS*	00000000 muldf3.c
00000000 l    df *ABS*	00000000 subdf3.c
00000000 l    df *ABS*	00000000 fixdfsi.c
00000000 l    df *ABS*	00000000 floatsidf.c
00000000 l    df *ABS*	00000000 floatunsidf.c
00000000 l    df *ABS*	00000000 libgcc2.c
00000000 l    df *ABS*	00000000 libgcc2.c
00000000 l    df *ABS*	00000000 alt_close.c
0004fdf0 l     F .text	00000050 alt_get_errno
00000000 l    df *ABS*	00000000 alt_dev.c
0004ff10 l     F .text	0000002c alt_dev_null_write
00000000 l    df *ABS*	00000000 alt_errno.c
00000000 l    df *ABS*	00000000 alt_fstat.c
0004ff3c l     F .text	00000050 alt_get_errno
00000000 l    df *ABS*	00000000 alt_iic.c
00000000 l    df *ABS*	00000000 alt_irq_vars.c
00000000 l    df *ABS*	00000000 alt_isatty.c
0005021c l     F .text	00000050 alt_get_errno
00000000 l    df *ABS*	00000000 alt_load.c
00050310 l     F .text	00000064 alt_load_section
00000000 l    df *ABS*	00000000 alt_lseek.c
000503f4 l     F .text	00000050 alt_get_errno
00000000 l    df *ABS*	00000000 alt_main.c
00000000 l    df *ABS*	00000000 alt_malloc_lock.c
00000000 l    df *ABS*	00000000 alt_read.c
000505d0 l     F .text	00000050 alt_get_errno
00000000 l    df *ABS*	00000000 alt_release_fd.c
00000000 l    df *ABS*	00000000 alt_sbrk.c
00054298 l     O .rwdata	00000004 heap_end
00000000 l    df *ABS*	00000000 alt_write.c
0005082c l     F .text	00000050 alt_get_errno
00000000 l    df *ABS*	00000000 alt_sys_init.c
00050974 l     F .text	00000038 alt_dev_reg
000531f8 l     O .rwdata	00001060 jtag_uart
00000000 l    df *ABS*	00000000 altera_avalon_jtag_uart_fd.c
00000000 l    df *ABS*	00000000 altera_avalon_jtag_uart_init.c
00050c68 l     F .text	00000204 altera_avalon_jtag_uart_irq
00050e6c l     F .text	000000a8 altera_avalon_jtag_uart_timeout
00000000 l    df *ABS*	00000000 altera_avalon_jtag_uart_ioctl.c
00000000 l    df *ABS*	00000000 altera_avalon_jtag_uart_read.c
00000000 l    df *ABS*	00000000 altera_avalon_jtag_uart_write.c
00000000 l    df *ABS*	00000000 altera_avalon_timer_sc.c
0005148c l     F .text	00000074 alt_avalon_timer_sc_irq
00000000 l    df *ABS*	00000000 alt_alarm_start.c
00000000 l    df *ABS*	00000000 alt_dcache_flush_all.c
00000000 l    df *ABS*	00000000 alt_dev_llist_insert.c
0005170c l     F .text	00000050 alt_get_errno
00000000 l    df *ABS*	00000000 alt_do_ctors.c
00000000 l    df *ABS*	00000000 alt_do_dtors.c
00000000 l    df *ABS*	00000000 alt_icache_flush_all.c
00000000 l    df *ABS*	00000000 alt_io_redirect.c
000518e8 l     F .text	000000c0 alt_open_fd
00000000 l    df *ABS*	00000000 alt_open.c
00051a20 l     F .text	00000050 alt_get_errno
00051a70 l     F .text	000000cc alt_file_locked
00000000 l    df *ABS*	00000000 alt_tick.c
00000000 l    df *ABS*	00000000 altera_nios2_qsys_irq.c
00000000 l    df *ABS*	00000000 alt_find_dev.c
00000000 l    df *ABS*	00000000 alt_find_file.c
00000000 l    df *ABS*	00000000 alt_get_fd.c
00000000 l    df *ABS*	00000000 alt_icache_flush.c
00000000 l    df *ABS*	00000000 atexit.c
00000000 l    df *ABS*	00000000 exit.c
00000000 l    df *ABS*	00000000 __atexit.c
00000000 l    df *ABS*	00000000 __call_atexit.c
00000000 l    df *ABS*	00000000 alt_exit.c
00043bb4 g     F .text	00000018 putchar
00049be8 g     F .text	00000074 _mprec_log10
00049cd4 g     F .text	0000008c __any_on
0004c16c g     F .text	00000054 _isatty_r
00052548 g     O .rodata	00000028 __mprec_tinytens
00050518 g     F .text	00000078 alt_main
0005fb54 g     O .bss	00000100 alt_irq
0004c1c0 g     F .text	0000005c _lseek_r
000400c4 g       .exceptions	00000000 restore_sp_from_pxCurrentTCB
00040cb4 g     F .text	00000020 xPortGetFreeHeapSize
000542a4 g       *ABS*	00000000 __flash_rwdata_start
0004e958 g     F .text	00000084 .hidden __eqdf2
00055de8 g     O .bss	00000004 ulRegTest1Counter
0005fc54 g       *ABS*	00000000 __alt_heap_start
00041e28 g     F .text	00000058 uxTaskPriorityGet
00043b70 g     F .text	0000003c printf
0004c974 g     F .text	0000009c _wcrtomb_r
0004a068 g     F .text	0000005c __sseek
00047cd8 g     F .text	00000010 __sinit
0004b69c g     F .text	00000154 __swbuf_r
000482ac g     F .text	0000007c _setlocale_r
00047b44 g     F .text	00000064 __sfmoreglue
000505b0 g     F .text	00000020 __malloc_unlock
0004c21c g     F .text	0000015c memmove
00043178 g     F .text	0000004c vTaskEnterCritical
00047cc0 g     F .text	00000018 _cleanup
000411f4 g     F .text	000000c4 xQueueGenericSendFromISR
00048dd4 g     F .text	000000a8 _Balloc
0004e9dc g     F .text	000000e0 .hidden __gtdf2
00000000  w      *UND*	00000000 __errno
00040000 g     F .entry	0000001c __reset
00040ef8 g     F .text	00000088 xQueueGiveMutexRecursive
00055db0 g     O .bss	00000004 pxCurrentTCB
00040020 g       *ABS*	00000000 __flash_exceptions_start
0004bc70 g     F .text	00000058 _fstat_r
00055e08 g     O .bss	00000004 errno
00049fe4 g     F .text	00000008 __seofread
00055e14 g     O .bss	00000004 alt_argv
0005c258 g       *ABS*	00000000 _gp
00041e80 g     F .text	00000184 vTaskPrioritySet
00053078 g     O .rwdata	00000180 alt_fd_list
00040624 g     F .text	00000038 xPortStartScheduler
00043bac g     F .text	00000008 _putchar_r
00042378 g     F .text	00000044 vTaskEndScheduler
00051e50 g     F .text	00000090 alt_find_dev
000438e8 g     F .text	00000138 memcpy
00042848 g     F .text	00000090 vTaskPlaceOnEventList
00041a30 g     F .text	000001d8 xTaskGenericCreate
000420d8 g     F .text	0000006c xTaskIsTaskSuspended
00047998 g     F .text	0000000c _cleanup_r
0004fc18 g     F .text	000000d0 .hidden __floatsidf
000519a8 g     F .text	00000078 alt_io_redirect
00040cf0 g     F .text	00000144 xQueueCreate
0004eabc g     F .text	000000e0 .hidden __ltdf2
0005245c g       *ABS*	00000000 __DTOR_END__
00040bec g     F .text	000000c8 vPortFree
00049ec8 g     F .text	00000074 __fpclassifyd
00049b44 g     F .text	000000a4 __ratio
0004b678 g     F .text	00000024 __vfiprintf_internal
00051068 g     F .text	0000020c altera_avalon_jtag_uart_read
00000000  w      *UND*	00000000 malloc
00043b44 g     F .text	0000002c _printf_r
0004d7e0 g     F .text	00000008 .hidden __udivsi3
0005026c g     F .text	000000a4 isatty
00052598 g     O .rodata	000000c8 __mprec_tens
00042ee8 g     F .text	00000060 uxTaskGetStackHighWaterMark
00048328 g     F .text	0000000c __locale_charset
00040324 g     F .text	00000098 vListInsertEnd
000520a8 g     F .text	0000008c alt_icache_flush
00055e04 g     O .bss	00000004 __malloc_top_pad
00040490 g     F .text	00000090 vListRemove
000435e8 g     F .text	00000050 Tarea_LED0
0005426c g     O .rwdata	00000004 __mb_cur_max
00048358 g     F .text	0000000c _localeconv_r
0004bcc8 g     F .text	000004a4 __sfvwrite_r
000491d4 g     F .text	0000003c __i2b
00049f3c g     F .text	00000054 _sbrk_r
00042210 g     F .text	000000e0 xTaskResumeFromISR
0004c378 g     F .text	0000005c _read_r
000402fc g     F .text	00000028 vListInitialiseItem
0005428c g     O .rwdata	00000004 alt_max_fd
00040718 g     F .text	00000040 vPortSysTickHandler
0004b980 g     F .text	00000100 _fclose_r
00047958 g     F .text	00000030 fflush
00055e00 g     O .bss	00000004 __malloc_max_sbrked_mem
00040758 g     F .text	000001a0 alt_irq_register
0004d7f0 g     F .text	0000089c .hidden __adddf3
000498ec g     F .text	0000011c __b2d
0004d134 g     F .text	00000590 .hidden __umoddi3
00050444 g     F .text	000000d4 lseek
00054264 g     O .rwdata	00000004 _global_impure_ptr
0004c3d4 g     F .text	000005a0 _realloc_r
0005fc54 g       *ABS*	00000000 __bss_end
000408f8 g     F .text	000000e0 alt_iic_isr_register
00051d2c g     F .text	00000104 alt_tick
0004cb74 g     F .text	000005c0 .hidden __udivdi3
0004ba94 g     F .text	00000184 _fputwc_r
00052570 g     O .rodata	00000028 __mprec_bigtens
00048fb8 g     F .text	00000104 __s2b
0004fce8 g     F .text	000000a4 .hidden __floatunsidf
00049694 g     F .text	00000060 __mcmp
000409d8 g     F .text	00000214 pvPortMalloc
00047cf8 g     F .text	00000018 __fp_lock_all
000501d0 g     F .text	0000004c alt_ic_irq_enabled
00041600 g     F .text	00000040 vQueueDelete
0004065c g     F .text	0000001c vPortEndScheduler
00040298 g     F .text	00000064 vListInitialise
00051c94 g     F .text	00000098 alt_alarm_stop
00055e0c g     O .bss	00000004 alt_irq_active
0004017c g     F .exceptions	000000d0 alt_irq_handler
00053050 g     O .rwdata	00000028 alt_dev_null
00042520 g     F .text	00000038 xTaskGetTickCount
00041074 g     F .text	00000180 xQueueGenericSend
000516c8 g     F .text	00000044 alt_dcache_flush_all
000490bc g     F .text	00000068 __hi0bits
0004fb90 g     F .text	00000088 .hidden __fixdfsi
000542a4 g       *ABS*	00000000 __ram_rwdata_end
00054284 g     O .rwdata	00000008 alt_dev_list
0005087c g     F .text	000000f8 write
00049d60 g     F .text	000000a0 _putc_r
000428d8 g     F .text	000000ec xTaskRemoveFromEventList
000527ac g       *ABS*	00000000 __ram_rodata_end
0004ff8c g     F .text	000000b0 fstat
0004eabc g     F .text	000000e0 .hidden __ledf2
0004940c g     F .text	00000140 __pow5mult
0004a31c g     F .text	0000135c ___vfiprintf_internal_r
00055df8 g     O .bss	00000004 __nlocale_changed
0004d7e8 g     F .text	00000008 .hidden __umodsi3
00055dec g     O .bss	00000004 ulRegTest2Counter
0005fc54 g       *ABS*	00000000 end
00041c08 g     F .text	000000c8 vTaskDelete
00050ba4 g     F .text	000000c4 altera_avalon_jtag_uart_init
0005245c g       *ABS*	00000000 __CTOR_LIST__
0007a980 g       *ABS*	00000000 __alt_stack_pointer
00051500 g     F .text	00000088 alt_avalon_timer_sc_init
0004fd8c g     F .text	00000064 .hidden __clzsi2
00051274 g     F .text	00000218 altera_avalon_jtag_uart_write
00047ce8 g     F .text	00000004 __sfp_lock_acquire
00048cec g     F .text	000000e8 memchr
00043cb8 g     F .text	00001ffc ___vfprintf_internal_r
000429fc g     F .text	000000d4 xTaskCheckForTimeOut
00047e4c g     F .text	000002f0 _free_r
00048334 g     F .text	00000010 __locale_mb_cur_max
00052294 g     F .text	00000194 __call_exitprocs
00055df4 g     O .bss	00000004 __mlocale_changed
00054270 g     O .rwdata	00000004 __malloc_sbrk_base
0004024c g     F .text	0000004c _start
00055e1c g     O .bss	00000004 _alt_tick_rate
000423bc g     F .text	00000028 vTaskSuspendAll
00042558 g     F .text	0000002c xTaskGetTickCountFromISR
0004954c g     F .text	00000148 __lshift
00055e20 g     O .bss	00000004 _alt_nticks
00050620 g     F .text	000000fc read
000509e0 g     F .text	00000060 alt_sys_init
00043638 g     F .text	00000050 Tarea_LED1
00052180 g     F .text	00000114 __register_exitproc
000430ac g     F .text	000000cc vTaskPriorityDisinherit
00049210 g     F .text	000001fc __multiply
00050f14 g     F .text	00000068 altera_avalon_jtag_uart_close
00042fb0 g     F .text	000000fc vTaskPriorityInherit
000527ac g       *ABS*	00000000 __ram_rwdata_start
0005245c g       *ABS*	00000000 __ram_rodata_start
00043bcc g     F .text	000000ec strncpy
0005fb2c g     O .bss	00000028 __malloc_current_mallinfo
00042144 g     F .text	000000cc vTaskResume
00049a08 g     F .text	0000013c __d2b
0004271c g     F .text	0000012c vTaskSwitchContext
00050a40 g     F .text	00000060 altera_avalon_jtag_uart_read_fd
00051ff4 g     F .text	000000b4 alt_get_fd
0004b868 g     F .text	00000054 _close_r
0004386c g     F .text	0000007c memcmp
00050b00 g     F .text	00000050 altera_avalon_jtag_uart_close_fd
0005fc54 g       *ABS*	00000000 __alt_stack_base
00050b50 g     F .text	00000054 altera_avalon_jtag_uart_ioctl_fd
00043710 g     F .text	00000058 Tarea_LED7
00045cd8 g     F .text	00000130 __swsetup_r
00043220 g     F .text	00000014 vApplicationStackOverflowHook
00042004 g     F .text	000000d4 vTaskSuspend
0004e08c g     F .text	000008cc .hidden __divdf3
00047ba8 g     F .text	00000118 __sfp
00049c5c g     F .text	00000078 __copybits
00042584 g     F .text	00000020 uxTaskGetNumberOfTasks
00000000         *UND*	00000000 save_context
00052c48 g     O .rwdata	00000408 __malloc_av_
00047cf4 g     F .text	00000004 __sinit_lock_release
000425a4 g     F .text	00000178 vTaskIncrementTick
0004eb9c g     F .text	00000724 .hidden __muldf3
00049f90 g     F .text	00000054 __sread
00051ee0 g     F .text	00000114 alt_find_file
0005175c g     F .text	000000a4 alt_dev_llist_insert
00050590 g     F .text	00000020 __malloc_lock
0005077c g     F .text	000000b0 sbrk
00040f80 g     F .text	000000a0 xQueueTakeMutexRecursive
00047730 g     F .text	00000228 _fflush_r
0004b8bc g     F .text	000000c4 _calloc_r
00055d9c g       *ABS*	00000000 __bss_start
00043a20 g     F .text	00000124 memset
00043790 g     F .text	000000dc main
00055e18 g     O .bss	00000004 alt_envp
00055dfc g     O .bss	00000004 __malloc_max_total_mem
00050aa0 g     F .text	00000060 altera_avalon_jtag_uart_write_fd
0004b7f0 g     F .text	0000001c __swbuf
000403bc g     F .text	000000d4 vListInsert
0004a0c4 g     F .text	00000008 __sclose
0007a980 g       *ABS*	00000000 __alt_heap_limit
0004ba80 g     F .text	00000014 fclose
00046008 g     F .text	00001728 _dtoa_r
00048544 g     F .text	000007a8 _malloc_r
0004cae8 g     F .text	00000030 __ascii_wctomb
00054290 g     O .rwdata	00000004 alt_errno
00041cd0 g     F .text	000000e4 vTaskDelayUntil
0004813c g     F .text	000000b8 _fwalk
00043768 g     F .text	00000028 SetupHardware
000414c8 g     F .text	000000c8 xQueueReceiveFromISR
00042f88 g     F .text	00000028 xTaskGetCurrentTaskHandle
00049e00 g     F .text	000000c8 putc
0004d730 g     F .text	00000054 .hidden __divsi3
00047d28 g     F .text	00000124 _malloc_trim_r
0005245c g       *ABS*	00000000 __CTOR_END__
0004a0cc g     F .text	000000a4 strcmp
00041020 g     F .text	00000054 xQueueCreateCountingSemaphore
0005245c g       *ABS*	00000000 __flash_rodata_start
0005245c g       *ABS*	00000000 __DTOR_LIST__
0004e958 g     F .text	00000084 .hidden __nedf2
000509ac g     F .text	00000034 alt_irq_init
0005071c g     F .text	00000060 alt_release_fd
000423e4 g     F .text	0000013c xTaskResumeAll
00052680 g     O .rodata	00000100 .hidden __clz_tab
000422f0 g     F .text	00000088 vTaskStartScheduler
00055df0 g     O .bss	00000004 _PathLocale
00052134 g     F .text	00000014 atexit
0004b80c g     F .text	0000005c _write_r
00040520 g     F .text	00000024 prvReadGp
00048364 g     F .text	0000001c setlocale
000419f0 g     F .text	00000040 xQueueIsQueueFullFromISR
00054268 g     O .rwdata	00000004 _impure_ptr
00055e10 g     O .bss	00000004 alt_argc
0005185c g     F .text	0000005c _do_dtors
00048350 g     F .text	00000008 __locale_cjk_lang
0004988c g     F .text	00000060 __ulp
00047d10 g     F .text	00000018 __fp_unlock_all
00042ad0 g     F .text	00000024 vTaskMissedYield
0005427c g     O .rwdata	00000008 alt_fs_list
00041590 g     F .text	00000040 uxQueueMessagesWaiting
000412b8 g     F .text	00000210 xQueueGenericReceive
00040020 g       *ABS*	00000000 __ram_exceptions_start
00048380 g     F .text	0000000c localeconv
00040000 g       *ABS*	00000000 __alt_mem_onchip_memory2
0005003c g     F .text	00000050 alt_ic_isr_register
00043234 g     F .text	0000001c _general_exception_handler
000542a4 g       *ABS*	00000000 _edata
0005fc54 g       *ABS*	00000000 _end
0004024c g       *ABS*	00000000 __ram_exceptions_end
00050f7c g     F .text	000000ec altera_avalon_jtag_uart_ioctl
00040cd4 g     F .text	0000001c vPortInitialiseBlocks
0005012c g     F .text	000000a4 alt_ic_irq_disable
00049fec g     F .text	0000007c __swrite
00054274 g     O .rwdata	00000004 __malloc_trim_threshold
00051e30 g     F .text	00000020 altera_nios2_qsys_irq_init
00048344 g     F .text	0000000c __locale_msgcharset
00052148 g     F .text	00000038 exit
000481f4 g     F .text	000000b8 _fwalk_reent
000496f4 g     F .text	00000198 __mdiff
0004d784 g     F .text	0000005c .hidden __modsi3
00041db4 g     F .text	00000074 vTaskDelay
0007a980 g       *ABS*	00000000 __alt_data_end
00047cec g     F .text	00000004 __sfp_lock_release
00052428 g     F .text	00000034 _exit
00051588 g     F .text	00000140 alt_alarm_start
0004838c g     F .text	000001b8 __smakebuf_r
000431c4 g     F .text	0000005c vTaskExitCritical
0004a170 g     F .text	00000098 strlen
00040544 g     F .text	000000e0 pxPortInitialiseStack
00051b3c g     F .text	00000158 open
0004e9dc g     F .text	000000e0 .hidden __gedf2
00054278 g     O .rwdata	00000004 __wctomb
00043688 g     F .text	00000088 Tarea_LED2_6
0004a304 g     F .text	00000018 __sprint_r
000518b8 g     F .text	00000030 alt_icache_flush_all
000429c4 g     F .text	00000038 vTaskSetTimeOutState
00054294 g     O .rwdata	00000004 alt_priority_mask
0005008c g     F .text	000000a0 alt_ic_irq_enable
00045cb4 g     F .text	00000024 __vfprintf_internal
0004cb18 g     F .text	0000005c _wctomb_r
000415d0 g     F .text	00000030 uxQueueMessagesWaitingFromISR
00041968 g     F .text	00000038 xQueueIsQueueEmptyFromISR
0004f2c0 g     F .text	000008d0 .hidden __subdf3
00049124 g     F .text	000000b0 __lo0bits
0005429c g     O .rwdata	00000008 alt_alarm_list
00051800 g     F .text	0000005c _do_ctors
0004ca10 g     F .text	000000d8 wcrtomb
00040e34 g     F .text	000000c4 xQueueCreateMutex
0004fe40 g     F .text	000000d0 close
00050374 g     F .text	00000080 alt_load
0004bc18 g     F .text	00000058 fputwc
00000000  w      *UND*	00000000 free
00047cf0 g     F .text	00000004 __sinit_lock_acquire
00048ea4 g     F .text	00000114 __multadd
00048e7c g     F .text	00000028 _Bfree



Disassembly of section .entry:

00040000 <__reset>:
#if NIOS2_ICACHE_SIZE > 0 && defined(ALT_ALLOW_CODE_AT_RESET) && !defined(ALT_SIM_OPTIMIZE)
    /* Assume the instruction cache size is always a power of two. */
#if NIOS2_ICACHE_SIZE > 0x8000
    movhi r2, %hi(NIOS2_ICACHE_SIZE)
#else
    movui r2, NIOS2_ICACHE_SIZE
   40000:	00840014 	movui	r2,4096
#endif

0:
    initi r2
   40004:	1001483a 	initi	r2
    addi r2, r2, -NIOS2_ICACHE_LINE_SIZE
   40008:	10bff804 	addi	r2,r2,-32
    bgt r2, zero, 0b
   4000c:	00bffd16 	blt	zero,r2,40004 <__alt_data_end+0xfffc5684>
 * Jump to the _start entry point in the .text section if reset code
 * is allowed or if optimizing for RTL simulation.
 */
#if defined(ALT_ALLOW_CODE_AT_RESET) || defined(ALT_SIM_OPTIMIZE)
    /* Jump to the _start entry point in the .text section. */
    movhi r1, %hi(_start)
   40010:	00400134 	movhi	at,4
    ori r1, r1, %lo(_start)
   40014:	08409314 	ori	at,at,588
    jmp r1
   40018:	0800683a 	jmp	at
   4001c:	00000000 	call	0 <__alt_mem_onchip_memory2-0x40000>

Disassembly of section .exceptions:

00040020 <save_context>:
# Entry point for exceptions.
.section .exceptions.entry, "xa"		

# Save the entire context of a task.
save_context:
	addi	ea, ea, -4			# Point to the next instruction.
   40020:	ef7fff04 	addi	ea,ea,-4
	addi	sp,	sp, -116		# Create space on the stack.
   40024:	deffe304 	addi	sp,sp,-116
	stw		ra, 0(sp)
   40028:	dfc00015 	stw	ra,0(sp)
								# Leave a gap for muldiv 0
	stw		at, 8(sp)		 
   4002c:	d8400215 	stw	at,8(sp)
	stw		r2, 12(sp)
   40030:	d8800315 	stw	r2,12(sp)
	stw		r3, 16(sp)
   40034:	d8c00415 	stw	r3,16(sp)
	stw		r4, 20(sp)
   40038:	d9000515 	stw	r4,20(sp)
	stw		r5, 24(sp) 
   4003c:	d9400615 	stw	r5,24(sp)
	stw		r6, 28(sp) 
   40040:	d9800715 	stw	r6,28(sp)
	stw		r7, 32(sp) 
   40044:	d9c00815 	stw	r7,32(sp)
	stw		r8, 36(sp) 
   40048:	da000915 	stw	r8,36(sp)
	stw		r9, 40(sp) 
   4004c:	da400a15 	stw	r9,40(sp)
	stw		r10, 44(sp)
   40050:	da800b15 	stw	r10,44(sp)
	stw		r11, 48(sp)
   40054:	dac00c15 	stw	r11,48(sp)
	stw		r12, 52(sp)
   40058:	db000d15 	stw	r12,52(sp)
	stw		r13, 56(sp)
   4005c:	db400e15 	stw	r13,56(sp)
	stw		r14, 60(sp)
   40060:	db800f15 	stw	r14,60(sp)
	stw		r15, 64(sp)
   40064:	dbc01015 	stw	r15,64(sp)
	rdctl	r5, estatus 		# Save the eStatus
   40068:	000b307a 	rdctl	r5,estatus
	stw		r5, 68(sp)
   4006c:	d9401115 	stw	r5,68(sp)
	stw		ea, 72(sp)			# Save the PC
   40070:	df401215 	stw	ea,72(sp)
	stw		r16, 76(sp)			# Save the remaining registers
   40074:	dc001315 	stw	r16,76(sp)
	stw		r17, 80(sp)
   40078:	dc401415 	stw	r17,80(sp)
	stw		r18, 84(sp)
   4007c:	dc801515 	stw	r18,84(sp)
	stw		r19, 88(sp)
   40080:	dcc01615 	stw	r19,88(sp)
	stw		r20, 92(sp)
   40084:	dd001715 	stw	r20,92(sp)
	stw		r21, 96(sp)
   40088:	dd401815 	stw	r21,96(sp)
	stw		r22, 100(sp)
   4008c:	dd801915 	stw	r22,100(sp)
	stw		r23, 104(sp)
   40090:	ddc01a15 	stw	r23,104(sp)
	stw		gp, 108(sp)
   40094:	de801b15 	stw	gp,108(sp)
	stw		fp, 112(sp)
   40098:	df001c15 	stw	fp,112(sp)

0004009c <save_sp_to_pxCurrentTCB>:
   4009c:	06000174 	movhi	et,5

save_sp_to_pxCurrentTCB:
	movia	et, pxCurrentTCB	# Load the address of the pxCurrentTCB pointer
   400a0:	c6176c04 	addi	et,et,23984
	ldw		et, (et)			# Load the value of the pxCurrentTCB pointer
   400a4:	c6000017 	ldw	et,0(et)
	stw		sp, (et)			# Store the stack pointer into the top of the TCB
   400a8:	c6c00015 	stw	sp,0(et)

000400ac <hw_irq_test>:
hw_irq_test:
	/*
     * Test to see if the exception was a software exception or caused 
     * by an external interrupt, and vector accordingly.
     */
    rdctl	r4, ipending		# Load the Pending Interrupts indication
   400ac:	0009313a 	rdctl	r4,ipending
	rdctl	r5, estatus 		# Load the eStatus (enabled interrupts).
   400b0:	000b307a 	rdctl	r5,estatus
    andi	r2, r5, 1			# Are interrupts enabled globally.
   400b4:	2880004c 	andi	r2,r5,1
    beq		r2, zero, soft_exceptions		# Interrupts are not enabled.
   400b8:	10002526 	beq	r2,zero,40150 <soft_exceptions>
    beq		r4, zero, soft_exceptions		# There are no interrupts triggered.
   400bc:	20002426 	beq	r4,zero,40150 <soft_exceptions>

000400c0 <hw_irq_handler>:

	.section .exceptions.irqhandler, "xa"
hw_irq_handler:
	call	alt_irq_handler					# Call the alt_irq_handler to deliver to the registered interrupt handler.
   400c0:	004017c0 	call	4017c <alt_irq_handler>

000400c4 <restore_sp_from_pxCurrentTCB>:
   400c4:	06000174 	movhi	et,5

    .section .exceptions.irqreturn, "xa"
restore_sp_from_pxCurrentTCB:
	movia	et, pxCurrentTCB		# Load the address of the pxCurrentTCB pointer
   400c8:	c6176c04 	addi	et,et,23984
	ldw		et, (et)				# Load the value of the pxCurrentTCB pointer
   400cc:	c6000017 	ldw	et,0(et)
	ldw		sp, (et)				# Load the stack pointer with the top value of the TCB
   400d0:	c6c00017 	ldw	sp,0(et)

000400d4 <restore_context>:

restore_context:
	ldw		ra, 0(sp)		# Restore the registers.
   400d4:	dfc00017 	ldw	ra,0(sp)
							# Leave a gap for muldiv 0.
	ldw		at, 8(sp)
   400d8:	d8400217 	ldw	at,8(sp)
	ldw		r2, 12(sp)
   400dc:	d8800317 	ldw	r2,12(sp)
	ldw		r3, 16(sp)
   400e0:	d8c00417 	ldw	r3,16(sp)
	ldw		r4, 20(sp)
   400e4:	d9000517 	ldw	r4,20(sp)
	ldw		r5, 24(sp) 
   400e8:	d9400617 	ldw	r5,24(sp)
	ldw		r6, 28(sp) 
   400ec:	d9800717 	ldw	r6,28(sp)
	ldw		r7, 32(sp) 
   400f0:	d9c00817 	ldw	r7,32(sp)
	ldw		r8, 36(sp) 
   400f4:	da000917 	ldw	r8,36(sp)
	ldw		r9, 40(sp) 
   400f8:	da400a17 	ldw	r9,40(sp)
	ldw		r10, 44(sp)
   400fc:	da800b17 	ldw	r10,44(sp)
	ldw		r11, 48(sp)
   40100:	dac00c17 	ldw	r11,48(sp)
	ldw		r12, 52(sp)
   40104:	db000d17 	ldw	r12,52(sp)
	ldw		r13, 56(sp)
   40108:	db400e17 	ldw	r13,56(sp)
	ldw		r14, 60(sp)
   4010c:	db800f17 	ldw	r14,60(sp)
	ldw		r15, 64(sp)
   40110:	dbc01017 	ldw	r15,64(sp)
	ldw		et, 68(sp)		# Load the eStatus
   40114:	de001117 	ldw	et,68(sp)
	wrctl	estatus, et 	# Write the eStatus
   40118:	c001707a 	wrctl	estatus,et
	ldw		ea, 72(sp)		# Load the Program Counter
   4011c:	df401217 	ldw	ea,72(sp)
	ldw		r16, 76(sp)
   40120:	dc001317 	ldw	r16,76(sp)
	ldw		r17, 80(sp)
   40124:	dc401417 	ldw	r17,80(sp)
	ldw		r18, 84(sp)
   40128:	dc801517 	ldw	r18,84(sp)
	ldw		r19, 88(sp)
   4012c:	dcc01617 	ldw	r19,88(sp)
	ldw		r20, 92(sp)
   40130:	dd001717 	ldw	r20,92(sp)
	ldw		r21, 96(sp)
   40134:	dd401817 	ldw	r21,96(sp)
	ldw		r22, 100(sp)
   40138:	dd801917 	ldw	r22,100(sp)
	ldw		r23, 104(sp)
   4013c:	ddc01a17 	ldw	r23,104(sp)
	ldw		gp, 108(sp)
   40140:	de801b17 	ldw	gp,108(sp)
	ldw		fp, 112(sp)
   40144:	df001c17 	ldw	fp,112(sp)
	addi	sp,	sp, 116		# Release stack space
   40148:	dec01d04 	addi	sp,sp,116

    eret					# Return to address ea, loading eStatus into Status.
   4014c:	ef80083a 	eret

00040150 <soft_exceptions>:
   
	.section .exceptions.soft, "xa"
soft_exceptions:
	ldw		et, 0(ea)				# Load the instruction where the interrupt occured.
   40150:	ee000017 	ldw	et,0(ea)
	movhi	at, %hi(0x003B683A)		# Load the registers with the trap instruction code
   40154:	00400ef4 	movhi	at,59
	ori		at, at, %lo(0x003B683A)
   40158:	085a0e94 	ori	at,at,26682
   	cmpne	et, et, at				# Compare the trap instruction code to the last excuted instruction
   4015c:	c070c03a 	cmpne	et,et,at
  	beq		et, r0, call_scheduler	# its a trap so switchcontext
   40160:	c0000226 	beq	et,zero,4016c <call_scheduler>
  	break							# This is an un-implemented instruction or muldiv problem.
   40164:	003da03a 	break	0
  	br		restore_context			# its something else
   40168:	003fda06 	br	400d4 <__alt_data_end+0xfffc5754>

0004016c <call_scheduler>:

call_scheduler:
	addi	ea, ea, 4						# A trap was called, increment the program counter so it is not called again.
   4016c:	ef400104 	addi	ea,ea,4
	stw		ea, 72(sp)						# Save the new program counter to the context.
   40170:	df401215 	stw	ea,72(sp)
	call	vTaskSwitchContext				# Pick the next context.
   40174:	004271c0 	call	4271c <vTaskSwitchContext>
	br		restore_sp_from_pxCurrentTCB	# Switch in the task context and restore. 
   40178:	003fd206 	br	400c4 <__alt_data_end+0xfffc5744>

0004017c <alt_irq_handler>:
 * instruction is present if the macro ALT_CI_INTERRUPT_VECTOR defined.
 */

void alt_irq_handler (void) __attribute__ ((section (".exceptions")));
void alt_irq_handler (void)
{
   4017c:	defff904 	addi	sp,sp,-28
   40180:	dfc00615 	stw	ra,24(sp)
   40184:	df000515 	stw	fp,20(sp)
   40188:	df000504 	addi	fp,sp,20
  
  /*
   * Notify the operating system that we are at interrupt level.
   */ 
  
  ALT_OS_INT_ENTER();
   4018c:	0001883a 	nop
#ifndef NIOS2_EIC_PRESENT
static ALT_INLINE alt_u32 ALT_ALWAYS_INLINE alt_irq_pending (void)
{
  alt_u32 active;

  NIOS2_READ_IPENDING (active);
   40190:	0005313a 	rdctl	r2,ipending
   40194:	e0bffe15 	stw	r2,-8(fp)

  return active;
   40198:	e0bffe17 	ldw	r2,-8(fp)
   * Consider the case where the high priority interupt is asserted during
   * the interrupt entry sequence for a lower priority interrupt to see why
   * this is the case.
   */

  active = alt_irq_pending ();
   4019c:	e0bffb15 	stw	r2,-20(fp)

  do
  {
    i = 0;
   401a0:	e03ffd15 	stw	zero,-12(fp)
    mask = 1;
   401a4:	00800044 	movi	r2,1
   401a8:	e0bffc15 	stw	r2,-16(fp)
     * called to clear the interrupt condition.
     */

    do
    {
      if (active & mask)
   401ac:	e0fffb17 	ldw	r3,-20(fp)
   401b0:	e0bffc17 	ldw	r2,-16(fp)
   401b4:	1884703a 	and	r2,r3,r2
   401b8:	10001426 	beq	r2,zero,4020c <alt_irq_handler+0x90>
      { 
#ifdef ALT_ENHANCED_INTERRUPT_API_PRESENT
        alt_irq[i].handler(alt_irq[i].context); 
   401bc:	008001b4 	movhi	r2,6
   401c0:	10bed504 	addi	r2,r2,-1196
   401c4:	e0fffd17 	ldw	r3,-12(fp)
   401c8:	180690fa 	slli	r3,r3,3
   401cc:	10c5883a 	add	r2,r2,r3
   401d0:	10c00017 	ldw	r3,0(r2)
   401d4:	008001b4 	movhi	r2,6
   401d8:	10bed504 	addi	r2,r2,-1196
   401dc:	e13ffd17 	ldw	r4,-12(fp)
   401e0:	200890fa 	slli	r4,r4,3
   401e4:	1105883a 	add	r2,r2,r4
   401e8:	10800104 	addi	r2,r2,4
   401ec:	10800017 	ldw	r2,0(r2)
   401f0:	1009883a 	mov	r4,r2
   401f4:	183ee83a 	callr	r3
#else
        alt_irq[i].handler(alt_irq[i].context, i); 
#endif
        break;
   401f8:	0001883a 	nop
#ifndef NIOS2_EIC_PRESENT
static ALT_INLINE alt_u32 ALT_ALWAYS_INLINE alt_irq_pending (void)
{
  alt_u32 active;

  NIOS2_READ_IPENDING (active);
   401fc:	0005313a 	rdctl	r2,ipending
   40200:	e0bfff15 	stw	r2,-4(fp)

  return active;
   40204:	e0bfff17 	ldw	r2,-4(fp)
   40208:	00000706 	br	40228 <alt_irq_handler+0xac>
      }
      mask <<= 1;
   4020c:	e0bffc17 	ldw	r2,-16(fp)
   40210:	1085883a 	add	r2,r2,r2
   40214:	e0bffc15 	stw	r2,-16(fp)
      i++;
   40218:	e0bffd17 	ldw	r2,-12(fp)
   4021c:	10800044 	addi	r2,r2,1
   40220:	e0bffd15 	stw	r2,-12(fp)

    } while (1);
   40224:	003fe106 	br	401ac <__alt_data_end+0xfffc582c>

    active = alt_irq_pending ();
   40228:	e0bffb15 	stw	r2,-20(fp)
    
  } while (active);
   4022c:	e0bffb17 	ldw	r2,-20(fp)
   40230:	103fdb1e 	bne	r2,zero,401a0 <__alt_data_end+0xfffc5820>

  /*
   * Notify the operating system that interrupt processing is complete.
   */ 

  ALT_OS_INT_EXIT();
   40234:	0001883a 	nop
}
   40238:	e037883a 	mov	sp,fp
   4023c:	dfc00117 	ldw	ra,4(sp)
   40240:	df000017 	ldw	fp,0(sp)
   40244:	dec00204 	addi	sp,sp,8
   40248:	f800283a 	ret

Disassembly of section .text:

0004024c <_start>:

    /* Assume the data cache size is always a power of two. */
#if NIOS2_DCACHE_SIZE > 0x8000
    movhi r2, %hi(NIOS2_DCACHE_SIZE)
#else
    movui r2, NIOS2_DCACHE_SIZE
   4024c:	00820014 	movui	r2,2048
#endif

0:
    initd 0(r2)
   40250:	10000033 	initd	0(r2)
#ifdef NIOS2_ECC_PRESENT
    addi r2, r2, -4
#else
    addi r2, r2, -NIOS2_DCACHE_LINE_SIZE
   40254:	10bff804 	addi	r2,r2,-32
#endif
    bgt r2, zero, 0b
   40258:	00bffd16 	blt	zero,r2,40250 <__alt_data_end+0xfffc58d0>

    /*
     * Now that the caches are initialized, set up the stack pointer and global pointer.
     * The values provided by the linker are assumed to be correctly aligned.
     */
    movhi sp, %hi(__alt_stack_pointer)
   4025c:	06c001f4 	movhi	sp,7
    ori sp, sp, %lo(__alt_stack_pointer)
   40260:	deea6014 	ori	sp,sp,43392
    movhi gp, %hi(_gp)
   40264:	06800174 	movhi	gp,5
    ori gp, gp, %lo(_gp)
   40268:	d6b09614 	ori	gp,gp,49752
 */
#ifndef ALT_SIM_OPTIMIZE
    /* Log that the BSS is about to be cleared. */
    ALT_LOG_PUTS(alt_log_msg_bss)

    movhi r2, %hi(__bss_start)
   4026c:	00800174 	movhi	r2,5
    ori r2, r2, %lo(__bss_start)
   40270:	10976714 	ori	r2,r2,23964

    movhi r3, %hi(__bss_end)
   40274:	00c00174 	movhi	r3,5
    ori r3, r3, %lo(__bss_end)
   40278:	18ff1514 	ori	r3,r3,64596

    beq r2, r3, 1f
   4027c:	10c00326 	beq	r2,r3,4028c <_start+0x40>

0:
    stw zero, (r2)
   40280:	10000015 	stw	zero,0(r2)
    addi r2, r2, 4
   40284:	10800104 	addi	r2,r2,4
    bltu r2, r3, 0b
   40288:	10fffd36 	bltu	r2,r3,40280 <__alt_data_end+0xfffc5900>
     * section aren't defined until alt_load() has been called).
     */
    mov   et, zero
#endif

    call alt_load
   4028c:	00503740 	call	50374 <alt_load>

    /* Log that alt_main is about to be called. */
    ALT_LOG_PUTS(alt_log_msg_alt_main)

    /* Call the C entry point. It should never return. */
    call alt_main
   40290:	00505180 	call	50518 <alt_main>

00040294 <alt_after_alt_main>:

    /* Wait in infinite loop in case alt_main does return. */
alt_after_alt_main:
    br alt_after_alt_main
   40294:	003fff06 	br	40294 <__alt_data_end+0xfffc5914>

00040298 <vListInitialise>:
/*-----------------------------------------------------------
 * PUBLIC LIST API documented in list.h
 *----------------------------------------------------------*/

void vListInitialise( xList *pxList )
{
   40298:	defffe04 	addi	sp,sp,-8
   4029c:	df000115 	stw	fp,4(sp)
   402a0:	df000104 	addi	fp,sp,4
   402a4:	e13fff15 	stw	r4,-4(fp)
	/* The list structure contains a list item which is used to mark the
	end of the list.  To initialise the list the list end is inserted
	as the only list entry. */
	pxList->pxIndex = ( xListItem * ) &( pxList->xListEnd );
   402a8:	e0bfff17 	ldw	r2,-4(fp)
   402ac:	10c00204 	addi	r3,r2,8
   402b0:	e0bfff17 	ldw	r2,-4(fp)
   402b4:	10c00115 	stw	r3,4(r2)

	/* The list end value is the highest possible value in the list to
	ensure it remains at the end of the list. */
	pxList->xListEnd.xItemValue = portMAX_DELAY;
   402b8:	e0bfff17 	ldw	r2,-4(fp)
   402bc:	00ffffc4 	movi	r3,-1
   402c0:	10c00215 	stw	r3,8(r2)

	/* The list end next and previous pointers point to itself so we know
	when the list is empty. */
	pxList->xListEnd.pxNext = ( xListItem * ) &( pxList->xListEnd );
   402c4:	e0bfff17 	ldw	r2,-4(fp)
   402c8:	10c00204 	addi	r3,r2,8
   402cc:	e0bfff17 	ldw	r2,-4(fp)
   402d0:	10c00315 	stw	r3,12(r2)
	pxList->xListEnd.pxPrevious = ( xListItem * ) &( pxList->xListEnd );
   402d4:	e0bfff17 	ldw	r2,-4(fp)
   402d8:	10c00204 	addi	r3,r2,8
   402dc:	e0bfff17 	ldw	r2,-4(fp)
   402e0:	10c00415 	stw	r3,16(r2)

	pxList->uxNumberOfItems = ( unsigned portBASE_TYPE ) 0U;
   402e4:	e0bfff17 	ldw	r2,-4(fp)
   402e8:	10000015 	stw	zero,0(r2)
}
   402ec:	e037883a 	mov	sp,fp
   402f0:	df000017 	ldw	fp,0(sp)
   402f4:	dec00104 	addi	sp,sp,4
   402f8:	f800283a 	ret

000402fc <vListInitialiseItem>:
/*-----------------------------------------------------------*/

void vListInitialiseItem( xListItem *pxItem )
{
   402fc:	defffe04 	addi	sp,sp,-8
   40300:	df000115 	stw	fp,4(sp)
   40304:	df000104 	addi	fp,sp,4
   40308:	e13fff15 	stw	r4,-4(fp)
	/* Make sure the list item is not recorded as being on a list. */
	pxItem->pvContainer = NULL;
   4030c:	e0bfff17 	ldw	r2,-4(fp)
   40310:	10000415 	stw	zero,16(r2)
}
   40314:	e037883a 	mov	sp,fp
   40318:	df000017 	ldw	fp,0(sp)
   4031c:	dec00104 	addi	sp,sp,4
   40320:	f800283a 	ret

00040324 <vListInsertEnd>:
/*-----------------------------------------------------------*/

void vListInsertEnd( xList *pxList, xListItem *pxNewListItem )
{
   40324:	defffc04 	addi	sp,sp,-16
   40328:	df000315 	stw	fp,12(sp)
   4032c:	df000304 	addi	fp,sp,12
   40330:	e13ffe15 	stw	r4,-8(fp)
   40334:	e17fff15 	stw	r5,-4(fp)

	/* Insert a new list item into pxList, but rather than sort the list,
	makes the new list item the last item to be removed by a call to
	pvListGetOwnerOfNextEntry.  This means it has to be the item pointed to by
	the pxIndex member. */
	pxIndex = pxList->pxIndex;
   40338:	e0bffe17 	ldw	r2,-8(fp)
   4033c:	10800117 	ldw	r2,4(r2)
   40340:	e0bffd15 	stw	r2,-12(fp)

	pxNewListItem->pxNext = pxIndex->pxNext;
   40344:	e0bffd17 	ldw	r2,-12(fp)
   40348:	10c00117 	ldw	r3,4(r2)
   4034c:	e0bfff17 	ldw	r2,-4(fp)
   40350:	10c00115 	stw	r3,4(r2)
	pxNewListItem->pxPrevious = pxList->pxIndex;
   40354:	e0bffe17 	ldw	r2,-8(fp)
   40358:	10c00117 	ldw	r3,4(r2)
   4035c:	e0bfff17 	ldw	r2,-4(fp)
   40360:	10c00215 	stw	r3,8(r2)
	pxIndex->pxNext->pxPrevious = ( volatile xListItem * ) pxNewListItem;
   40364:	e0bffd17 	ldw	r2,-12(fp)
   40368:	10800117 	ldw	r2,4(r2)
   4036c:	e0ffff17 	ldw	r3,-4(fp)
   40370:	10c00215 	stw	r3,8(r2)
	pxIndex->pxNext = ( volatile xListItem * ) pxNewListItem;
   40374:	e0bffd17 	ldw	r2,-12(fp)
   40378:	e0ffff17 	ldw	r3,-4(fp)
   4037c:	10c00115 	stw	r3,4(r2)
	pxList->pxIndex = ( volatile xListItem * ) pxNewListItem;
   40380:	e0bffe17 	ldw	r2,-8(fp)
   40384:	e0ffff17 	ldw	r3,-4(fp)
   40388:	10c00115 	stw	r3,4(r2)

	/* Remember which list the item is in. */
	pxNewListItem->pvContainer = ( void * ) pxList;
   4038c:	e0bfff17 	ldw	r2,-4(fp)
   40390:	e0fffe17 	ldw	r3,-8(fp)
   40394:	10c00415 	stw	r3,16(r2)

	( pxList->uxNumberOfItems )++;
   40398:	e0bffe17 	ldw	r2,-8(fp)
   4039c:	10800017 	ldw	r2,0(r2)
   403a0:	10c00044 	addi	r3,r2,1
   403a4:	e0bffe17 	ldw	r2,-8(fp)
   403a8:	10c00015 	stw	r3,0(r2)
}
   403ac:	e037883a 	mov	sp,fp
   403b0:	df000017 	ldw	fp,0(sp)
   403b4:	dec00104 	addi	sp,sp,4
   403b8:	f800283a 	ret

000403bc <vListInsert>:
/*-----------------------------------------------------------*/

void vListInsert( xList *pxList, xListItem *pxNewListItem )
{
   403bc:	defffb04 	addi	sp,sp,-20
   403c0:	df000415 	stw	fp,16(sp)
   403c4:	df000404 	addi	fp,sp,16
   403c8:	e13ffe15 	stw	r4,-8(fp)
   403cc:	e17fff15 	stw	r5,-4(fp)
volatile xListItem *pxIterator;
portTickType xValueOfInsertion;

	/* Insert the new list item into the list, sorted in ulListItem order. */
	xValueOfInsertion = pxNewListItem->xItemValue;
   403d0:	e0bfff17 	ldw	r2,-4(fp)
   403d4:	10800017 	ldw	r2,0(r2)
   403d8:	e0bffd15 	stw	r2,-12(fp)
	are stored in ready lists (all of which have the same ulListItem value)
	get an equal share of the CPU.  However, if the xItemValue is the same as
	the back marker the iteration loop below will not end.  This means we need
	to guard against this by checking the value first and modifying the
	algorithm slightly if necessary. */
	if( xValueOfInsertion == portMAX_DELAY )
   403dc:	e0bffd17 	ldw	r2,-12(fp)
   403e0:	10bfffd8 	cmpnei	r2,r2,-1
   403e4:	1000041e 	bne	r2,zero,403f8 <vListInsert+0x3c>
	{
		pxIterator = pxList->xListEnd.pxPrevious;
   403e8:	e0bffe17 	ldw	r2,-8(fp)
   403ec:	10800417 	ldw	r2,16(r2)
   403f0:	e0bffc15 	stw	r2,-16(fp)
   403f4:	00000c06 	br	40428 <vListInsert+0x6c>
			   before the scheduler has been started (are interrupts firing
			   before vTaskStartScheduler() has been called?).
		See http://www.freertos.org/FAQHelp.html for more tips.
		**********************************************************************/
		
		for( pxIterator = ( xListItem * ) &( pxList->xListEnd ); pxIterator->pxNext->xItemValue <= xValueOfInsertion; pxIterator = pxIterator->pxNext )
   403f8:	e0bffe17 	ldw	r2,-8(fp)
   403fc:	10800204 	addi	r2,r2,8
   40400:	e0bffc15 	stw	r2,-16(fp)
   40404:	00000306 	br	40414 <vListInsert+0x58>
   40408:	e0bffc17 	ldw	r2,-16(fp)
   4040c:	10800117 	ldw	r2,4(r2)
   40410:	e0bffc15 	stw	r2,-16(fp)
   40414:	e0bffc17 	ldw	r2,-16(fp)
   40418:	10800117 	ldw	r2,4(r2)
   4041c:	10800017 	ldw	r2,0(r2)
   40420:	e0fffd17 	ldw	r3,-12(fp)
   40424:	18bff82e 	bgeu	r3,r2,40408 <__alt_data_end+0xfffc5a88>
			/* There is nothing to do here, we are just iterating to the
			wanted insertion position. */
		}
	}

	pxNewListItem->pxNext = pxIterator->pxNext;
   40428:	e0bffc17 	ldw	r2,-16(fp)
   4042c:	10c00117 	ldw	r3,4(r2)
   40430:	e0bfff17 	ldw	r2,-4(fp)
   40434:	10c00115 	stw	r3,4(r2)
	pxNewListItem->pxNext->pxPrevious = ( volatile xListItem * ) pxNewListItem;
   40438:	e0bfff17 	ldw	r2,-4(fp)
   4043c:	10800117 	ldw	r2,4(r2)
   40440:	e0ffff17 	ldw	r3,-4(fp)
   40444:	10c00215 	stw	r3,8(r2)
	pxNewListItem->pxPrevious = pxIterator;
   40448:	e0bfff17 	ldw	r2,-4(fp)
   4044c:	e0fffc17 	ldw	r3,-16(fp)
   40450:	10c00215 	stw	r3,8(r2)
	pxIterator->pxNext = ( volatile xListItem * ) pxNewListItem;
   40454:	e0bffc17 	ldw	r2,-16(fp)
   40458:	e0ffff17 	ldw	r3,-4(fp)
   4045c:	10c00115 	stw	r3,4(r2)

	/* Remember which list the item is in.  This allows fast removal of the
	item later. */
	pxNewListItem->pvContainer = ( void * ) pxList;
   40460:	e0bfff17 	ldw	r2,-4(fp)
   40464:	e0fffe17 	ldw	r3,-8(fp)
   40468:	10c00415 	stw	r3,16(r2)

	( pxList->uxNumberOfItems )++;
   4046c:	e0bffe17 	ldw	r2,-8(fp)
   40470:	10800017 	ldw	r2,0(r2)
   40474:	10c00044 	addi	r3,r2,1
   40478:	e0bffe17 	ldw	r2,-8(fp)
   4047c:	10c00015 	stw	r3,0(r2)
}
   40480:	e037883a 	mov	sp,fp
   40484:	df000017 	ldw	fp,0(sp)
   40488:	dec00104 	addi	sp,sp,4
   4048c:	f800283a 	ret

00040490 <vListRemove>:
/*-----------------------------------------------------------*/

void vListRemove( xListItem *pxItemToRemove )
{
   40490:	defffd04 	addi	sp,sp,-12
   40494:	df000215 	stw	fp,8(sp)
   40498:	df000204 	addi	fp,sp,8
   4049c:	e13fff15 	stw	r4,-4(fp)
xList * pxList;

	pxItemToRemove->pxNext->pxPrevious = pxItemToRemove->pxPrevious;
   404a0:	e0bfff17 	ldw	r2,-4(fp)
   404a4:	10800117 	ldw	r2,4(r2)
   404a8:	e0ffff17 	ldw	r3,-4(fp)
   404ac:	18c00217 	ldw	r3,8(r3)
   404b0:	10c00215 	stw	r3,8(r2)
	pxItemToRemove->pxPrevious->pxNext = pxItemToRemove->pxNext;
   404b4:	e0bfff17 	ldw	r2,-4(fp)
   404b8:	10800217 	ldw	r2,8(r2)
   404bc:	e0ffff17 	ldw	r3,-4(fp)
   404c0:	18c00117 	ldw	r3,4(r3)
   404c4:	10c00115 	stw	r3,4(r2)
	
	/* The list item knows which list it is in.  Obtain the list from the list
	item. */
	pxList = ( xList * ) pxItemToRemove->pvContainer;
   404c8:	e0bfff17 	ldw	r2,-4(fp)
   404cc:	10800417 	ldw	r2,16(r2)
   404d0:	e0bffe15 	stw	r2,-8(fp)

	/* Make sure the index is left pointing to a valid item. */
	if( pxList->pxIndex == pxItemToRemove )
   404d4:	e0bffe17 	ldw	r2,-8(fp)
   404d8:	10c00117 	ldw	r3,4(r2)
   404dc:	e0bfff17 	ldw	r2,-4(fp)
   404e0:	1880041e 	bne	r3,r2,404f4 <vListRemove+0x64>
	{
		pxList->pxIndex = pxItemToRemove->pxPrevious;
   404e4:	e0bfff17 	ldw	r2,-4(fp)
   404e8:	10c00217 	ldw	r3,8(r2)
   404ec:	e0bffe17 	ldw	r2,-8(fp)
   404f0:	10c00115 	stw	r3,4(r2)
	}

	pxItemToRemove->pvContainer = NULL;
   404f4:	e0bfff17 	ldw	r2,-4(fp)
   404f8:	10000415 	stw	zero,16(r2)
	( pxList->uxNumberOfItems )--;
   404fc:	e0bffe17 	ldw	r2,-8(fp)
   40500:	10800017 	ldw	r2,0(r2)
   40504:	10ffffc4 	addi	r3,r2,-1
   40508:	e0bffe17 	ldw	r2,-8(fp)
   4050c:	10c00015 	stw	r3,0(r2)
}
   40510:	e037883a 	mov	sp,fp
   40514:	df000017 	ldw	fp,0(sp)
   40518:	dec00104 	addi	sp,sp,4
   4051c:	f800283a 	ret

00040520 <prvReadGp>:
  void vPortSysTickHandler( void * context, alt_u32 id );
#endif
/*-----------------------------------------------------------*/

void prvReadGp( unsigned long *ulValue )
{
   40520:	defffe04 	addi	sp,sp,-8
   40524:	df000115 	stw	fp,4(sp)
   40528:	df000104 	addi	fp,sp,4
   4052c:	e13fff15 	stw	r4,-4(fp)
	asm( "stw gp, (r4) " );
   40530:	26800015 	stw	gp,0(r4)
};
   40534:	e037883a 	mov	sp,fp
   40538:	df000017 	ldw	fp,0(sp)
   4053c:	dec00104 	addi	sp,sp,4
   40540:	f800283a 	ret

00040544 <pxPortInitialiseStack>:

/*
 * See header file for description.
 */
portSTACK_TYPE *pxPortInitialiseStack( portSTACK_TYPE *pxTopOfStack, pdTASK_CODE pxCode, void *pvParameters )
{
   40544:	defff904 	addi	sp,sp,-28
   40548:	dfc00615 	stw	ra,24(sp)
   4054c:	df000515 	stw	fp,20(sp)
   40550:	df000504 	addi	fp,sp,20
   40554:	e13ffd15 	stw	r4,-12(fp)
   40558:	e17ffe15 	stw	r5,-8(fp)
   4055c:	e1bfff15 	stw	r6,-4(fp)
portSTACK_TYPE *pxFramePointer = pxTopOfStack - 1;
   40560:	e0bffd17 	ldw	r2,-12(fp)
   40564:	10bfff04 	addi	r2,r2,-4
   40568:	e0bffb15 	stw	r2,-20(fp)
portSTACK_TYPE xGlobalPointer;

    prvReadGp( &xGlobalPointer );
   4056c:	e0bffc04 	addi	r2,fp,-16
   40570:	1009883a 	mov	r4,r2
   40574:	00405200 	call	40520 <prvReadGp>

    /* End of stack marker. */
    *pxTopOfStack = 0xdeadbeef;
   40578:	e0fffd17 	ldw	r3,-12(fp)
   4057c:	00b7abb4 	movhi	r2,57006
   40580:	10afbbc4 	addi	r2,r2,-16657
   40584:	18800015 	stw	r2,0(r3)
    pxTopOfStack--;
   40588:	e0bffd17 	ldw	r2,-12(fp)
   4058c:	10bfff04 	addi	r2,r2,-4
   40590:	e0bffd15 	stw	r2,-12(fp)

    *pxTopOfStack = ( portSTACK_TYPE ) pxFramePointer;
   40594:	e0fffb17 	ldw	r3,-20(fp)
   40598:	e0bffd17 	ldw	r2,-12(fp)
   4059c:	10c00015 	stw	r3,0(r2)
    pxTopOfStack--;
   405a0:	e0bffd17 	ldw	r2,-12(fp)
   405a4:	10bfff04 	addi	r2,r2,-4
   405a8:	e0bffd15 	stw	r2,-12(fp)

    *pxTopOfStack = xGlobalPointer;
   405ac:	e0fffc17 	ldw	r3,-16(fp)
   405b0:	e0bffd17 	ldw	r2,-12(fp)
   405b4:	10c00015 	stw	r3,0(r2)

    /* Space for R23 to R16. */
    pxTopOfStack -= 9;
   405b8:	e0bffd17 	ldw	r2,-12(fp)
   405bc:	10bff704 	addi	r2,r2,-36
   405c0:	e0bffd15 	stw	r2,-12(fp)

    *pxTopOfStack = ( portSTACK_TYPE ) pxCode;
   405c4:	e0fffe17 	ldw	r3,-8(fp)
   405c8:	e0bffd17 	ldw	r2,-12(fp)
   405cc:	10c00015 	stw	r3,0(r2)
    pxTopOfStack--;
   405d0:	e0bffd17 	ldw	r2,-12(fp)
   405d4:	10bfff04 	addi	r2,r2,-4
   405d8:	e0bffd15 	stw	r2,-12(fp)

    *pxTopOfStack = portINITIAL_ESTATUS;
   405dc:	e0bffd17 	ldw	r2,-12(fp)
   405e0:	00c00044 	movi	r3,1
   405e4:	10c00015 	stw	r3,0(r2)

    /* Space for R15 to R5. */
    pxTopOfStack -= 12;
   405e8:	e0bffd17 	ldw	r2,-12(fp)
   405ec:	10bff404 	addi	r2,r2,-48
   405f0:	e0bffd15 	stw	r2,-12(fp)

    *pxTopOfStack = ( portSTACK_TYPE ) pvParameters;
   405f4:	e0ffff17 	ldw	r3,-4(fp)
   405f8:	e0bffd17 	ldw	r2,-12(fp)
   405fc:	10c00015 	stw	r3,0(r2)

    /* Space for R3 to R1, muldiv and RA. */
    pxTopOfStack -= 5;
   40600:	e0bffd17 	ldw	r2,-12(fp)
   40604:	10bffb04 	addi	r2,r2,-20
   40608:	e0bffd15 	stw	r2,-12(fp)

    return pxTopOfStack;
   4060c:	e0bffd17 	ldw	r2,-12(fp)
}
   40610:	e037883a 	mov	sp,fp
   40614:	dfc00117 	ldw	ra,4(sp)
   40618:	df000017 	ldw	fp,0(sp)
   4061c:	dec00204 	addi	sp,sp,8
   40620:	f800283a 	ret

00040624 <xPortStartScheduler>:

/*
 * See header file for description.
 */
portBASE_TYPE xPortStartScheduler( void )
{
   40624:	defffe04 	addi	sp,sp,-8
   40628:	dfc00115 	stw	ra,4(sp)
   4062c:	df000015 	stw	fp,0(sp)
   40630:	d839883a 	mov	fp,sp
	/* Start the timer that generates the tick ISR.  Interrupts are disabled
	here already. */
	prvSetupTimerInterrupt();
   40634:	00406780 	call	40678 <prvSetupTimerInterrupt>
   40638:	00800134 	movhi	r2,4

	/* Start the first task. */
    asm volatile (  " movia r2, restore_sp_from_pxCurrentTCB        \n"
   4063c:	10803104 	addi	r2,r2,196
   40640:	1000683a 	jmp	r2
                    " jmp r2                                          " );

	/* Should not get here! */
	return 0;
   40644:	0005883a 	mov	r2,zero
}
   40648:	e037883a 	mov	sp,fp
   4064c:	dfc00117 	ldw	ra,4(sp)
   40650:	df000017 	ldw	fp,0(sp)
   40654:	dec00204 	addi	sp,sp,8
   40658:	f800283a 	ret

0004065c <vPortEndScheduler>:
/*-----------------------------------------------------------*/

void vPortEndScheduler( void )
{
   4065c:	deffff04 	addi	sp,sp,-4
   40660:	df000015 	stw	fp,0(sp)
   40664:	d839883a 	mov	fp,sp
	/* It is unlikely that the NIOS2 port will require this function as there
	is nothing to return to.  */
}
   40668:	e037883a 	mov	sp,fp
   4066c:	df000017 	ldw	fp,0(sp)
   40670:	dec00104 	addi	sp,sp,4
   40674:	f800283a 	ret

00040678 <prvSetupTimerInterrupt>:
/*
 * Setup the systick timer to generate the tick interrupts at the required
 * frequency.
 */
void prvSetupTimerInterrupt( void )
{
   40678:	defffd04 	addi	sp,sp,-12
   4067c:	dfc00215 	stw	ra,8(sp)
   40680:	df000115 	stw	fp,4(sp)
   40684:	df000104 	addi	fp,sp,4
	/* Try to register the interrupt handler. */
	//cjr Jul-1-2010 new API
#ifdef ALT_ENHANCED_INTERRUPT_API_PRESENT
	if ( -EINVAL ==     alt_ic_isr_register(SYS_CLK_IRQ_INTERRUPT_CONTROLLER_ID, SYS_CLK_IRQ,
   40688:	d8000015 	stw	zero,0(sp)
   4068c:	0009883a 	mov	r4,zero
   40690:	014000c4 	movi	r5,3
   40694:	01800134 	movhi	r6,4
   40698:	3181c604 	addi	r6,r6,1816
   4069c:	000f883a 	mov	r7,zero
   406a0:	005003c0 	call	5003c <alt_ic_isr_register>
   406a4:	10bffa98 	cmpnei	r2,r2,-22
   406a8:	1000021e 	bne	r2,zero,406b4 <prvSetupTimerInterrupt+0x3c>
#else
	if ( -EINVAL == alt_irq_register( SYS_CLK_IRQ, 0x0, vPortSysTickHandler ) )
#endif
	{
		/* Failed to install the Interrupt Handler. */
		asm( "break" );
   406ac:	003da03a 	break	0
   406b0:	00001006 	br	406f4 <prvSetupTimerInterrupt+0x7c>
	}
	else
	{
		/* Configure SysTick to interrupt at the requested rate. */
		IOWR_ALTERA_AVALON_TIMER_CONTROL( SYS_CLK_BASE, ALTERA_AVALON_TIMER_CONTROL_STOP_MSK );
   406b4:	00c00204 	movi	r3,8
   406b8:	00800234 	movhi	r2,8
   406bc:	10841904 	addi	r2,r2,4196
   406c0:	10c00035 	stwio	r3,0(r2)
		IOWR_ALTERA_AVALON_TIMER_PERIODL( SYS_CLK_BASE, ( configCPU_CLOCK_HZ / configTICK_RATE_HZ ) & 0xFFFF );
   406c4:	00e1a814 	movui	r3,34464
   406c8:	00800234 	movhi	r2,8
   406cc:	10841a04 	addi	r2,r2,4200
   406d0:	10c00035 	stwio	r3,0(r2)
		IOWR_ALTERA_AVALON_TIMER_PERIODH( SYS_CLK_BASE, ( configCPU_CLOCK_HZ / configTICK_RATE_HZ ) >> 16 );
   406d4:	00c00044 	movi	r3,1
   406d8:	00800234 	movhi	r2,8
   406dc:	10841b04 	addi	r2,r2,4204
   406e0:	10c00035 	stwio	r3,0(r2)
		IOWR_ALTERA_AVALON_TIMER_CONTROL( SYS_CLK_BASE, ALTERA_AVALON_TIMER_CONTROL_CONT_MSK | ALTERA_AVALON_TIMER_CONTROL_START_MSK | ALTERA_AVALON_TIMER_CONTROL_ITO_MSK );
   406e4:	00c001c4 	movi	r3,7
   406e8:	00800234 	movhi	r2,8
   406ec:	10841904 	addi	r2,r2,4196
   406f0:	10c00035 	stwio	r3,0(r2)
	}

	/* Clear any already pending interrupts generated by the Timer. */
	IOWR_ALTERA_AVALON_TIMER_STATUS( SYS_CLK_BASE, ~ALTERA_AVALON_TIMER_STATUS_TO_MSK );
   406f4:	00ffff84 	movi	r3,-2
   406f8:	00800234 	movhi	r2,8
   406fc:	10841804 	addi	r2,r2,4192
   40700:	10c00035 	stwio	r3,0(r2)
}
   40704:	e037883a 	mov	sp,fp
   40708:	dfc00117 	ldw	ra,4(sp)
   4070c:	df000017 	ldw	fp,0(sp)
   40710:	dec00204 	addi	sp,sp,8
   40714:	f800283a 	ret

00040718 <vPortSysTickHandler>:
#ifdef ALT_ENHANCED_INTERRUPT_API_PRESENT
void vPortSysTickHandler( void * context )
#else
void vPortSysTickHandler( void * context, alt_u32 id )
#endif
{
   40718:	defffd04 	addi	sp,sp,-12
   4071c:	dfc00215 	stw	ra,8(sp)
   40720:	df000115 	stw	fp,4(sp)
   40724:	df000104 	addi	fp,sp,4
   40728:	e13fff15 	stw	r4,-4(fp)
	/* Increment the Kernel Tick. */
	vTaskIncrementTick();
   4072c:	00425a40 	call	425a4 <vTaskIncrementTick>

	/* If using preemption, also force a context switch. */
	#if configUSE_PREEMPTION == 1
        vTaskSwitchContext();
   40730:	004271c0 	call	4271c <vTaskSwitchContext>
	#endif

	/* Clear the interrupt. */
	IOWR_ALTERA_AVALON_TIMER_STATUS( SYS_CLK_BASE, ~ALTERA_AVALON_TIMER_STATUS_TO_MSK );
   40734:	00ffff84 	movi	r3,-2
   40738:	00800234 	movhi	r2,8
   4073c:	10841804 	addi	r2,r2,4192
   40740:	10c00035 	stwio	r3,0(r2)
}
   40744:	e037883a 	mov	sp,fp
   40748:	dfc00117 	ldw	ra,4(sp)
   4074c:	df000017 	ldw	fp,0(sp)
   40750:	dec00204 	addi	sp,sp,8
   40754:	f800283a 	ret

00040758 <alt_irq_register>:
#ifndef ALT_ENHANCED_INTERRUPT_API_PRESENT
int alt_irq_register( alt_u32 id, void* context, void (*handler)(void*, alt_u32) )
#else
int alt_irq_register( alt_u32 id, void* context, alt_isr_func handler )
#endif
{
   40758:	defff104 	addi	sp,sp,-60
   4075c:	df000e15 	stw	fp,56(sp)
   40760:	df000e04 	addi	fp,sp,56
   40764:	e13ffd15 	stw	r4,-12(fp)
   40768:	e17ffe15 	stw	r5,-8(fp)
   4076c:	e1bfff15 	stw	r6,-4(fp)
	int rc = -EINVAL;
   40770:	00bffa84 	movi	r2,-22
   40774:	e0bff215 	stw	r2,-56(fp)
	alt_irq_context status;

	if (id < ALT_NIRQ)
   40778:	e0bffd17 	ldw	r2,-12(fp)
   4077c:	10800828 	cmpgeui	r2,r2,32
   40780:	1000581e 	bne	r2,zero,408e4 <alt_irq_register+0x18c>
static ALT_INLINE alt_irq_context ALT_ALWAYS_INLINE 
       alt_irq_disable_all (void)
{
  alt_irq_context context;

  NIOS2_READ_STATUS (context);
   40784:	0005303a 	rdctl	r2,status
   40788:	e0bff415 	stw	r2,-48(fp)

  NIOS2_WRITE_STATUS (context & ~NIOS2_STATUS_PIE_MSK);
   4078c:	e0fff417 	ldw	r3,-48(fp)
   40790:	00bfff84 	movi	r2,-2
   40794:	1884703a 	and	r2,r3,r2
   40798:	1001703a 	wrctl	status,r2
  
  return context;
   4079c:	e0bff417 	ldw	r2,-48(fp)
		 * interrupts are disabled while the handler tables are updated to ensure
		 * that an interrupt doesn't occur while the tables are in an inconsistent
		 * state.
		 */

		status = alt_irq_disable_all ();
   407a0:	e0bff315 	stw	r2,-52(fp)

		alt_irq[id].handler = handler;
   407a4:	008001b4 	movhi	r2,6
   407a8:	10bed504 	addi	r2,r2,-1196
   407ac:	e0fffd17 	ldw	r3,-12(fp)
   407b0:	180690fa 	slli	r3,r3,3
   407b4:	10c5883a 	add	r2,r2,r3
   407b8:	e0ffff17 	ldw	r3,-4(fp)
   407bc:	10c00015 	stw	r3,0(r2)
		alt_irq[id].context = context;
   407c0:	008001b4 	movhi	r2,6
   407c4:	10bed504 	addi	r2,r2,-1196
   407c8:	e0fffd17 	ldw	r3,-12(fp)
   407cc:	180690fa 	slli	r3,r3,3
   407d0:	10c5883a 	add	r2,r2,r3
   407d4:	10800104 	addi	r2,r2,4
   407d8:	e0fffe17 	ldw	r3,-8(fp)
   407dc:	10c00015 	stw	r3,0(r2)

		rc = (handler) ? alt_irq_enable (id): alt_irq_disable (id);
   407e0:	e0bfff17 	ldw	r2,-4(fp)
   407e4:	10001f26 	beq	r2,zero,40864 <alt_irq_register+0x10c>
   407e8:	e0bffd17 	ldw	r2,-12(fp)
   407ec:	e0bff515 	stw	r2,-44(fp)
static ALT_INLINE alt_irq_context ALT_ALWAYS_INLINE 
       alt_irq_disable_all (void)
{
  alt_irq_context context;

  NIOS2_READ_STATUS (context);
   407f0:	0005303a 	rdctl	r2,status
   407f4:	e0bff615 	stw	r2,-40(fp)

  NIOS2_WRITE_STATUS (context & ~NIOS2_STATUS_PIE_MSK);
   407f8:	e0fff617 	ldw	r3,-40(fp)
   407fc:	00bfff84 	movi	r2,-2
   40800:	1884703a 	and	r2,r3,r2
   40804:	1001703a 	wrctl	status,r2
  
  return context;
   40808:	e0bff617 	ldw	r2,-40(fp)
static ALT_INLINE int ALT_ALWAYS_INLINE alt_irq_enable (alt_u32 id)
{
  alt_irq_context  status;
  extern volatile alt_u32 alt_irq_active;

  status = alt_irq_disable_all ();
   4080c:	e0bff715 	stw	r2,-36(fp)

  alt_irq_active |= (1 << id);
   40810:	e0bff517 	ldw	r2,-44(fp)
   40814:	00c00044 	movi	r3,1
   40818:	1884983a 	sll	r2,r3,r2
   4081c:	1007883a 	mov	r3,r2
   40820:	00800174 	movhi	r2,5
   40824:	10978304 	addi	r2,r2,24076
   40828:	10800017 	ldw	r2,0(r2)
   4082c:	1886b03a 	or	r3,r3,r2
   40830:	00800174 	movhi	r2,5
   40834:	10978304 	addi	r2,r2,24076
   40838:	10c00015 	stw	r3,0(r2)
  NIOS2_WRITE_IENABLE (alt_irq_active);
   4083c:	00800174 	movhi	r2,5
   40840:	10978304 	addi	r2,r2,24076
   40844:	10800017 	ldw	r2,0(r2)
   40848:	100170fa 	wrctl	ienable,r2
   4084c:	e0bff717 	ldw	r2,-36(fp)
   40850:	e0bff815 	stw	r2,-32(fp)
  status &= ~NIOS2_STATUS_PIE_MSK;
  status |= (context & NIOS2_STATUS_PIE_MSK);
  
  NIOS2_WRITE_STATUS (status);
#else
  NIOS2_WRITE_STATUS (context);
   40854:	e0bff817 	ldw	r2,-32(fp)
   40858:	1001703a 	wrctl	status,r2

  alt_irq_enable_all(status);

  return 0;
   4085c:	0005883a 	mov	r2,zero
   40860:	00001f06 	br	408e0 <alt_irq_register+0x188>
   40864:	e0bffd17 	ldw	r2,-12(fp)
   40868:	e0bff915 	stw	r2,-28(fp)
static ALT_INLINE alt_irq_context ALT_ALWAYS_INLINE 
       alt_irq_disable_all (void)
{
  alt_irq_context context;

  NIOS2_READ_STATUS (context);
   4086c:	0005303a 	rdctl	r2,status
   40870:	e0bffa15 	stw	r2,-24(fp)

  NIOS2_WRITE_STATUS (context & ~NIOS2_STATUS_PIE_MSK);
   40874:	e0fffa17 	ldw	r3,-24(fp)
   40878:	00bfff84 	movi	r2,-2
   4087c:	1884703a 	and	r2,r3,r2
   40880:	1001703a 	wrctl	status,r2
  
  return context;
   40884:	e0bffa17 	ldw	r2,-24(fp)
static ALT_INLINE int ALT_ALWAYS_INLINE alt_irq_disable (alt_u32 id)
{
  alt_irq_context  status;
  extern volatile alt_u32 alt_irq_active;

  status = alt_irq_disable_all ();
   40888:	e0bffb15 	stw	r2,-20(fp)

  alt_irq_active &= ~(1 << id);
   4088c:	e0bff917 	ldw	r2,-28(fp)
   40890:	00c00044 	movi	r3,1
   40894:	1884983a 	sll	r2,r3,r2
   40898:	0084303a 	nor	r2,zero,r2
   4089c:	1007883a 	mov	r3,r2
   408a0:	00800174 	movhi	r2,5
   408a4:	10978304 	addi	r2,r2,24076
   408a8:	10800017 	ldw	r2,0(r2)
   408ac:	1886703a 	and	r3,r3,r2
   408b0:	00800174 	movhi	r2,5
   408b4:	10978304 	addi	r2,r2,24076
   408b8:	10c00015 	stw	r3,0(r2)
  NIOS2_WRITE_IENABLE (alt_irq_active);
   408bc:	00800174 	movhi	r2,5
   408c0:	10978304 	addi	r2,r2,24076
   408c4:	10800017 	ldw	r2,0(r2)
   408c8:	100170fa 	wrctl	ienable,r2
   408cc:	e0bffb17 	ldw	r2,-20(fp)
   408d0:	e0bffc15 	stw	r2,-16(fp)
  status &= ~NIOS2_STATUS_PIE_MSK;
  status |= (context & NIOS2_STATUS_PIE_MSK);
  
  NIOS2_WRITE_STATUS (status);
#else
  NIOS2_WRITE_STATUS (context);
   408d4:	e0bffc17 	ldw	r2,-16(fp)
   408d8:	1001703a 	wrctl	status,r2

  alt_irq_enable_all(status);

  return 0;
   408dc:	0005883a 	mov	r2,zero
   408e0:	e0bff215 	stw	r2,-56(fp)

		/* alt_irq_enable_all(status); This line is removed to prevent the interrupt from being immediately enabled. */
	}

	return rc;
   408e4:	e0bff217 	ldw	r2,-56(fp)
}
   408e8:	e037883a 	mov	sp,fp
   408ec:	df000017 	ldw	fp,0(sp)
   408f0:	dec00104 	addi	sp,sp,4
   408f4:	f800283a 	ret

000408f8 <alt_iic_isr_register>:
  * @param flags
  * @return                 0 if successful, else error (-1)
  */
int alt_iic_isr_register(alt_u32 ic_id, alt_u32 irq, alt_isr_func isr,
  void *isr_context, void *flags)
{
   408f8:	defff604 	addi	sp,sp,-40
   408fc:	dfc00915 	stw	ra,36(sp)
   40900:	df000815 	stw	fp,32(sp)
   40904:	df000804 	addi	fp,sp,32
   40908:	e13ffc15 	stw	r4,-16(fp)
   4090c:	e17ffd15 	stw	r5,-12(fp)
   40910:	e1bffe15 	stw	r6,-8(fp)
   40914:	e1ffff15 	stw	r7,-4(fp)
  int rc = -EINVAL;
   40918:	00bffa84 	movi	r2,-22
   4091c:	e0bff815 	stw	r2,-32(fp)
  int id = irq;             /* IRQ interpreted as the interrupt ID. */
   40920:	e0bffd17 	ldw	r2,-12(fp)
   40924:	e0bff915 	stw	r2,-28(fp)
  alt_irq_context status;

  if (id < ALT_NIRQ)
   40928:	e0bff917 	ldw	r2,-28(fp)
   4092c:	10800808 	cmpgei	r2,r2,32
   40930:	1000231e 	bne	r2,zero,409c0 <alt_iic_isr_register+0xc8>
static ALT_INLINE alt_irq_context ALT_ALWAYS_INLINE 
       alt_irq_disable_all (void)
{
  alt_irq_context context;

  NIOS2_READ_STATUS (context);
   40934:	0005303a 	rdctl	r2,status
   40938:	e0bffb15 	stw	r2,-20(fp)

  NIOS2_WRITE_STATUS (context & ~NIOS2_STATUS_PIE_MSK);
   4093c:	e0fffb17 	ldw	r3,-20(fp)
   40940:	00bfff84 	movi	r2,-2
   40944:	1884703a 	and	r2,r3,r2
   40948:	1001703a 	wrctl	status,r2
  
  return context;
   4094c:	e0bffb17 	ldw	r2,-20(fp)
     * interrupts are disabled while the handler tables are updated to ensure
     * that an interrupt doesn't occur while the tables are in an inconsistant
     * state.
     */

    status = alt_irq_disable_all();
   40950:	e0bffa15 	stw	r2,-24(fp)

    alt_irq[id].handler = isr;
   40954:	008001b4 	movhi	r2,6
   40958:	10bed504 	addi	r2,r2,-1196
   4095c:	e0fff917 	ldw	r3,-28(fp)
   40960:	180690fa 	slli	r3,r3,3
   40964:	10c5883a 	add	r2,r2,r3
   40968:	e0fffe17 	ldw	r3,-8(fp)
   4096c:	10c00015 	stw	r3,0(r2)
    alt_irq[id].context = isr_context;
   40970:	008001b4 	movhi	r2,6
   40974:	10bed504 	addi	r2,r2,-1196
   40978:	e0fff917 	ldw	r3,-28(fp)
   4097c:	180690fa 	slli	r3,r3,3
   40980:	10c5883a 	add	r2,r2,r3
   40984:	10800104 	addi	r2,r2,4
   40988:	e0ffff17 	ldw	r3,-4(fp)
   4098c:	10c00015 	stw	r3,0(r2)

    rc = (isr) ? alt_ic_irq_enable(ic_id, id) : alt_ic_irq_disable(ic_id, id);
   40990:	e0bffe17 	ldw	r2,-8(fp)
   40994:	10000526 	beq	r2,zero,409ac <alt_iic_isr_register+0xb4>
   40998:	e0bff917 	ldw	r2,-28(fp)
   4099c:	e13ffc17 	ldw	r4,-16(fp)
   409a0:	100b883a 	mov	r5,r2
   409a4:	005008c0 	call	5008c <alt_ic_irq_enable>
   409a8:	00000406 	br	409bc <alt_iic_isr_register+0xc4>
   409ac:	e0bff917 	ldw	r2,-28(fp)
   409b0:	e13ffc17 	ldw	r4,-16(fp)
   409b4:	100b883a 	mov	r5,r2
   409b8:	005012c0 	call	5012c <alt_ic_irq_disable>
   409bc:	e0bff815 	stw	r2,-32(fp)

  //  alt_irq_enable_all(status);
  }

  return rc;
   409c0:	e0bff817 	ldw	r2,-32(fp)
}
   409c4:	e037883a 	mov	sp,fp
   409c8:	dfc00117 	ldw	ra,4(sp)
   409cc:	df000017 	ldw	fp,0(sp)
   409d0:	dec00204 	addi	sp,sp,8
   409d4:	f800283a 	ret

000409d8 <pvPortMalloc>:
	pxFirstFreeBlock->pxNextFreeBlock = &xEnd;										\
}
/*-----------------------------------------------------------*/

void *pvPortMalloc( size_t xWantedSize )
{
   409d8:	defff604 	addi	sp,sp,-40
   409dc:	dfc00915 	stw	ra,36(sp)
   409e0:	df000815 	stw	fp,32(sp)
   409e4:	df000804 	addi	fp,sp,32
   409e8:	e13fff15 	stw	r4,-4(fp)
xBlockLink *pxBlock, *pxPreviousBlock, *pxNewBlockLink;
static portBASE_TYPE xHeapHasBeenInitialised = pdFALSE;
void *pvReturn = NULL;
   409ec:	e03ffa15 	stw	zero,-24(fp)

	vTaskSuspendAll();
   409f0:	00423bc0 	call	423bc <vTaskSuspendAll>
	{
		/* If this is the first call to malloc then the heap will require
		initialisation to setup the list of free blocks. */
		if( xHeapHasBeenInitialised == pdFALSE )
   409f4:	d0a6d517 	ldw	r2,-25772(gp)
   409f8:	1000141e 	bne	r2,zero,40a4c <pvPortMalloc+0x74>
		{
			prvHeapInit();
   409fc:	00800174 	movhi	r2,5
   40a00:	10978904 	addi	r2,r2,24100
   40a04:	d0a6d115 	stw	r2,-25788(gp)
   40a08:	d0a6d204 	addi	r2,gp,-25784
   40a0c:	10000015 	stw	zero,0(r2)
   40a10:	d0a6d404 	addi	r2,gp,-25776
   40a14:	00e71014 	movui	r3,40000
   40a18:	10c00015 	stw	r3,0(r2)
   40a1c:	d026d315 	stw	zero,-25780(gp)
   40a20:	00800174 	movhi	r2,5
   40a24:	10978904 	addi	r2,r2,24100
   40a28:	e0bffc15 	stw	r2,-16(fp)
   40a2c:	e0bffc17 	ldw	r2,-16(fp)
   40a30:	00e71014 	movui	r3,40000
   40a34:	10c00115 	stw	r3,4(r2)
   40a38:	e0bffc17 	ldw	r2,-16(fp)
   40a3c:	d0e6d304 	addi	r3,gp,-25780
   40a40:	10c00015 	stw	r3,0(r2)
			xHeapHasBeenInitialised = pdTRUE;
   40a44:	00800044 	movi	r2,1
   40a48:	d0a6d515 	stw	r2,-25772(gp)
		}

		/* The wanted size is increased so it can contain a xBlockLink
		structure in addition to the requested amount of bytes. */
		if( xWantedSize > 0 )
   40a4c:	e0bfff17 	ldw	r2,-4(fp)
   40a50:	10000d26 	beq	r2,zero,40a88 <pvPortMalloc+0xb0>
		{
			xWantedSize += heapSTRUCT_SIZE;
   40a54:	00800304 	movi	r2,12
   40a58:	10bfffcc 	andi	r2,r2,65535
   40a5c:	e0ffff17 	ldw	r3,-4(fp)
   40a60:	1885883a 	add	r2,r3,r2
   40a64:	e0bfff15 	stw	r2,-4(fp)

			/* Ensure that blocks are always aligned to the required number of bytes. */
			if( xWantedSize & portBYTE_ALIGNMENT_MASK )
   40a68:	e0bfff17 	ldw	r2,-4(fp)
   40a6c:	108000cc 	andi	r2,r2,3
   40a70:	10000526 	beq	r2,zero,40a88 <pvPortMalloc+0xb0>
			{
				/* Byte alignment required. */
				xWantedSize += ( portBYTE_ALIGNMENT - ( xWantedSize & portBYTE_ALIGNMENT_MASK ) );
   40a74:	e0ffff17 	ldw	r3,-4(fp)
   40a78:	00bfff04 	movi	r2,-4
   40a7c:	1884703a 	and	r2,r3,r2
   40a80:	10800104 	addi	r2,r2,4
   40a84:	e0bfff15 	stw	r2,-4(fp)
			}
		}

		if( ( xWantedSize > 0 ) && ( xWantedSize < configTOTAL_HEAP_SIZE ) )
   40a88:	e0bfff17 	ldw	r2,-4(fp)
   40a8c:	10005026 	beq	r2,zero,40bd0 <pvPortMalloc+0x1f8>
   40a90:	e0bfff17 	ldw	r2,-4(fp)
   40a94:	10a71028 	cmpgeui	r2,r2,40000
   40a98:	10004d1e 	bne	r2,zero,40bd0 <pvPortMalloc+0x1f8>
		{
			/* Blocks are stored in byte order - traverse the list from the start
			(smallest) block until one of adequate size is found. */
			pxPreviousBlock = &xStart;
   40a9c:	d0a6d104 	addi	r2,gp,-25788
   40aa0:	e0bff915 	stw	r2,-28(fp)
			pxBlock = xStart.pxNextFreeBlock;
   40aa4:	d0a6d117 	ldw	r2,-25788(gp)
   40aa8:	e0bff815 	stw	r2,-32(fp)
			while( ( pxBlock->xBlockSize < xWantedSize ) && ( pxBlock->pxNextFreeBlock ) )
   40aac:	00000506 	br	40ac4 <pvPortMalloc+0xec>
			{
				pxPreviousBlock = pxBlock;
   40ab0:	e0bff817 	ldw	r2,-32(fp)
   40ab4:	e0bff915 	stw	r2,-28(fp)
				pxBlock = pxBlock->pxNextFreeBlock;
   40ab8:	e0bff817 	ldw	r2,-32(fp)
   40abc:	10800017 	ldw	r2,0(r2)
   40ac0:	e0bff815 	stw	r2,-32(fp)
		{
			/* Blocks are stored in byte order - traverse the list from the start
			(smallest) block until one of adequate size is found. */
			pxPreviousBlock = &xStart;
			pxBlock = xStart.pxNextFreeBlock;
			while( ( pxBlock->xBlockSize < xWantedSize ) && ( pxBlock->pxNextFreeBlock ) )
   40ac4:	e0bff817 	ldw	r2,-32(fp)
   40ac8:	10c00117 	ldw	r3,4(r2)
   40acc:	e0bfff17 	ldw	r2,-4(fp)
   40ad0:	1880032e 	bgeu	r3,r2,40ae0 <pvPortMalloc+0x108>
   40ad4:	e0bff817 	ldw	r2,-32(fp)
   40ad8:	10800017 	ldw	r2,0(r2)
   40adc:	103ff41e 	bne	r2,zero,40ab0 <__alt_data_end+0xfffc6130>
				pxPreviousBlock = pxBlock;
				pxBlock = pxBlock->pxNextFreeBlock;
			}

			/* If we found the end marker then a block of adequate size was not found. */
			if( pxBlock != &xEnd )
   40ae0:	e0fff817 	ldw	r3,-32(fp)
   40ae4:	d0a6d304 	addi	r2,gp,-25780
   40ae8:	18803926 	beq	r3,r2,40bd0 <pvPortMalloc+0x1f8>
			{
				/* Return the memory space - jumping over the xBlockLink structure
				at its start. */
				pvReturn = ( void * ) ( ( ( unsigned char * ) pxPreviousBlock->pxNextFreeBlock ) + heapSTRUCT_SIZE );
   40aec:	e0bff917 	ldw	r2,-28(fp)
   40af0:	10c00017 	ldw	r3,0(r2)
   40af4:	00800304 	movi	r2,12
   40af8:	10bfffcc 	andi	r2,r2,65535
   40afc:	1885883a 	add	r2,r3,r2
   40b00:	e0bffa15 	stw	r2,-24(fp)

				/* This block is being returned for use so must be taken our of the
				list of free blocks. */
				pxPreviousBlock->pxNextFreeBlock = pxBlock->pxNextFreeBlock;
   40b04:	e0bff817 	ldw	r2,-32(fp)
   40b08:	10c00017 	ldw	r3,0(r2)
   40b0c:	e0bff917 	ldw	r2,-28(fp)
   40b10:	10c00015 	stw	r3,0(r2)

				/* If the block is larger than required it can be split into two. */
				if( ( pxBlock->xBlockSize - xWantedSize ) > heapMINIMUM_BLOCK_SIZE )
   40b14:	e0bff817 	ldw	r2,-32(fp)
   40b18:	10c00117 	ldw	r3,4(r2)
   40b1c:	e0bfff17 	ldw	r2,-4(fp)
   40b20:	1887c83a 	sub	r3,r3,r2
   40b24:	00800304 	movi	r2,12
   40b28:	10bfffcc 	andi	r2,r2,65535
   40b2c:	1085883a 	add	r2,r2,r2
   40b30:	10c0222e 	bgeu	r2,r3,40bbc <pvPortMalloc+0x1e4>
				{
					/* This block is to be split into two.  Create a new block
					following the number of bytes requested. The void cast is
					used to prevent byte alignment warnings from the compiler. */
					pxNewBlockLink = ( void * ) ( ( ( unsigned char * ) pxBlock ) + xWantedSize );
   40b34:	e0fff817 	ldw	r3,-32(fp)
   40b38:	e0bfff17 	ldw	r2,-4(fp)
   40b3c:	1885883a 	add	r2,r3,r2
   40b40:	e0bffd15 	stw	r2,-12(fp)

					/* Calculate the sizes of two blocks split from the single
					block. */
					pxNewBlockLink->xBlockSize = pxBlock->xBlockSize - xWantedSize;
   40b44:	e0bff817 	ldw	r2,-32(fp)
   40b48:	10c00117 	ldw	r3,4(r2)
   40b4c:	e0bfff17 	ldw	r2,-4(fp)
   40b50:	1887c83a 	sub	r3,r3,r2
   40b54:	e0bffd17 	ldw	r2,-12(fp)
   40b58:	10c00115 	stw	r3,4(r2)
					pxBlock->xBlockSize = xWantedSize;
   40b5c:	e0bff817 	ldw	r2,-32(fp)
   40b60:	e0ffff17 	ldw	r3,-4(fp)
   40b64:	10c00115 	stw	r3,4(r2)

					/* Insert the new block into the list of free blocks. */
					prvInsertBlockIntoFreeList( ( pxNewBlockLink ) );
   40b68:	e0bffd17 	ldw	r2,-12(fp)
   40b6c:	10800117 	ldw	r2,4(r2)
   40b70:	e0bffe15 	stw	r2,-8(fp)
   40b74:	d0a6d104 	addi	r2,gp,-25788
   40b78:	e0bffb15 	stw	r2,-20(fp)
   40b7c:	00000306 	br	40b8c <pvPortMalloc+0x1b4>
   40b80:	e0bffb17 	ldw	r2,-20(fp)
   40b84:	10800017 	ldw	r2,0(r2)
   40b88:	e0bffb15 	stw	r2,-20(fp)
   40b8c:	e0bffb17 	ldw	r2,-20(fp)
   40b90:	10800017 	ldw	r2,0(r2)
   40b94:	10c00117 	ldw	r3,4(r2)
   40b98:	e0bffe17 	ldw	r2,-8(fp)
   40b9c:	18bff836 	bltu	r3,r2,40b80 <__alt_data_end+0xfffc6200>
   40ba0:	e0bffb17 	ldw	r2,-20(fp)
   40ba4:	10c00017 	ldw	r3,0(r2)
   40ba8:	e0bffd17 	ldw	r2,-12(fp)
   40bac:	10c00015 	stw	r3,0(r2)
   40bb0:	e0bffb17 	ldw	r2,-20(fp)
   40bb4:	e0fffd17 	ldw	r3,-12(fp)
   40bb8:	10c00015 	stw	r3,0(r2)
				}
				
				xFreeBytesRemaining -= pxBlock->xBlockSize;
   40bbc:	d0e00117 	ldw	r3,-32764(gp)
   40bc0:	e0bff817 	ldw	r2,-32(fp)
   40bc4:	10800117 	ldw	r2,4(r2)
   40bc8:	1885c83a 	sub	r2,r3,r2
   40bcc:	d0a00115 	stw	r2,-32764(gp)
			}
		}
	}
	xTaskResumeAll();
   40bd0:	00423e40 	call	423e4 <xTaskResumeAll>
			vApplicationMallocFailedHook();
		}
	}
	#endif

	return pvReturn;
   40bd4:	e0bffa17 	ldw	r2,-24(fp)
}
   40bd8:	e037883a 	mov	sp,fp
   40bdc:	dfc00117 	ldw	ra,4(sp)
   40be0:	df000017 	ldw	fp,0(sp)
   40be4:	dec00204 	addi	sp,sp,8
   40be8:	f800283a 	ret

00040bec <vPortFree>:
/*-----------------------------------------------------------*/

void vPortFree( void *pv )
{
   40bec:	defff904 	addi	sp,sp,-28
   40bf0:	dfc00615 	stw	ra,24(sp)
   40bf4:	df000515 	stw	fp,20(sp)
   40bf8:	df000504 	addi	fp,sp,20
   40bfc:	e13fff15 	stw	r4,-4(fp)
unsigned char *puc = ( unsigned char * ) pv;
   40c00:	e0bfff17 	ldw	r2,-4(fp)
   40c04:	e0bffc15 	stw	r2,-16(fp)
xBlockLink *pxLink;

	if( pv )
   40c08:	e0bfff17 	ldw	r2,-4(fp)
   40c0c:	10002426 	beq	r2,zero,40ca0 <vPortFree+0xb4>
	{
		/* The memory being freed will have an xBlockLink structure immediately
		before it. */
		puc -= heapSTRUCT_SIZE;
   40c10:	00800304 	movi	r2,12
   40c14:	10bfffcc 	andi	r2,r2,65535
   40c18:	0085c83a 	sub	r2,zero,r2
   40c1c:	e0fffc17 	ldw	r3,-16(fp)
   40c20:	1885883a 	add	r2,r3,r2
   40c24:	e0bffc15 	stw	r2,-16(fp)

		/* This casting is to keep the compiler from issuing warnings. */
		pxLink = ( void * ) puc;
   40c28:	e0bffc17 	ldw	r2,-16(fp)
   40c2c:	e0bffd15 	stw	r2,-12(fp)

		vTaskSuspendAll();
   40c30:	00423bc0 	call	423bc <vTaskSuspendAll>
		{
			/* Add this block to the list of free blocks. */
			prvInsertBlockIntoFreeList( ( ( xBlockLink * ) pxLink ) );
   40c34:	e0bffd17 	ldw	r2,-12(fp)
   40c38:	10800117 	ldw	r2,4(r2)
   40c3c:	e0bffe15 	stw	r2,-8(fp)
   40c40:	d0a6d104 	addi	r2,gp,-25788
   40c44:	e0bffb15 	stw	r2,-20(fp)
   40c48:	00000306 	br	40c58 <vPortFree+0x6c>
   40c4c:	e0bffb17 	ldw	r2,-20(fp)
   40c50:	10800017 	ldw	r2,0(r2)
   40c54:	e0bffb15 	stw	r2,-20(fp)
   40c58:	e0bffb17 	ldw	r2,-20(fp)
   40c5c:	10800017 	ldw	r2,0(r2)
   40c60:	10c00117 	ldw	r3,4(r2)
   40c64:	e0bffe17 	ldw	r2,-8(fp)
   40c68:	18bff836 	bltu	r3,r2,40c4c <__alt_data_end+0xfffc62cc>
   40c6c:	e0bffb17 	ldw	r2,-20(fp)
   40c70:	10c00017 	ldw	r3,0(r2)
   40c74:	e0bffd17 	ldw	r2,-12(fp)
   40c78:	10c00015 	stw	r3,0(r2)
   40c7c:	e0bffb17 	ldw	r2,-20(fp)
   40c80:	e0fffd17 	ldw	r3,-12(fp)
   40c84:	10c00015 	stw	r3,0(r2)
			xFreeBytesRemaining += pxLink->xBlockSize;
   40c88:	e0bffd17 	ldw	r2,-12(fp)
   40c8c:	10c00117 	ldw	r3,4(r2)
   40c90:	d0a00117 	ldw	r2,-32764(gp)
   40c94:	1885883a 	add	r2,r3,r2
   40c98:	d0a00115 	stw	r2,-32764(gp)
		}
		xTaskResumeAll();
   40c9c:	00423e40 	call	423e4 <xTaskResumeAll>
	}
}
   40ca0:	e037883a 	mov	sp,fp
   40ca4:	dfc00117 	ldw	ra,4(sp)
   40ca8:	df000017 	ldw	fp,0(sp)
   40cac:	dec00204 	addi	sp,sp,8
   40cb0:	f800283a 	ret

00040cb4 <xPortGetFreeHeapSize>:
/*-----------------------------------------------------------*/

size_t xPortGetFreeHeapSize( void )
{
   40cb4:	deffff04 	addi	sp,sp,-4
   40cb8:	df000015 	stw	fp,0(sp)
   40cbc:	d839883a 	mov	fp,sp
	return xFreeBytesRemaining;
   40cc0:	d0a00117 	ldw	r2,-32764(gp)
}
   40cc4:	e037883a 	mov	sp,fp
   40cc8:	df000017 	ldw	fp,0(sp)
   40ccc:	dec00104 	addi	sp,sp,4
   40cd0:	f800283a 	ret

00040cd4 <vPortInitialiseBlocks>:
/*-----------------------------------------------------------*/

void vPortInitialiseBlocks( void )
{
   40cd4:	deffff04 	addi	sp,sp,-4
   40cd8:	df000015 	stw	fp,0(sp)
   40cdc:	d839883a 	mov	fp,sp
	/* This just exists to keep the linker quiet. */
}
   40ce0:	e037883a 	mov	sp,fp
   40ce4:	df000017 	ldw	fp,0(sp)
   40ce8:	dec00104 	addi	sp,sp,4
   40cec:	f800283a 	ret

00040cf0 <xQueueCreate>:
/*-----------------------------------------------------------
 * PUBLIC QUEUE MANAGEMENT API documented in queue.h
 *----------------------------------------------------------*/

xQueueHandle xQueueCreate( unsigned portBASE_TYPE uxQueueLength, unsigned portBASE_TYPE uxItemSize )
{
   40cf0:	defff904 	addi	sp,sp,-28
   40cf4:	dfc00615 	stw	ra,24(sp)
   40cf8:	df000515 	stw	fp,20(sp)
   40cfc:	df000504 	addi	fp,sp,20
   40d00:	e13ffe15 	stw	r4,-8(fp)
   40d04:	e17fff15 	stw	r5,-4(fp)
xQUEUE *pxNewQueue;
size_t xQueueSizeInBytes;
xQueueHandle xReturn = NULL;
   40d08:	e03ffb15 	stw	zero,-20(fp)

	/* Allocate the new queue structure. */
	if( uxQueueLength > ( unsigned portBASE_TYPE ) 0 )
   40d0c:	e0bffe17 	ldw	r2,-8(fp)
   40d10:	10004226 	beq	r2,zero,40e1c <xQueueCreate+0x12c>
	{
		pxNewQueue = ( xQUEUE * ) pvPortMalloc( sizeof( xQUEUE ) );
   40d14:	01001304 	movi	r4,76
   40d18:	00409d80 	call	409d8 <pvPortMalloc>
   40d1c:	e0bffc15 	stw	r2,-16(fp)
		if( pxNewQueue != NULL )
   40d20:	e0bffc17 	ldw	r2,-16(fp)
   40d24:	10003d26 	beq	r2,zero,40e1c <xQueueCreate+0x12c>
		{
			/* Create the list of pointers to queue items.  The queue is one byte
			longer than asked for to make wrap checking easier/faster. */
			xQueueSizeInBytes = ( size_t ) ( uxQueueLength * uxItemSize ) + ( size_t ) 1;
   40d28:	e0fffe17 	ldw	r3,-8(fp)
   40d2c:	e0bfff17 	ldw	r2,-4(fp)
   40d30:	1885383a 	mul	r2,r3,r2
   40d34:	10800044 	addi	r2,r2,1
   40d38:	e0bffd15 	stw	r2,-12(fp)

			pxNewQueue->pcHead = ( signed char * ) pvPortMalloc( xQueueSizeInBytes );
   40d3c:	e13ffd17 	ldw	r4,-12(fp)
   40d40:	00409d80 	call	409d8 <pvPortMalloc>
   40d44:	1007883a 	mov	r3,r2
   40d48:	e0bffc17 	ldw	r2,-16(fp)
   40d4c:	10c00015 	stw	r3,0(r2)
			if( pxNewQueue->pcHead != NULL )
   40d50:	e0bffc17 	ldw	r2,-16(fp)
   40d54:	10800017 	ldw	r2,0(r2)
   40d58:	10002e26 	beq	r2,zero,40e14 <xQueueCreate+0x124>
			{
				/* Initialise the queue members as described above where the
				queue type is defined. */
				pxNewQueue->pcTail = pxNewQueue->pcHead + ( uxQueueLength * uxItemSize );
   40d5c:	e0bffc17 	ldw	r2,-16(fp)
   40d60:	10c00017 	ldw	r3,0(r2)
   40d64:	e13ffe17 	ldw	r4,-8(fp)
   40d68:	e0bfff17 	ldw	r2,-4(fp)
   40d6c:	2085383a 	mul	r2,r4,r2
   40d70:	1887883a 	add	r3,r3,r2
   40d74:	e0bffc17 	ldw	r2,-16(fp)
   40d78:	10c00115 	stw	r3,4(r2)
				pxNewQueue->uxMessagesWaiting = ( unsigned portBASE_TYPE ) 0U;
   40d7c:	e0bffc17 	ldw	r2,-16(fp)
   40d80:	10000e15 	stw	zero,56(r2)
				pxNewQueue->pcWriteTo = pxNewQueue->pcHead;
   40d84:	e0bffc17 	ldw	r2,-16(fp)
   40d88:	10c00017 	ldw	r3,0(r2)
   40d8c:	e0bffc17 	ldw	r2,-16(fp)
   40d90:	10c00215 	stw	r3,8(r2)
				pxNewQueue->pcReadFrom = pxNewQueue->pcHead + ( ( uxQueueLength - ( unsigned portBASE_TYPE ) 1U ) * uxItemSize );
   40d94:	e0bffc17 	ldw	r2,-16(fp)
   40d98:	10c00017 	ldw	r3,0(r2)
   40d9c:	e0bffe17 	ldw	r2,-8(fp)
   40da0:	113fffc4 	addi	r4,r2,-1
   40da4:	e0bfff17 	ldw	r2,-4(fp)
   40da8:	2085383a 	mul	r2,r4,r2
   40dac:	1887883a 	add	r3,r3,r2
   40db0:	e0bffc17 	ldw	r2,-16(fp)
   40db4:	10c00315 	stw	r3,12(r2)
				pxNewQueue->uxLength = uxQueueLength;
   40db8:	e0bffc17 	ldw	r2,-16(fp)
   40dbc:	e0fffe17 	ldw	r3,-8(fp)
   40dc0:	10c00f15 	stw	r3,60(r2)
				pxNewQueue->uxItemSize = uxItemSize;
   40dc4:	e0bffc17 	ldw	r2,-16(fp)
   40dc8:	e0ffff17 	ldw	r3,-4(fp)
   40dcc:	10c01015 	stw	r3,64(r2)
				pxNewQueue->xRxLock = queueUNLOCKED;
   40dd0:	e0bffc17 	ldw	r2,-16(fp)
   40dd4:	00ffffc4 	movi	r3,-1
   40dd8:	10c01115 	stw	r3,68(r2)
				pxNewQueue->xTxLock = queueUNLOCKED;
   40ddc:	e0bffc17 	ldw	r2,-16(fp)
   40de0:	00ffffc4 	movi	r3,-1
   40de4:	10c01215 	stw	r3,72(r2)

				/* Likewise ensure the event queues start with the correct state. */
				vListInitialise( &( pxNewQueue->xTasksWaitingToSend ) );
   40de8:	e0bffc17 	ldw	r2,-16(fp)
   40dec:	10800404 	addi	r2,r2,16
   40df0:	1009883a 	mov	r4,r2
   40df4:	00402980 	call	40298 <vListInitialise>
				vListInitialise( &( pxNewQueue->xTasksWaitingToReceive ) );
   40df8:	e0bffc17 	ldw	r2,-16(fp)
   40dfc:	10800904 	addi	r2,r2,36
   40e00:	1009883a 	mov	r4,r2
   40e04:	00402980 	call	40298 <vListInitialise>

				traceQUEUE_CREATE( pxNewQueue );
				xReturn = pxNewQueue;
   40e08:	e0bffc17 	ldw	r2,-16(fp)
   40e0c:	e0bffb15 	stw	r2,-20(fp)
   40e10:	00000206 	br	40e1c <xQueueCreate+0x12c>
			}
			else
			{
				traceQUEUE_CREATE_FAILED();
				vPortFree( pxNewQueue );
   40e14:	e13ffc17 	ldw	r4,-16(fp)
   40e18:	0040bec0 	call	40bec <vPortFree>
		}
	}

	configASSERT( xReturn );

	return xReturn;
   40e1c:	e0bffb17 	ldw	r2,-20(fp)
}
   40e20:	e037883a 	mov	sp,fp
   40e24:	dfc00117 	ldw	ra,4(sp)
   40e28:	df000017 	ldw	fp,0(sp)
   40e2c:	dec00204 	addi	sp,sp,8
   40e30:	f800283a 	ret

00040e34 <xQueueCreateMutex>:
/*-----------------------------------------------------------*/

#if ( configUSE_MUTEXES == 1 )

	xQueueHandle xQueueCreateMutex( void )
	{
   40e34:	defffd04 	addi	sp,sp,-12
   40e38:	dfc00215 	stw	ra,8(sp)
   40e3c:	df000115 	stw	fp,4(sp)
   40e40:	df000104 	addi	fp,sp,4
	xQUEUE *pxNewQueue;

		/* Allocate the new queue structure. */
		pxNewQueue = ( xQUEUE * ) pvPortMalloc( sizeof( xQUEUE ) );
   40e44:	01001304 	movi	r4,76
   40e48:	00409d80 	call	409d8 <pvPortMalloc>
   40e4c:	e0bfff15 	stw	r2,-4(fp)
		if( pxNewQueue != NULL )
   40e50:	e0bfff17 	ldw	r2,-4(fp)
   40e54:	10002226 	beq	r2,zero,40ee0 <xQueueCreateMutex+0xac>
		{
			/* Information required for priority inheritance. */
			pxNewQueue->pxMutexHolder = NULL;
   40e58:	e0bfff17 	ldw	r2,-4(fp)
   40e5c:	10000115 	stw	zero,4(r2)
			pxNewQueue->uxQueueType = queueQUEUE_IS_MUTEX;
   40e60:	e0bfff17 	ldw	r2,-4(fp)
   40e64:	10000015 	stw	zero,0(r2)

			/* Queues used as a mutex no data is actually copied into or out
			of the queue. */
			pxNewQueue->pcWriteTo = NULL;
   40e68:	e0bfff17 	ldw	r2,-4(fp)
   40e6c:	10000215 	stw	zero,8(r2)
			pxNewQueue->pcReadFrom = NULL;
   40e70:	e0bfff17 	ldw	r2,-4(fp)
   40e74:	10000315 	stw	zero,12(r2)

			/* Each mutex has a length of 1 (like a binary semaphore) and
			an item size of 0 as nothing is actually copied into or out
			of the mutex. */
			pxNewQueue->uxMessagesWaiting = ( unsigned portBASE_TYPE ) 0U;
   40e78:	e0bfff17 	ldw	r2,-4(fp)
   40e7c:	10000e15 	stw	zero,56(r2)
			pxNewQueue->uxLength = ( unsigned portBASE_TYPE ) 1U;
   40e80:	e0bfff17 	ldw	r2,-4(fp)
   40e84:	00c00044 	movi	r3,1
   40e88:	10c00f15 	stw	r3,60(r2)
			pxNewQueue->uxItemSize = ( unsigned portBASE_TYPE ) 0U;
   40e8c:	e0bfff17 	ldw	r2,-4(fp)
   40e90:	10001015 	stw	zero,64(r2)
			pxNewQueue->xRxLock = queueUNLOCKED;
   40e94:	e0bfff17 	ldw	r2,-4(fp)
   40e98:	00ffffc4 	movi	r3,-1
   40e9c:	10c01115 	stw	r3,68(r2)
			pxNewQueue->xTxLock = queueUNLOCKED;
   40ea0:	e0bfff17 	ldw	r2,-4(fp)
   40ea4:	00ffffc4 	movi	r3,-1
   40ea8:	10c01215 	stw	r3,72(r2)

			/* Ensure the event queues start with the correct state. */
			vListInitialise( &( pxNewQueue->xTasksWaitingToSend ) );
   40eac:	e0bfff17 	ldw	r2,-4(fp)
   40eb0:	10800404 	addi	r2,r2,16
   40eb4:	1009883a 	mov	r4,r2
   40eb8:	00402980 	call	40298 <vListInitialise>
			vListInitialise( &( pxNewQueue->xTasksWaitingToReceive ) );
   40ebc:	e0bfff17 	ldw	r2,-4(fp)
   40ec0:	10800904 	addi	r2,r2,36
   40ec4:	1009883a 	mov	r4,r2
   40ec8:	00402980 	call	40298 <vListInitialise>

			/* Start with the semaphore in the expected state. */
			xQueueGenericSend( pxNewQueue, NULL, ( portTickType ) 0U, queueSEND_TO_BACK );
   40ecc:	e13fff17 	ldw	r4,-4(fp)
   40ed0:	000b883a 	mov	r5,zero
   40ed4:	000d883a 	mov	r6,zero
   40ed8:	000f883a 	mov	r7,zero
   40edc:	00410740 	call	41074 <xQueueGenericSend>
		{
			traceCREATE_MUTEX_FAILED();
		}

		configASSERT( pxNewQueue );
		return pxNewQueue;
   40ee0:	e0bfff17 	ldw	r2,-4(fp)
	}
   40ee4:	e037883a 	mov	sp,fp
   40ee8:	dfc00117 	ldw	ra,4(sp)
   40eec:	df000017 	ldw	fp,0(sp)
   40ef0:	dec00204 	addi	sp,sp,8
   40ef4:	f800283a 	ret

00040ef8 <xQueueGiveMutexRecursive>:
/*-----------------------------------------------------------*/

#if configUSE_RECURSIVE_MUTEXES == 1

	portBASE_TYPE xQueueGiveMutexRecursive( xQueueHandle pxMutex )
	{
   40ef8:	defffb04 	addi	sp,sp,-20
   40efc:	dfc00415 	stw	ra,16(sp)
   40f00:	df000315 	stw	fp,12(sp)
   40f04:	dc000215 	stw	r16,8(sp)
   40f08:	df000304 	addi	fp,sp,12
   40f0c:	e13ffe15 	stw	r4,-8(fp)
		change outside of this task.  If this task does not hold the mutex then
		pxMutexHolder can never coincidentally equal the tasks handle, and as
		this is the only condition we are interested in it does not matter if
		pxMutexHolder is accessed simultaneously by another task.  Therefore no
		mutual exclusion is required to test the pxMutexHolder variable. */
		if( pxMutex->pxMutexHolder == xTaskGetCurrentTaskHandle() )
   40f10:	e0bffe17 	ldw	r2,-8(fp)
   40f14:	14000117 	ldw	r16,4(r2)
   40f18:	0042f880 	call	42f88 <xTaskGetCurrentTaskHandle>
   40f1c:	8080101e 	bne	r16,r2,40f60 <xQueueGiveMutexRecursive+0x68>
			/* uxRecursiveCallCount cannot be zero if pxMutexHolder is equal to
			the task handle, therefore no underflow check is required.  Also,
			uxRecursiveCallCount is only modified by the mutex holder, and as
			there can only be one, no mutual exclusion is required to modify the
			uxRecursiveCallCount member. */
			( pxMutex->uxRecursiveCallCount )--;
   40f20:	e0bffe17 	ldw	r2,-8(fp)
   40f24:	10800317 	ldw	r2,12(r2)
   40f28:	10ffffc4 	addi	r3,r2,-1
   40f2c:	e0bffe17 	ldw	r2,-8(fp)
   40f30:	10c00315 	stw	r3,12(r2)

			/* Have we unwound the call count? */
			if( pxMutex->uxRecursiveCallCount == 0 )
   40f34:	e0bffe17 	ldw	r2,-8(fp)
   40f38:	10800317 	ldw	r2,12(r2)
   40f3c:	1000051e 	bne	r2,zero,40f54 <xQueueGiveMutexRecursive+0x5c>
			{
				/* Return the mutex.  This will automatically unblock any other
				task that might be waiting to access the mutex. */
				xQueueGenericSend( pxMutex, NULL, queueMUTEX_GIVE_BLOCK_TIME, queueSEND_TO_BACK );
   40f40:	e13ffe17 	ldw	r4,-8(fp)
   40f44:	000b883a 	mov	r5,zero
   40f48:	000d883a 	mov	r6,zero
   40f4c:	000f883a 	mov	r7,zero
   40f50:	00410740 	call	41074 <xQueueGenericSend>
			}

			xReturn = pdPASS;
   40f54:	00800044 	movi	r2,1
   40f58:	e0bffd15 	stw	r2,-12(fp)
   40f5c:	00000106 	br	40f64 <xQueueGiveMutexRecursive+0x6c>
		}
		else
		{
			/* We cannot give the mutex because we are not the holder. */
			xReturn = pdFAIL;
   40f60:	e03ffd15 	stw	zero,-12(fp)

			traceGIVE_MUTEX_RECURSIVE_FAILED( pxMutex );
		}

		return xReturn;
   40f64:	e0bffd17 	ldw	r2,-12(fp)
	}
   40f68:	e6ffff04 	addi	sp,fp,-4
   40f6c:	dfc00217 	ldw	ra,8(sp)
   40f70:	df000117 	ldw	fp,4(sp)
   40f74:	dc000017 	ldw	r16,0(sp)
   40f78:	dec00304 	addi	sp,sp,12
   40f7c:	f800283a 	ret

00040f80 <xQueueTakeMutexRecursive>:
/*-----------------------------------------------------------*/

#if configUSE_RECURSIVE_MUTEXES == 1

	portBASE_TYPE xQueueTakeMutexRecursive( xQueueHandle pxMutex, portTickType xBlockTime )
	{
   40f80:	defffa04 	addi	sp,sp,-24
   40f84:	dfc00515 	stw	ra,20(sp)
   40f88:	df000415 	stw	fp,16(sp)
   40f8c:	dc000315 	stw	r16,12(sp)
   40f90:	df000404 	addi	fp,sp,16
   40f94:	e13ffd15 	stw	r4,-12(fp)
   40f98:	e17ffe15 	stw	r5,-8(fp)
		/* Comments regarding mutual exclusion as per those within
		xQueueGiveMutexRecursive(). */

		traceTAKE_MUTEX_RECURSIVE( pxMutex );

		if( pxMutex->pxMutexHolder == xTaskGetCurrentTaskHandle() )
   40f9c:	e0bffd17 	ldw	r2,-12(fp)
   40fa0:	14000117 	ldw	r16,4(r2)
   40fa4:	0042f880 	call	42f88 <xTaskGetCurrentTaskHandle>
   40fa8:	8080081e 	bne	r16,r2,40fcc <xQueueTakeMutexRecursive+0x4c>
		{
			( pxMutex->uxRecursiveCallCount )++;
   40fac:	e0bffd17 	ldw	r2,-12(fp)
   40fb0:	10800317 	ldw	r2,12(r2)
   40fb4:	10c00044 	addi	r3,r2,1
   40fb8:	e0bffd17 	ldw	r2,-12(fp)
   40fbc:	10c00315 	stw	r3,12(r2)
			xReturn = pdPASS;
   40fc0:	00800044 	movi	r2,1
   40fc4:	e0bffc15 	stw	r2,-16(fp)
   40fc8:	00000e06 	br	41004 <xQueueTakeMutexRecursive+0x84>
		}
		else
		{
			xReturn = xQueueGenericReceive( pxMutex, NULL, xBlockTime, pdFALSE );
   40fcc:	e13ffd17 	ldw	r4,-12(fp)
   40fd0:	000b883a 	mov	r5,zero
   40fd4:	e1bffe17 	ldw	r6,-8(fp)
   40fd8:	000f883a 	mov	r7,zero
   40fdc:	00412b80 	call	412b8 <xQueueGenericReceive>
   40fe0:	e0bffc15 	stw	r2,-16(fp)

			/* pdPASS will only be returned if we successfully obtained the mutex,
			we may have blocked to reach here. */
			if( xReturn == pdPASS )
   40fe4:	e0bffc17 	ldw	r2,-16(fp)
   40fe8:	10800058 	cmpnei	r2,r2,1
   40fec:	1000051e 	bne	r2,zero,41004 <xQueueTakeMutexRecursive+0x84>
			{
				( pxMutex->uxRecursiveCallCount )++;
   40ff0:	e0bffd17 	ldw	r2,-12(fp)
   40ff4:	10800317 	ldw	r2,12(r2)
   40ff8:	10c00044 	addi	r3,r2,1
   40ffc:	e0bffd17 	ldw	r2,-12(fp)
   41000:	10c00315 	stw	r3,12(r2)
			{
				traceTAKE_MUTEX_RECURSIVE_FAILED( pxMutex );
			}
		}

		return xReturn;
   41004:	e0bffc17 	ldw	r2,-16(fp)
	}
   41008:	e6ffff04 	addi	sp,fp,-4
   4100c:	dfc00217 	ldw	ra,8(sp)
   41010:	df000117 	ldw	fp,4(sp)
   41014:	dc000017 	ldw	r16,0(sp)
   41018:	dec00304 	addi	sp,sp,12
   4101c:	f800283a 	ret

00041020 <xQueueCreateCountingSemaphore>:
/*-----------------------------------------------------------*/

#if configUSE_COUNTING_SEMAPHORES == 1

	xQueueHandle xQueueCreateCountingSemaphore( unsigned portBASE_TYPE uxCountValue, unsigned portBASE_TYPE uxInitialCount )
	{
   41020:	defffb04 	addi	sp,sp,-20
   41024:	dfc00415 	stw	ra,16(sp)
   41028:	df000315 	stw	fp,12(sp)
   4102c:	df000304 	addi	fp,sp,12
   41030:	e13ffe15 	stw	r4,-8(fp)
   41034:	e17fff15 	stw	r5,-4(fp)
	xQueueHandle pxHandle;

		pxHandle = xQueueCreate( ( unsigned portBASE_TYPE ) uxCountValue, queueSEMAPHORE_QUEUE_ITEM_LENGTH );
   41038:	e13ffe17 	ldw	r4,-8(fp)
   4103c:	000b883a 	mov	r5,zero
   41040:	0040cf00 	call	40cf0 <xQueueCreate>
   41044:	e0bffd15 	stw	r2,-12(fp)

		if( pxHandle != NULL )
   41048:	e0bffd17 	ldw	r2,-12(fp)
   4104c:	10000326 	beq	r2,zero,4105c <xQueueCreateCountingSemaphore+0x3c>
		{
			pxHandle->uxMessagesWaiting = uxInitialCount;
   41050:	e0bffd17 	ldw	r2,-12(fp)
   41054:	e0ffff17 	ldw	r3,-4(fp)
   41058:	10c00e15 	stw	r3,56(r2)
		{
			traceCREATE_COUNTING_SEMAPHORE_FAILED();
		}

		configASSERT( pxHandle );
		return pxHandle;
   4105c:	e0bffd17 	ldw	r2,-12(fp)
	}
   41060:	e037883a 	mov	sp,fp
   41064:	dfc00117 	ldw	ra,4(sp)
   41068:	df000017 	ldw	fp,0(sp)
   4106c:	dec00204 	addi	sp,sp,8
   41070:	f800283a 	ret

00041074 <xQueueGenericSend>:

#endif /* configUSE_COUNTING_SEMAPHORES */
/*-----------------------------------------------------------*/

signed portBASE_TYPE xQueueGenericSend( xQueueHandle pxQueue, const void * const pvItemToQueue, portTickType xTicksToWait, portBASE_TYPE xCopyPosition )
{
   41074:	defff704 	addi	sp,sp,-36
   41078:	dfc00815 	stw	ra,32(sp)
   4107c:	df000715 	stw	fp,28(sp)
   41080:	df000704 	addi	fp,sp,28
   41084:	e13ffc15 	stw	r4,-16(fp)
   41088:	e17ffd15 	stw	r5,-12(fp)
   4108c:	e1bffe15 	stw	r6,-8(fp)
   41090:	e1ffff15 	stw	r7,-4(fp)
signed portBASE_TYPE xEntryTimeSet = pdFALSE;
   41094:	e03ff915 	stw	zero,-28(fp)
	/* This function relaxes the coding standard somewhat to allow return
	statements within the function itself.  This is done in the interest
	of execution time efficiency. */
	for( ;; )
	{
		taskENTER_CRITICAL();
   41098:	00431780 	call	43178 <vTaskEnterCritical>
		{
			/* Is there room on the queue now?  To be running we must be
			the highest priority task wanting to access the queue. */
			if( pxQueue->uxMessagesWaiting < pxQueue->uxLength )
   4109c:	e0bffc17 	ldw	r2,-16(fp)
   410a0:	10c00e17 	ldw	r3,56(r2)
   410a4:	e0bffc17 	ldw	r2,-16(fp)
   410a8:	10800f17 	ldw	r2,60(r2)
   410ac:	1880112e 	bgeu	r3,r2,410f4 <xQueueGenericSend+0x80>
			{
				traceQUEUE_SEND( pxQueue );
				prvCopyDataToQueue( pxQueue, pvItemToQueue, xCopyPosition );
   410b0:	e13ffc17 	ldw	r4,-16(fp)
   410b4:	e17ffd17 	ldw	r5,-12(fp)
   410b8:	e1bfff17 	ldw	r6,-4(fp)
   410bc:	00416400 	call	41640 <prvCopyDataToQueue>

				/* If there was a task waiting for data to arrive on the
				queue then unblock it now. */
				if( listLIST_IS_EMPTY( &( pxQueue->xTasksWaitingToReceive ) ) == pdFALSE )
   410c0:	e0bffc17 	ldw	r2,-16(fp)
   410c4:	10800917 	ldw	r2,36(r2)
   410c8:	10000726 	beq	r2,zero,410e8 <xQueueGenericSend+0x74>
				{
					if( xTaskRemoveFromEventList( &( pxQueue->xTasksWaitingToReceive ) ) == pdTRUE )
   410cc:	e0bffc17 	ldw	r2,-16(fp)
   410d0:	10800904 	addi	r2,r2,36
   410d4:	1009883a 	mov	r4,r2
   410d8:	00428d80 	call	428d8 <xTaskRemoveFromEventList>
   410dc:	10800058 	cmpnei	r2,r2,1
   410e0:	1000011e 	bne	r2,zero,410e8 <xQueueGenericSend+0x74>
					{
						/* The unblocked task has a priority higher than
						our own so yield immediately.  Yes it is ok to do
						this from within the critical section - the kernel
						takes care of that. */
						portYIELD_WITHIN_API();
   410e4:	003b683a 	trap	0
					}
				}

				taskEXIT_CRITICAL();
   410e8:	00431c40 	call	431c4 <vTaskExitCritical>

				/* Return to the original privilege level before exiting the
				function. */
				return pdPASS;
   410ec:	00800044 	movi	r2,1
   410f0:	00003b06 	br	411e0 <xQueueGenericSend+0x16c>
			}
			else
			{
				if( xTicksToWait == ( portTickType ) 0 )
   410f4:	e0bffe17 	ldw	r2,-8(fp)
   410f8:	1000031e 	bne	r2,zero,41108 <xQueueGenericSend+0x94>
				{
					/* The queue was full and no block time is specified (or
					the block time has expired) so leave now. */
					taskEXIT_CRITICAL();
   410fc:	00431c40 	call	431c4 <vTaskExitCritical>

					/* Return to the original privilege level before exiting
					the function. */
					traceQUEUE_SEND_FAILED( pxQueue );
					return errQUEUE_FULL;
   41100:	0005883a 	mov	r2,zero
   41104:	00003606 	br	411e0 <xQueueGenericSend+0x16c>
				}
				else if( xEntryTimeSet == pdFALSE )
   41108:	e0bff917 	ldw	r2,-28(fp)
   4110c:	1000051e 	bne	r2,zero,41124 <xQueueGenericSend+0xb0>
				{
					/* The queue was full and a block time was specified so
					configure the timeout structure. */
					vTaskSetTimeOutState( &xTimeOut );
   41110:	e0bffa04 	addi	r2,fp,-24
   41114:	1009883a 	mov	r4,r2
   41118:	00429c40 	call	429c4 <vTaskSetTimeOutState>
					xEntryTimeSet = pdTRUE;
   4111c:	00800044 	movi	r2,1
   41120:	e0bff915 	stw	r2,-28(fp)
				}
			}
		}
		taskEXIT_CRITICAL();
   41124:	00431c40 	call	431c4 <vTaskExitCritical>

		/* Interrupts and other tasks can send to and receive from the queue
		now the critical section has been exited. */

		vTaskSuspendAll();
   41128:	00423bc0 	call	423bc <vTaskSuspendAll>
		prvLockQueue( pxQueue );
   4112c:	00431780 	call	43178 <vTaskEnterCritical>
   41130:	e0bffc17 	ldw	r2,-16(fp)
   41134:	10801117 	ldw	r2,68(r2)
   41138:	10bfffd8 	cmpnei	r2,r2,-1
   4113c:	1000021e 	bne	r2,zero,41148 <xQueueGenericSend+0xd4>
   41140:	e0bffc17 	ldw	r2,-16(fp)
   41144:	10001115 	stw	zero,68(r2)
   41148:	e0bffc17 	ldw	r2,-16(fp)
   4114c:	10801217 	ldw	r2,72(r2)
   41150:	10bfffd8 	cmpnei	r2,r2,-1
   41154:	1000021e 	bne	r2,zero,41160 <xQueueGenericSend+0xec>
   41158:	e0bffc17 	ldw	r2,-16(fp)
   4115c:	10001215 	stw	zero,72(r2)
   41160:	00431c40 	call	431c4 <vTaskExitCritical>

		/* Update the timeout state to see if it has expired yet. */
		if( xTaskCheckForTimeOut( &xTimeOut, &xTicksToWait ) == pdFALSE )
   41164:	e0fffa04 	addi	r3,fp,-24
   41168:	e0bffe04 	addi	r2,fp,-8
   4116c:	1809883a 	mov	r4,r3
   41170:	100b883a 	mov	r5,r2
   41174:	00429fc0 	call	429fc <xTaskCheckForTimeOut>
   41178:	1000131e 	bne	r2,zero,411c8 <xQueueGenericSend+0x154>
		{
			if( prvIsQueueFull( pxQueue ) )
   4117c:	e13ffc17 	ldw	r4,-16(fp)
   41180:	00419a00 	call	419a0 <prvIsQueueFull>
   41184:	10000c26 	beq	r2,zero,411b8 <xQueueGenericSend+0x144>
			{
				traceBLOCKING_ON_QUEUE_SEND( pxQueue );
				vTaskPlaceOnEventList( &( pxQueue->xTasksWaitingToSend ), xTicksToWait );
   41188:	e0bffc17 	ldw	r2,-16(fp)
   4118c:	10c00404 	addi	r3,r2,16
   41190:	e0bffe17 	ldw	r2,-8(fp)
   41194:	1809883a 	mov	r4,r3
   41198:	100b883a 	mov	r5,r2
   4119c:	00428480 	call	42848 <vTaskPlaceOnEventList>
				/* Unlocking the queue means queue events can effect the
				event list.  It is possible	that interrupts occurring now
				remove this task from the event	list again - but as the
				scheduler is suspended the task will go onto the pending
				ready last instead of the actual ready list. */
				prvUnlockQueue( pxQueue );
   411a0:	e13ffc17 	ldw	r4,-16(fp)
   411a4:	00418300 	call	41830 <prvUnlockQueue>
				/* Resuming the scheduler will move tasks from the pending
				ready list into the ready list - so it is feasible that this
				task is already in a ready list before it yields - in which
				case the yield will not cause a context switch unless there
				is also a higher priority task in the pending ready list. */
				if( !xTaskResumeAll() )
   411a8:	00423e40 	call	423e4 <xTaskResumeAll>
   411ac:	10000b1e 	bne	r2,zero,411dc <xQueueGenericSend+0x168>
				{
					portYIELD_WITHIN_API();
   411b0:	003b683a 	trap	0
   411b4:	00000906 	br	411dc <xQueueGenericSend+0x168>
				}
			}
			else
			{
				/* Try again. */
				prvUnlockQueue( pxQueue );
   411b8:	e13ffc17 	ldw	r4,-16(fp)
   411bc:	00418300 	call	41830 <prvUnlockQueue>
				( void ) xTaskResumeAll();
   411c0:	00423e40 	call	423e4 <xTaskResumeAll>
   411c4:	003fb406 	br	41098 <__alt_data_end+0xfffc6718>
			}
		}
		else
		{
			/* The timeout has expired. */
			prvUnlockQueue( pxQueue );
   411c8:	e13ffc17 	ldw	r4,-16(fp)
   411cc:	00418300 	call	41830 <prvUnlockQueue>
			( void ) xTaskResumeAll();
   411d0:	00423e40 	call	423e4 <xTaskResumeAll>

			/* Return to the original privilege level before exiting the
			function. */
			traceQUEUE_SEND_FAILED( pxQueue );
			return errQUEUE_FULL;
   411d4:	0005883a 	mov	r2,zero
   411d8:	00000106 	br	411e0 <xQueueGenericSend+0x16c>
		}
	}
   411dc:	003fae06 	br	41098 <__alt_data_end+0xfffc6718>
}
   411e0:	e037883a 	mov	sp,fp
   411e4:	dfc00117 	ldw	ra,4(sp)
   411e8:	df000017 	ldw	fp,0(sp)
   411ec:	dec00204 	addi	sp,sp,8
   411f0:	f800283a 	ret

000411f4 <xQueueGenericSendFromISR>:

#endif /* configUSE_ALTERNATIVE_API */
/*-----------------------------------------------------------*/

signed portBASE_TYPE xQueueGenericSendFromISR( xQueueHandle pxQueue, const void * const pvItemToQueue, signed portBASE_TYPE *pxHigherPriorityTaskWoken, portBASE_TYPE xCopyPosition )
{
   411f4:	defff804 	addi	sp,sp,-32
   411f8:	dfc00715 	stw	ra,28(sp)
   411fc:	df000615 	stw	fp,24(sp)
   41200:	df000604 	addi	fp,sp,24
   41204:	e13ffc15 	stw	r4,-16(fp)
   41208:	e17ffd15 	stw	r5,-12(fp)
   4120c:	e1bffe15 	stw	r6,-8(fp)
   41210:	e1ffff15 	stw	r7,-4(fp)
	/* Similar to xQueueGenericSend, except we don't block if there is no room
	in the queue.  Also we don't directly wake a task that was blocked on a
	queue read, instead we return a flag to say whether a context switch is
	required or not (i.e. has a task with a higher priority than us been woken
	by this	post). */
	uxSavedInterruptStatus = portSET_INTERRUPT_MASK_FROM_ISR();
   41214:	e03ffb15 	stw	zero,-20(fp)
	{
		if( pxQueue->uxMessagesWaiting < pxQueue->uxLength )
   41218:	e0bffc17 	ldw	r2,-16(fp)
   4121c:	10c00e17 	ldw	r3,56(r2)
   41220:	e0bffc17 	ldw	r2,-16(fp)
   41224:	10800f17 	ldw	r2,60(r2)
   41228:	18801c2e 	bgeu	r3,r2,4129c <xQueueGenericSendFromISR+0xa8>
		{
			traceQUEUE_SEND_FROM_ISR( pxQueue );

			prvCopyDataToQueue( pxQueue, pvItemToQueue, xCopyPosition );
   4122c:	e13ffc17 	ldw	r4,-16(fp)
   41230:	e17ffd17 	ldw	r5,-12(fp)
   41234:	e1bfff17 	ldw	r6,-4(fp)
   41238:	00416400 	call	41640 <prvCopyDataToQueue>

			/* If the queue is locked we do not alter the event list.  This will
			be done when the queue is unlocked later. */
			if( pxQueue->xTxLock == queueUNLOCKED )
   4123c:	e0bffc17 	ldw	r2,-16(fp)
   41240:	10801217 	ldw	r2,72(r2)
   41244:	10bfffd8 	cmpnei	r2,r2,-1
   41248:	10000c1e 	bne	r2,zero,4127c <xQueueGenericSendFromISR+0x88>
			{
				if( listLIST_IS_EMPTY( &( pxQueue->xTasksWaitingToReceive ) ) == pdFALSE )
   4124c:	e0bffc17 	ldw	r2,-16(fp)
   41250:	10800917 	ldw	r2,36(r2)
   41254:	10000e26 	beq	r2,zero,41290 <xQueueGenericSendFromISR+0x9c>
				{
					if( xTaskRemoveFromEventList( &( pxQueue->xTasksWaitingToReceive ) ) != pdFALSE )
   41258:	e0bffc17 	ldw	r2,-16(fp)
   4125c:	10800904 	addi	r2,r2,36
   41260:	1009883a 	mov	r4,r2
   41264:	00428d80 	call	428d8 <xTaskRemoveFromEventList>
   41268:	10000926 	beq	r2,zero,41290 <xQueueGenericSendFromISR+0x9c>
					{
						/* The task waiting has a higher priority so record that a
						context	switch is required. */
						*pxHigherPriorityTaskWoken = pdTRUE;
   4126c:	e0bffe17 	ldw	r2,-8(fp)
   41270:	00c00044 	movi	r3,1
   41274:	10c00015 	stw	r3,0(r2)
   41278:	00000506 	br	41290 <xQueueGenericSendFromISR+0x9c>
			}
			else
			{
				/* Increment the lock count so the task that unlocks the queue
				knows that data was posted while it was locked. */
				++( pxQueue->xTxLock );
   4127c:	e0bffc17 	ldw	r2,-16(fp)
   41280:	10801217 	ldw	r2,72(r2)
   41284:	10c00044 	addi	r3,r2,1
   41288:	e0bffc17 	ldw	r2,-16(fp)
   4128c:	10c01215 	stw	r3,72(r2)
			}

			xReturn = pdPASS;
   41290:	00800044 	movi	r2,1
   41294:	e0bffa15 	stw	r2,-24(fp)
   41298:	00000106 	br	412a0 <xQueueGenericSendFromISR+0xac>
		}
		else
		{
			traceQUEUE_SEND_FROM_ISR_FAILED( pxQueue );
			xReturn = errQUEUE_FULL;
   4129c:	e03ffa15 	stw	zero,-24(fp)
		}
	}
	portCLEAR_INTERRUPT_MASK_FROM_ISR( uxSavedInterruptStatus );

	return xReturn;
   412a0:	e0bffa17 	ldw	r2,-24(fp)
}
   412a4:	e037883a 	mov	sp,fp
   412a8:	dfc00117 	ldw	ra,4(sp)
   412ac:	df000017 	ldw	fp,0(sp)
   412b0:	dec00204 	addi	sp,sp,8
   412b4:	f800283a 	ret

000412b8 <xQueueGenericReceive>:
/*-----------------------------------------------------------*/

signed portBASE_TYPE xQueueGenericReceive( xQueueHandle pxQueue, void * const pvBuffer, portTickType xTicksToWait, portBASE_TYPE xJustPeeking )
{
   412b8:	defff604 	addi	sp,sp,-40
   412bc:	dfc00915 	stw	ra,36(sp)
   412c0:	df000815 	stw	fp,32(sp)
   412c4:	df000804 	addi	fp,sp,32
   412c8:	e13ffc15 	stw	r4,-16(fp)
   412cc:	e17ffd15 	stw	r5,-12(fp)
   412d0:	e1bffe15 	stw	r6,-8(fp)
   412d4:	e1ffff15 	stw	r7,-4(fp)
signed portBASE_TYPE xEntryTimeSet = pdFALSE;
   412d8:	e03ff815 	stw	zero,-32(fp)
	statements within the function itself.  This is done in the interest
	of execution time efficiency. */

	for( ;; )
	{
		taskENTER_CRITICAL();
   412dc:	00431780 	call	43178 <vTaskEnterCritical>
		{
			/* Is there data in the queue now?  To be running we must be
			the highest priority task wanting to access the queue. */
			if( pxQueue->uxMessagesWaiting > ( unsigned portBASE_TYPE ) 0 )
   412e0:	e0bffc17 	ldw	r2,-16(fp)
   412e4:	10800e17 	ldw	r2,56(r2)
   412e8:	10002e26 	beq	r2,zero,413a4 <xQueueGenericReceive+0xec>
			{
				/* Remember our read position in case we are just peeking. */
				pcOriginalReadPosition = pxQueue->pcReadFrom;
   412ec:	e0bffc17 	ldw	r2,-16(fp)
   412f0:	10800317 	ldw	r2,12(r2)
   412f4:	e0bff915 	stw	r2,-28(fp)

				prvCopyDataFromQueue( pxQueue, pvBuffer );
   412f8:	e13ffc17 	ldw	r4,-16(fp)
   412fc:	e17ffd17 	ldw	r5,-12(fp)
   41300:	00417980 	call	41798 <prvCopyDataFromQueue>

				if( xJustPeeking == pdFALSE )
   41304:	e0bfff17 	ldw	r2,-4(fp)
   41308:	1000171e 	bne	r2,zero,41368 <xQueueGenericReceive+0xb0>
				{
					traceQUEUE_RECEIVE( pxQueue );

					/* We are actually removing data. */
					--( pxQueue->uxMessagesWaiting );
   4130c:	e0bffc17 	ldw	r2,-16(fp)
   41310:	10800e17 	ldw	r2,56(r2)
   41314:	10ffffc4 	addi	r3,r2,-1
   41318:	e0bffc17 	ldw	r2,-16(fp)
   4131c:	10c00e15 	stw	r3,56(r2)

					#if ( configUSE_MUTEXES == 1 )
					{
						if( pxQueue->uxQueueType == queueQUEUE_IS_MUTEX )
   41320:	e0bffc17 	ldw	r2,-16(fp)
   41324:	10800017 	ldw	r2,0(r2)
   41328:	1000041e 	bne	r2,zero,4133c <xQueueGenericReceive+0x84>
						{
							/* Record the information required to implement
							priority inheritance should it become necessary. */
							pxQueue->pxMutexHolder = xTaskGetCurrentTaskHandle();
   4132c:	0042f880 	call	42f88 <xTaskGetCurrentTaskHandle>
   41330:	1007883a 	mov	r3,r2
   41334:	e0bffc17 	ldw	r2,-16(fp)
   41338:	10c00115 	stw	r3,4(r2)
						}
					}
					#endif

					if( listLIST_IS_EMPTY( &( pxQueue->xTasksWaitingToSend ) ) == pdFALSE )
   4133c:	e0bffc17 	ldw	r2,-16(fp)
   41340:	10800417 	ldw	r2,16(r2)
   41344:	10001426 	beq	r2,zero,41398 <xQueueGenericReceive+0xe0>
					{
						if( xTaskRemoveFromEventList( &( pxQueue->xTasksWaitingToSend ) ) == pdTRUE )
   41348:	e0bffc17 	ldw	r2,-16(fp)
   4134c:	10800404 	addi	r2,r2,16
   41350:	1009883a 	mov	r4,r2
   41354:	00428d80 	call	428d8 <xTaskRemoveFromEventList>
   41358:	10800058 	cmpnei	r2,r2,1
   4135c:	10000e1e 	bne	r2,zero,41398 <xQueueGenericReceive+0xe0>
						{
							portYIELD_WITHIN_API();
   41360:	003b683a 	trap	0
   41364:	00000c06 	br	41398 <xQueueGenericReceive+0xe0>
				{
					traceQUEUE_PEEK( pxQueue );

					/* We are not removing the data, so reset our read
					pointer. */
					pxQueue->pcReadFrom = pcOriginalReadPosition;
   41368:	e0bffc17 	ldw	r2,-16(fp)
   4136c:	e0fff917 	ldw	r3,-28(fp)
   41370:	10c00315 	stw	r3,12(r2)

					/* The data is being left in the queue, so see if there are
					any other tasks waiting for the data. */
					if( listLIST_IS_EMPTY( &( pxQueue->xTasksWaitingToReceive ) ) == pdFALSE )
   41374:	e0bffc17 	ldw	r2,-16(fp)
   41378:	10800917 	ldw	r2,36(r2)
   4137c:	10000626 	beq	r2,zero,41398 <xQueueGenericReceive+0xe0>
					{
						/* Tasks that are removed from the event list will get added to
						the pending ready list as the scheduler is still suspended. */
						if( xTaskRemoveFromEventList( &( pxQueue->xTasksWaitingToReceive ) ) != pdFALSE )
   41380:	e0bffc17 	ldw	r2,-16(fp)
   41384:	10800904 	addi	r2,r2,36
   41388:	1009883a 	mov	r4,r2
   4138c:	00428d80 	call	428d8 <xTaskRemoveFromEventList>
   41390:	10000126 	beq	r2,zero,41398 <xQueueGenericReceive+0xe0>
						{
							/* The task waiting has a higher priority than this task. */
							portYIELD_WITHIN_API();
   41394:	003b683a 	trap	0
						}
					}

				}

				taskEXIT_CRITICAL();
   41398:	00431c40 	call	431c4 <vTaskExitCritical>
				return pdPASS;
   4139c:	00800044 	movi	r2,1
   413a0:	00004406 	br	414b4 <xQueueGenericReceive+0x1fc>
			}
			else
			{
				if( xTicksToWait == ( portTickType ) 0 )
   413a4:	e0bffe17 	ldw	r2,-8(fp)
   413a8:	1000031e 	bne	r2,zero,413b8 <xQueueGenericReceive+0x100>
				{
					/* The queue was empty and no block time is specified (or
					the block time has expired) so leave now. */
					taskEXIT_CRITICAL();
   413ac:	00431c40 	call	431c4 <vTaskExitCritical>
					traceQUEUE_RECEIVE_FAILED( pxQueue );
					return errQUEUE_EMPTY;
   413b0:	0005883a 	mov	r2,zero
   413b4:	00003f06 	br	414b4 <xQueueGenericReceive+0x1fc>
				}
				else if( xEntryTimeSet == pdFALSE )
   413b8:	e0bff817 	ldw	r2,-32(fp)
   413bc:	1000051e 	bne	r2,zero,413d4 <xQueueGenericReceive+0x11c>
				{
					/* The queue was empty and a block time was specified so
					configure the timeout structure. */
					vTaskSetTimeOutState( &xTimeOut );
   413c0:	e0bffa04 	addi	r2,fp,-24
   413c4:	1009883a 	mov	r4,r2
   413c8:	00429c40 	call	429c4 <vTaskSetTimeOutState>
					xEntryTimeSet = pdTRUE;
   413cc:	00800044 	movi	r2,1
   413d0:	e0bff815 	stw	r2,-32(fp)
				}
			}
		}
		taskEXIT_CRITICAL();
   413d4:	00431c40 	call	431c4 <vTaskExitCritical>

		/* Interrupts and other tasks can send to and receive from the queue
		now the critical section has been exited. */

		vTaskSuspendAll();
   413d8:	00423bc0 	call	423bc <vTaskSuspendAll>
		prvLockQueue( pxQueue );
   413dc:	00431780 	call	43178 <vTaskEnterCritical>
   413e0:	e0bffc17 	ldw	r2,-16(fp)
   413e4:	10801117 	ldw	r2,68(r2)
   413e8:	10bfffd8 	cmpnei	r2,r2,-1
   413ec:	1000021e 	bne	r2,zero,413f8 <xQueueGenericReceive+0x140>
   413f0:	e0bffc17 	ldw	r2,-16(fp)
   413f4:	10001115 	stw	zero,68(r2)
   413f8:	e0bffc17 	ldw	r2,-16(fp)
   413fc:	10801217 	ldw	r2,72(r2)
   41400:	10bfffd8 	cmpnei	r2,r2,-1
   41404:	1000021e 	bne	r2,zero,41410 <xQueueGenericReceive+0x158>
   41408:	e0bffc17 	ldw	r2,-16(fp)
   4140c:	10001215 	stw	zero,72(r2)
   41410:	00431c40 	call	431c4 <vTaskExitCritical>

		/* Update the timeout state to see if it has expired yet. */
		if( xTaskCheckForTimeOut( &xTimeOut, &xTicksToWait ) == pdFALSE )
   41414:	e0fffa04 	addi	r3,fp,-24
   41418:	e0bffe04 	addi	r2,fp,-8
   4141c:	1809883a 	mov	r4,r3
   41420:	100b883a 	mov	r5,r2
   41424:	00429fc0 	call	429fc <xTaskCheckForTimeOut>
   41428:	10001c1e 	bne	r2,zero,4149c <xQueueGenericReceive+0x1e4>
		{
			if( prvIsQueueEmpty( pxQueue ) )
   4142c:	e13ffc17 	ldw	r4,-16(fp)
   41430:	00419200 	call	41920 <prvIsQueueEmpty>
   41434:	10001526 	beq	r2,zero,4148c <xQueueGenericReceive+0x1d4>
			{
				traceBLOCKING_ON_QUEUE_RECEIVE( pxQueue );

				#if ( configUSE_MUTEXES == 1 )
				{
					if( pxQueue->uxQueueType == queueQUEUE_IS_MUTEX )
   41438:	e0bffc17 	ldw	r2,-16(fp)
   4143c:	10800017 	ldw	r2,0(r2)
   41440:	1000061e 	bne	r2,zero,4145c <xQueueGenericReceive+0x1a4>
					{
						portENTER_CRITICAL();
   41444:	00431780 	call	43178 <vTaskEnterCritical>
						{
							vTaskPriorityInherit( ( void * ) pxQueue->pxMutexHolder );
   41448:	e0bffc17 	ldw	r2,-16(fp)
   4144c:	10800117 	ldw	r2,4(r2)
   41450:	1009883a 	mov	r4,r2
   41454:	0042fb00 	call	42fb0 <vTaskPriorityInherit>
						}
						portEXIT_CRITICAL();
   41458:	00431c40 	call	431c4 <vTaskExitCritical>
					}
				}
				#endif

				vTaskPlaceOnEventList( &( pxQueue->xTasksWaitingToReceive ), xTicksToWait );
   4145c:	e0bffc17 	ldw	r2,-16(fp)
   41460:	10c00904 	addi	r3,r2,36
   41464:	e0bffe17 	ldw	r2,-8(fp)
   41468:	1809883a 	mov	r4,r3
   4146c:	100b883a 	mov	r5,r2
   41470:	00428480 	call	42848 <vTaskPlaceOnEventList>
				prvUnlockQueue( pxQueue );
   41474:	e13ffc17 	ldw	r4,-16(fp)
   41478:	00418300 	call	41830 <prvUnlockQueue>
				if( !xTaskResumeAll() )
   4147c:	00423e40 	call	423e4 <xTaskResumeAll>
   41480:	10000b1e 	bne	r2,zero,414b0 <xQueueGenericReceive+0x1f8>
				{
					portYIELD_WITHIN_API();
   41484:	003b683a 	trap	0
   41488:	00000906 	br	414b0 <xQueueGenericReceive+0x1f8>
				}
			}
			else
			{
				/* Try again. */
				prvUnlockQueue( pxQueue );
   4148c:	e13ffc17 	ldw	r4,-16(fp)
   41490:	00418300 	call	41830 <prvUnlockQueue>
				( void ) xTaskResumeAll();
   41494:	00423e40 	call	423e4 <xTaskResumeAll>
   41498:	003f9006 	br	412dc <__alt_data_end+0xfffc695c>
			}
		}
		else
		{
			prvUnlockQueue( pxQueue );
   4149c:	e13ffc17 	ldw	r4,-16(fp)
   414a0:	00418300 	call	41830 <prvUnlockQueue>
			( void ) xTaskResumeAll();
   414a4:	00423e40 	call	423e4 <xTaskResumeAll>
			traceQUEUE_RECEIVE_FAILED( pxQueue );
			return errQUEUE_EMPTY;
   414a8:	0005883a 	mov	r2,zero
   414ac:	00000106 	br	414b4 <xQueueGenericReceive+0x1fc>
		}
	}
   414b0:	003f8a06 	br	412dc <__alt_data_end+0xfffc695c>
}
   414b4:	e037883a 	mov	sp,fp
   414b8:	dfc00117 	ldw	ra,4(sp)
   414bc:	df000017 	ldw	fp,0(sp)
   414c0:	dec00204 	addi	sp,sp,8
   414c4:	f800283a 	ret

000414c8 <xQueueReceiveFromISR>:
/*-----------------------------------------------------------*/

signed portBASE_TYPE xQueueReceiveFromISR( xQueueHandle pxQueue, void * const pvBuffer, signed portBASE_TYPE *pxTaskWoken )
{
   414c8:	defff904 	addi	sp,sp,-28
   414cc:	dfc00615 	stw	ra,24(sp)
   414d0:	df000515 	stw	fp,20(sp)
   414d4:	df000504 	addi	fp,sp,20
   414d8:	e13ffd15 	stw	r4,-12(fp)
   414dc:	e17ffe15 	stw	r5,-8(fp)
   414e0:	e1bfff15 	stw	r6,-4(fp)

	configASSERT( pxQueue );
	configASSERT( pxTaskWoken );
	configASSERT( !( ( pvBuffer == NULL ) && ( pxQueue->uxItemSize != ( unsigned portBASE_TYPE ) 0U ) ) );

	uxSavedInterruptStatus = portSET_INTERRUPT_MASK_FROM_ISR();
   414e4:	e03ffc15 	stw	zero,-16(fp)
	{
		/* We cannot block from an ISR, so check there is data available. */
		if( pxQueue->uxMessagesWaiting > ( unsigned portBASE_TYPE ) 0 )
   414e8:	e0bffd17 	ldw	r2,-12(fp)
   414ec:	10800e17 	ldw	r2,56(r2)
   414f0:	10002026 	beq	r2,zero,41574 <xQueueReceiveFromISR+0xac>
		{
			traceQUEUE_RECEIVE_FROM_ISR( pxQueue );

			prvCopyDataFromQueue( pxQueue, pvBuffer );
   414f4:	e13ffd17 	ldw	r4,-12(fp)
   414f8:	e17ffe17 	ldw	r5,-8(fp)
   414fc:	00417980 	call	41798 <prvCopyDataFromQueue>
			--( pxQueue->uxMessagesWaiting );
   41500:	e0bffd17 	ldw	r2,-12(fp)
   41504:	10800e17 	ldw	r2,56(r2)
   41508:	10ffffc4 	addi	r3,r2,-1
   4150c:	e0bffd17 	ldw	r2,-12(fp)
   41510:	10c00e15 	stw	r3,56(r2)

			/* If the queue is locked we will not modify the event list.  Instead
			we update the lock count so the task that unlocks the queue will know
			that an ISR has removed data while the queue was locked. */
			if( pxQueue->xRxLock == queueUNLOCKED )
   41514:	e0bffd17 	ldw	r2,-12(fp)
   41518:	10801117 	ldw	r2,68(r2)
   4151c:	10bfffd8 	cmpnei	r2,r2,-1
   41520:	10000c1e 	bne	r2,zero,41554 <xQueueReceiveFromISR+0x8c>
			{
				if( listLIST_IS_EMPTY( &( pxQueue->xTasksWaitingToSend ) ) == pdFALSE )
   41524:	e0bffd17 	ldw	r2,-12(fp)
   41528:	10800417 	ldw	r2,16(r2)
   4152c:	10000e26 	beq	r2,zero,41568 <xQueueReceiveFromISR+0xa0>
				{
					if( xTaskRemoveFromEventList( &( pxQueue->xTasksWaitingToSend ) ) != pdFALSE )
   41530:	e0bffd17 	ldw	r2,-12(fp)
   41534:	10800404 	addi	r2,r2,16
   41538:	1009883a 	mov	r4,r2
   4153c:	00428d80 	call	428d8 <xTaskRemoveFromEventList>
   41540:	10000926 	beq	r2,zero,41568 <xQueueReceiveFromISR+0xa0>
					{
						/* The task waiting has a higher priority than us so
						force a context switch. */
						*pxTaskWoken = pdTRUE;
   41544:	e0bfff17 	ldw	r2,-4(fp)
   41548:	00c00044 	movi	r3,1
   4154c:	10c00015 	stw	r3,0(r2)
   41550:	00000506 	br	41568 <xQueueReceiveFromISR+0xa0>
			}
			else
			{
				/* Increment the lock count so the task that unlocks the queue
				knows that data was removed while it was locked. */
				++( pxQueue->xRxLock );
   41554:	e0bffd17 	ldw	r2,-12(fp)
   41558:	10801117 	ldw	r2,68(r2)
   4155c:	10c00044 	addi	r3,r2,1
   41560:	e0bffd17 	ldw	r2,-12(fp)
   41564:	10c01115 	stw	r3,68(r2)
			}

			xReturn = pdPASS;
   41568:	00800044 	movi	r2,1
   4156c:	e0bffb15 	stw	r2,-20(fp)
   41570:	00000106 	br	41578 <xQueueReceiveFromISR+0xb0>
		}
		else
		{
			xReturn = pdFAIL;
   41574:	e03ffb15 	stw	zero,-20(fp)
			traceQUEUE_RECEIVE_FROM_ISR_FAILED( pxQueue );
		}
	}
	portCLEAR_INTERRUPT_MASK_FROM_ISR( uxSavedInterruptStatus );

	return xReturn;
   41578:	e0bffb17 	ldw	r2,-20(fp)
}
   4157c:	e037883a 	mov	sp,fp
   41580:	dfc00117 	ldw	ra,4(sp)
   41584:	df000017 	ldw	fp,0(sp)
   41588:	dec00204 	addi	sp,sp,8
   4158c:	f800283a 	ret

00041590 <uxQueueMessagesWaiting>:
/*-----------------------------------------------------------*/

unsigned portBASE_TYPE uxQueueMessagesWaiting( const xQueueHandle pxQueue )
{
   41590:	defffc04 	addi	sp,sp,-16
   41594:	dfc00315 	stw	ra,12(sp)
   41598:	df000215 	stw	fp,8(sp)
   4159c:	df000204 	addi	fp,sp,8
   415a0:	e13fff15 	stw	r4,-4(fp)
unsigned portBASE_TYPE uxReturn;

	configASSERT( pxQueue );

	taskENTER_CRITICAL();
   415a4:	00431780 	call	43178 <vTaskEnterCritical>
		uxReturn = pxQueue->uxMessagesWaiting;
   415a8:	e0bfff17 	ldw	r2,-4(fp)
   415ac:	10800e17 	ldw	r2,56(r2)
   415b0:	e0bffe15 	stw	r2,-8(fp)
	taskEXIT_CRITICAL();
   415b4:	00431c40 	call	431c4 <vTaskExitCritical>

	return uxReturn;
   415b8:	e0bffe17 	ldw	r2,-8(fp)
}
   415bc:	e037883a 	mov	sp,fp
   415c0:	dfc00117 	ldw	ra,4(sp)
   415c4:	df000017 	ldw	fp,0(sp)
   415c8:	dec00204 	addi	sp,sp,8
   415cc:	f800283a 	ret

000415d0 <uxQueueMessagesWaitingFromISR>:
/*-----------------------------------------------------------*/

unsigned portBASE_TYPE uxQueueMessagesWaitingFromISR( const xQueueHandle pxQueue )
{
   415d0:	defffd04 	addi	sp,sp,-12
   415d4:	df000215 	stw	fp,8(sp)
   415d8:	df000204 	addi	fp,sp,8
   415dc:	e13fff15 	stw	r4,-4(fp)
unsigned portBASE_TYPE uxReturn;

	configASSERT( pxQueue );

	uxReturn = pxQueue->uxMessagesWaiting;
   415e0:	e0bfff17 	ldw	r2,-4(fp)
   415e4:	10800e17 	ldw	r2,56(r2)
   415e8:	e0bffe15 	stw	r2,-8(fp)

	return uxReturn;
   415ec:	e0bffe17 	ldw	r2,-8(fp)
}
   415f0:	e037883a 	mov	sp,fp
   415f4:	df000017 	ldw	fp,0(sp)
   415f8:	dec00104 	addi	sp,sp,4
   415fc:	f800283a 	ret

00041600 <vQueueDelete>:
/*-----------------------------------------------------------*/

void vQueueDelete( xQueueHandle pxQueue )
{
   41600:	defffd04 	addi	sp,sp,-12
   41604:	dfc00215 	stw	ra,8(sp)
   41608:	df000115 	stw	fp,4(sp)
   4160c:	df000104 	addi	fp,sp,4
   41610:	e13fff15 	stw	r4,-4(fp)
	configASSERT( pxQueue );

	traceQUEUE_DELETE( pxQueue );
	vQueueUnregisterQueue( pxQueue );
	vPortFree( pxQueue->pcHead );
   41614:	e0bfff17 	ldw	r2,-4(fp)
   41618:	10800017 	ldw	r2,0(r2)
   4161c:	1009883a 	mov	r4,r2
   41620:	0040bec0 	call	40bec <vPortFree>
	vPortFree( pxQueue );
   41624:	e13fff17 	ldw	r4,-4(fp)
   41628:	0040bec0 	call	40bec <vPortFree>
}
   4162c:	e037883a 	mov	sp,fp
   41630:	dfc00117 	ldw	ra,4(sp)
   41634:	df000017 	ldw	fp,0(sp)
   41638:	dec00204 	addi	sp,sp,8
   4163c:	f800283a 	ret

00041640 <prvCopyDataToQueue>:
/*-----------------------------------------------------------*/

static void prvCopyDataToQueue( xQUEUE *pxQueue, const void *pvItemToQueue, portBASE_TYPE xPosition )
{
   41640:	defffb04 	addi	sp,sp,-20
   41644:	dfc00415 	stw	ra,16(sp)
   41648:	df000315 	stw	fp,12(sp)
   4164c:	df000304 	addi	fp,sp,12
   41650:	e13ffd15 	stw	r4,-12(fp)
   41654:	e17ffe15 	stw	r5,-8(fp)
   41658:	e1bfff15 	stw	r6,-4(fp)
	if( pxQueue->uxItemSize == ( unsigned portBASE_TYPE ) 0 )
   4165c:	e0bffd17 	ldw	r2,-12(fp)
   41660:	10801017 	ldw	r2,64(r2)
   41664:	10000a1e 	bne	r2,zero,41690 <prvCopyDataToQueue+0x50>
	{
		#if ( configUSE_MUTEXES == 1 )
		{
			if( pxQueue->uxQueueType == queueQUEUE_IS_MUTEX )
   41668:	e0bffd17 	ldw	r2,-12(fp)
   4166c:	10800017 	ldw	r2,0(r2)
   41670:	10003f1e 	bne	r2,zero,41770 <prvCopyDataToQueue+0x130>
			{
				/* The mutex is no longer being held. */
				vTaskPriorityDisinherit( ( void * ) pxQueue->pxMutexHolder );
   41674:	e0bffd17 	ldw	r2,-12(fp)
   41678:	10800117 	ldw	r2,4(r2)
   4167c:	1009883a 	mov	r4,r2
   41680:	00430ac0 	call	430ac <vTaskPriorityDisinherit>
				pxQueue->pxMutexHolder = NULL;
   41684:	e0bffd17 	ldw	r2,-12(fp)
   41688:	10000115 	stw	zero,4(r2)
   4168c:	00003806 	br	41770 <prvCopyDataToQueue+0x130>
			}
		}
		#endif
	}
	else if( xPosition == queueSEND_TO_BACK )
   41690:	e0bfff17 	ldw	r2,-4(fp)
   41694:	1000191e 	bne	r2,zero,416fc <prvCopyDataToQueue+0xbc>
	{
		memcpy( ( void * ) pxQueue->pcWriteTo, pvItemToQueue, ( unsigned ) pxQueue->uxItemSize );
   41698:	e0bffd17 	ldw	r2,-12(fp)
   4169c:	10c00217 	ldw	r3,8(r2)
   416a0:	e0bffd17 	ldw	r2,-12(fp)
   416a4:	10801017 	ldw	r2,64(r2)
   416a8:	1809883a 	mov	r4,r3
   416ac:	e17ffe17 	ldw	r5,-8(fp)
   416b0:	100d883a 	mov	r6,r2
   416b4:	00438e80 	call	438e8 <memcpy>
		pxQueue->pcWriteTo += pxQueue->uxItemSize;
   416b8:	e0bffd17 	ldw	r2,-12(fp)
   416bc:	10c00217 	ldw	r3,8(r2)
   416c0:	e0bffd17 	ldw	r2,-12(fp)
   416c4:	10801017 	ldw	r2,64(r2)
   416c8:	1887883a 	add	r3,r3,r2
   416cc:	e0bffd17 	ldw	r2,-12(fp)
   416d0:	10c00215 	stw	r3,8(r2)
		if( pxQueue->pcWriteTo >= pxQueue->pcTail )
   416d4:	e0bffd17 	ldw	r2,-12(fp)
   416d8:	10c00217 	ldw	r3,8(r2)
   416dc:	e0bffd17 	ldw	r2,-12(fp)
   416e0:	10800117 	ldw	r2,4(r2)
   416e4:	18802236 	bltu	r3,r2,41770 <prvCopyDataToQueue+0x130>
		{
			pxQueue->pcWriteTo = pxQueue->pcHead;
   416e8:	e0bffd17 	ldw	r2,-12(fp)
   416ec:	10c00017 	ldw	r3,0(r2)
   416f0:	e0bffd17 	ldw	r2,-12(fp)
   416f4:	10c00215 	stw	r3,8(r2)
   416f8:	00001d06 	br	41770 <prvCopyDataToQueue+0x130>
		}
	}
	else
	{
		memcpy( ( void * ) pxQueue->pcReadFrom, pvItemToQueue, ( unsigned ) pxQueue->uxItemSize );
   416fc:	e0bffd17 	ldw	r2,-12(fp)
   41700:	10c00317 	ldw	r3,12(r2)
   41704:	e0bffd17 	ldw	r2,-12(fp)
   41708:	10801017 	ldw	r2,64(r2)
   4170c:	1809883a 	mov	r4,r3
   41710:	e17ffe17 	ldw	r5,-8(fp)
   41714:	100d883a 	mov	r6,r2
   41718:	00438e80 	call	438e8 <memcpy>
		pxQueue->pcReadFrom -= pxQueue->uxItemSize;
   4171c:	e0bffd17 	ldw	r2,-12(fp)
   41720:	10c00317 	ldw	r3,12(r2)
   41724:	e0bffd17 	ldw	r2,-12(fp)
   41728:	10801017 	ldw	r2,64(r2)
   4172c:	0085c83a 	sub	r2,zero,r2
   41730:	1887883a 	add	r3,r3,r2
   41734:	e0bffd17 	ldw	r2,-12(fp)
   41738:	10c00315 	stw	r3,12(r2)
		if( pxQueue->pcReadFrom < pxQueue->pcHead )
   4173c:	e0bffd17 	ldw	r2,-12(fp)
   41740:	10c00317 	ldw	r3,12(r2)
   41744:	e0bffd17 	ldw	r2,-12(fp)
   41748:	10800017 	ldw	r2,0(r2)
   4174c:	1880082e 	bgeu	r3,r2,41770 <prvCopyDataToQueue+0x130>
		{
			pxQueue->pcReadFrom = ( pxQueue->pcTail - pxQueue->uxItemSize );
   41750:	e0bffd17 	ldw	r2,-12(fp)
   41754:	10c00117 	ldw	r3,4(r2)
   41758:	e0bffd17 	ldw	r2,-12(fp)
   4175c:	10801017 	ldw	r2,64(r2)
   41760:	0085c83a 	sub	r2,zero,r2
   41764:	1887883a 	add	r3,r3,r2
   41768:	e0bffd17 	ldw	r2,-12(fp)
   4176c:	10c00315 	stw	r3,12(r2)
		}
	}

	++( pxQueue->uxMessagesWaiting );
   41770:	e0bffd17 	ldw	r2,-12(fp)
   41774:	10800e17 	ldw	r2,56(r2)
   41778:	10c00044 	addi	r3,r2,1
   4177c:	e0bffd17 	ldw	r2,-12(fp)
   41780:	10c00e15 	stw	r3,56(r2)
}
   41784:	e037883a 	mov	sp,fp
   41788:	dfc00117 	ldw	ra,4(sp)
   4178c:	df000017 	ldw	fp,0(sp)
   41790:	dec00204 	addi	sp,sp,8
   41794:	f800283a 	ret

00041798 <prvCopyDataFromQueue>:
/*-----------------------------------------------------------*/

static void prvCopyDataFromQueue( xQUEUE * const pxQueue, const void *pvBuffer )
{
   41798:	defffc04 	addi	sp,sp,-16
   4179c:	dfc00315 	stw	ra,12(sp)
   417a0:	df000215 	stw	fp,8(sp)
   417a4:	df000204 	addi	fp,sp,8
   417a8:	e13ffe15 	stw	r4,-8(fp)
   417ac:	e17fff15 	stw	r5,-4(fp)
	if( pxQueue->uxQueueType != queueQUEUE_IS_MUTEX )
   417b0:	e0bffe17 	ldw	r2,-8(fp)
   417b4:	10800017 	ldw	r2,0(r2)
   417b8:	10001826 	beq	r2,zero,4181c <prvCopyDataFromQueue+0x84>
	{
		pxQueue->pcReadFrom += pxQueue->uxItemSize;
   417bc:	e0bffe17 	ldw	r2,-8(fp)
   417c0:	10c00317 	ldw	r3,12(r2)
   417c4:	e0bffe17 	ldw	r2,-8(fp)
   417c8:	10801017 	ldw	r2,64(r2)
   417cc:	1887883a 	add	r3,r3,r2
   417d0:	e0bffe17 	ldw	r2,-8(fp)
   417d4:	10c00315 	stw	r3,12(r2)
		if( pxQueue->pcReadFrom >= pxQueue->pcTail )
   417d8:	e0bffe17 	ldw	r2,-8(fp)
   417dc:	10c00317 	ldw	r3,12(r2)
   417e0:	e0bffe17 	ldw	r2,-8(fp)
   417e4:	10800117 	ldw	r2,4(r2)
   417e8:	18800436 	bltu	r3,r2,417fc <prvCopyDataFromQueue+0x64>
		{
			pxQueue->pcReadFrom = pxQueue->pcHead;
   417ec:	e0bffe17 	ldw	r2,-8(fp)
   417f0:	10c00017 	ldw	r3,0(r2)
   417f4:	e0bffe17 	ldw	r2,-8(fp)
   417f8:	10c00315 	stw	r3,12(r2)
		}
		memcpy( ( void * ) pvBuffer, ( void * ) pxQueue->pcReadFrom, ( unsigned ) pxQueue->uxItemSize );
   417fc:	e0bffe17 	ldw	r2,-8(fp)
   41800:	10c00317 	ldw	r3,12(r2)
   41804:	e0bffe17 	ldw	r2,-8(fp)
   41808:	10801017 	ldw	r2,64(r2)
   4180c:	e13fff17 	ldw	r4,-4(fp)
   41810:	180b883a 	mov	r5,r3
   41814:	100d883a 	mov	r6,r2
   41818:	00438e80 	call	438e8 <memcpy>
	}
}
   4181c:	e037883a 	mov	sp,fp
   41820:	dfc00117 	ldw	ra,4(sp)
   41824:	df000017 	ldw	fp,0(sp)
   41828:	dec00204 	addi	sp,sp,8
   4182c:	f800283a 	ret

00041830 <prvUnlockQueue>:
/*-----------------------------------------------------------*/

static void prvUnlockQueue( xQueueHandle pxQueue )
{
   41830:	defffd04 	addi	sp,sp,-12
   41834:	dfc00215 	stw	ra,8(sp)
   41838:	df000115 	stw	fp,4(sp)
   4183c:	df000104 	addi	fp,sp,4
   41840:	e13fff15 	stw	r4,-4(fp)

	/* The lock counts contains the number of extra data items placed or
	removed from the queue while the queue was locked.  When a queue is
	locked items can be added or removed, but the event lists cannot be
	updated. */
	taskENTER_CRITICAL();
   41844:	00431780 	call	43178 <vTaskEnterCritical>
	{
		/* See if data was added to the queue while it was locked. */
		while( pxQueue->xTxLock > queueLOCKED_UNMODIFIED )
   41848:	00001006 	br	4188c <prvUnlockQueue+0x5c>
		{
			/* Data was posted while the queue was locked.  Are any tasks
			blocked waiting for data to become available? */
			if( listLIST_IS_EMPTY( &( pxQueue->xTasksWaitingToReceive ) ) == pdFALSE )
   4184c:	e0bfff17 	ldw	r2,-4(fp)
   41850:	10800917 	ldw	r2,36(r2)
   41854:	10000c26 	beq	r2,zero,41888 <prvUnlockQueue+0x58>
			{
				/* Tasks that are removed from the event list will get added to
				the pending ready list as the scheduler is still suspended. */
				if( xTaskRemoveFromEventList( &( pxQueue->xTasksWaitingToReceive ) ) != pdFALSE )
   41858:	e0bfff17 	ldw	r2,-4(fp)
   4185c:	10800904 	addi	r2,r2,36
   41860:	1009883a 	mov	r4,r2
   41864:	00428d80 	call	428d8 <xTaskRemoveFromEventList>
   41868:	10000126 	beq	r2,zero,41870 <prvUnlockQueue+0x40>
				{
					/* The task waiting has a higher priority so record that a
					context	switch is required. */
					vTaskMissedYield();
   4186c:	0042ad00 	call	42ad0 <vTaskMissedYield>
				}

				--( pxQueue->xTxLock );
   41870:	e0bfff17 	ldw	r2,-4(fp)
   41874:	10801217 	ldw	r2,72(r2)
   41878:	10ffffc4 	addi	r3,r2,-1
   4187c:	e0bfff17 	ldw	r2,-4(fp)
   41880:	10c01215 	stw	r3,72(r2)
   41884:	00000106 	br	4188c <prvUnlockQueue+0x5c>
			}
			else
			{
				break;
   41888:	00000306 	br	41898 <prvUnlockQueue+0x68>
	locked items can be added or removed, but the event lists cannot be
	updated. */
	taskENTER_CRITICAL();
	{
		/* See if data was added to the queue while it was locked. */
		while( pxQueue->xTxLock > queueLOCKED_UNMODIFIED )
   4188c:	e0bfff17 	ldw	r2,-4(fp)
   41890:	10801217 	ldw	r2,72(r2)
   41894:	00bfed16 	blt	zero,r2,4184c <__alt_data_end+0xfffc6ecc>
			{
				break;
			}
		}

		pxQueue->xTxLock = queueUNLOCKED;
   41898:	e0bfff17 	ldw	r2,-4(fp)
   4189c:	00ffffc4 	movi	r3,-1
   418a0:	10c01215 	stw	r3,72(r2)
	}
	taskEXIT_CRITICAL();
   418a4:	00431c40 	call	431c4 <vTaskExitCritical>

	/* Do the same for the Rx lock. */
	taskENTER_CRITICAL();
   418a8:	00431780 	call	43178 <vTaskEnterCritical>
	{
		while( pxQueue->xRxLock > queueLOCKED_UNMODIFIED )
   418ac:	00001006 	br	418f0 <prvUnlockQueue+0xc0>
		{
			if( listLIST_IS_EMPTY( &( pxQueue->xTasksWaitingToSend ) ) == pdFALSE )
   418b0:	e0bfff17 	ldw	r2,-4(fp)
   418b4:	10800417 	ldw	r2,16(r2)
   418b8:	10000c26 	beq	r2,zero,418ec <prvUnlockQueue+0xbc>
			{
				if( xTaskRemoveFromEventList( &( pxQueue->xTasksWaitingToSend ) ) != pdFALSE )
   418bc:	e0bfff17 	ldw	r2,-4(fp)
   418c0:	10800404 	addi	r2,r2,16
   418c4:	1009883a 	mov	r4,r2
   418c8:	00428d80 	call	428d8 <xTaskRemoveFromEventList>
   418cc:	10000126 	beq	r2,zero,418d4 <prvUnlockQueue+0xa4>
				{
					vTaskMissedYield();
   418d0:	0042ad00 	call	42ad0 <vTaskMissedYield>
				}

				--( pxQueue->xRxLock );
   418d4:	e0bfff17 	ldw	r2,-4(fp)
   418d8:	10801117 	ldw	r2,68(r2)
   418dc:	10ffffc4 	addi	r3,r2,-1
   418e0:	e0bfff17 	ldw	r2,-4(fp)
   418e4:	10c01115 	stw	r3,68(r2)
   418e8:	00000106 	br	418f0 <prvUnlockQueue+0xc0>
			}
			else
			{
				break;
   418ec:	00000306 	br	418fc <prvUnlockQueue+0xcc>
	taskEXIT_CRITICAL();

	/* Do the same for the Rx lock. */
	taskENTER_CRITICAL();
	{
		while( pxQueue->xRxLock > queueLOCKED_UNMODIFIED )
   418f0:	e0bfff17 	ldw	r2,-4(fp)
   418f4:	10801117 	ldw	r2,68(r2)
   418f8:	00bfed16 	blt	zero,r2,418b0 <__alt_data_end+0xfffc6f30>
			{
				break;
			}
		}

		pxQueue->xRxLock = queueUNLOCKED;
   418fc:	e0bfff17 	ldw	r2,-4(fp)
   41900:	00ffffc4 	movi	r3,-1
   41904:	10c01115 	stw	r3,68(r2)
	}
	taskEXIT_CRITICAL();
   41908:	00431c40 	call	431c4 <vTaskExitCritical>
}
   4190c:	e037883a 	mov	sp,fp
   41910:	dfc00117 	ldw	ra,4(sp)
   41914:	df000017 	ldw	fp,0(sp)
   41918:	dec00204 	addi	sp,sp,8
   4191c:	f800283a 	ret

00041920 <prvIsQueueEmpty>:
/*-----------------------------------------------------------*/

static signed portBASE_TYPE prvIsQueueEmpty( const xQueueHandle pxQueue )
{
   41920:	defffc04 	addi	sp,sp,-16
   41924:	dfc00315 	stw	ra,12(sp)
   41928:	df000215 	stw	fp,8(sp)
   4192c:	df000204 	addi	fp,sp,8
   41930:	e13fff15 	stw	r4,-4(fp)
signed portBASE_TYPE xReturn;

	taskENTER_CRITICAL();
   41934:	00431780 	call	43178 <vTaskEnterCritical>
		xReturn = ( pxQueue->uxMessagesWaiting == ( unsigned portBASE_TYPE ) 0 );
   41938:	e0bfff17 	ldw	r2,-4(fp)
   4193c:	10800e17 	ldw	r2,56(r2)
   41940:	1005003a 	cmpeq	r2,r2,zero
   41944:	10803fcc 	andi	r2,r2,255
   41948:	e0bffe15 	stw	r2,-8(fp)
	taskEXIT_CRITICAL();
   4194c:	00431c40 	call	431c4 <vTaskExitCritical>

	return xReturn;
   41950:	e0bffe17 	ldw	r2,-8(fp)
}
   41954:	e037883a 	mov	sp,fp
   41958:	dfc00117 	ldw	ra,4(sp)
   4195c:	df000017 	ldw	fp,0(sp)
   41960:	dec00204 	addi	sp,sp,8
   41964:	f800283a 	ret

00041968 <xQueueIsQueueEmptyFromISR>:
/*-----------------------------------------------------------*/

signed portBASE_TYPE xQueueIsQueueEmptyFromISR( const xQueueHandle pxQueue )
{
   41968:	defffd04 	addi	sp,sp,-12
   4196c:	df000215 	stw	fp,8(sp)
   41970:	df000204 	addi	fp,sp,8
   41974:	e13fff15 	stw	r4,-4(fp)
signed portBASE_TYPE xReturn;

	configASSERT( pxQueue );
	xReturn = ( pxQueue->uxMessagesWaiting == ( unsigned portBASE_TYPE ) 0 );
   41978:	e0bfff17 	ldw	r2,-4(fp)
   4197c:	10800e17 	ldw	r2,56(r2)
   41980:	1005003a 	cmpeq	r2,r2,zero
   41984:	10803fcc 	andi	r2,r2,255
   41988:	e0bffe15 	stw	r2,-8(fp)

	return xReturn;
   4198c:	e0bffe17 	ldw	r2,-8(fp)
}
   41990:	e037883a 	mov	sp,fp
   41994:	df000017 	ldw	fp,0(sp)
   41998:	dec00104 	addi	sp,sp,4
   4199c:	f800283a 	ret

000419a0 <prvIsQueueFull>:
/*-----------------------------------------------------------*/

static signed portBASE_TYPE prvIsQueueFull( const xQueueHandle pxQueue )
{
   419a0:	defffc04 	addi	sp,sp,-16
   419a4:	dfc00315 	stw	ra,12(sp)
   419a8:	df000215 	stw	fp,8(sp)
   419ac:	df000204 	addi	fp,sp,8
   419b0:	e13fff15 	stw	r4,-4(fp)
signed portBASE_TYPE xReturn;

	taskENTER_CRITICAL();
   419b4:	00431780 	call	43178 <vTaskEnterCritical>
		xReturn = ( pxQueue->uxMessagesWaiting == pxQueue->uxLength );
   419b8:	e0bfff17 	ldw	r2,-4(fp)
   419bc:	10c00e17 	ldw	r3,56(r2)
   419c0:	e0bfff17 	ldw	r2,-4(fp)
   419c4:	10800f17 	ldw	r2,60(r2)
   419c8:	1885003a 	cmpeq	r2,r3,r2
   419cc:	10803fcc 	andi	r2,r2,255
   419d0:	e0bffe15 	stw	r2,-8(fp)
	taskEXIT_CRITICAL();
   419d4:	00431c40 	call	431c4 <vTaskExitCritical>

	return xReturn;
   419d8:	e0bffe17 	ldw	r2,-8(fp)
}
   419dc:	e037883a 	mov	sp,fp
   419e0:	dfc00117 	ldw	ra,4(sp)
   419e4:	df000017 	ldw	fp,0(sp)
   419e8:	dec00204 	addi	sp,sp,8
   419ec:	f800283a 	ret

000419f0 <xQueueIsQueueFullFromISR>:
/*-----------------------------------------------------------*/

signed portBASE_TYPE xQueueIsQueueFullFromISR( const xQueueHandle pxQueue )
{
   419f0:	defffd04 	addi	sp,sp,-12
   419f4:	df000215 	stw	fp,8(sp)
   419f8:	df000204 	addi	fp,sp,8
   419fc:	e13fff15 	stw	r4,-4(fp)
signed portBASE_TYPE xReturn;

	configASSERT( pxQueue );
	xReturn = ( pxQueue->uxMessagesWaiting == pxQueue->uxLength );
   41a00:	e0bfff17 	ldw	r2,-4(fp)
   41a04:	10c00e17 	ldw	r3,56(r2)
   41a08:	e0bfff17 	ldw	r2,-4(fp)
   41a0c:	10800f17 	ldw	r2,60(r2)
   41a10:	1885003a 	cmpeq	r2,r3,r2
   41a14:	10803fcc 	andi	r2,r2,255
   41a18:	e0bffe15 	stw	r2,-8(fp)

	return xReturn;
   41a1c:	e0bffe17 	ldw	r2,-8(fp)
}
   41a20:	e037883a 	mov	sp,fp
   41a24:	df000017 	ldw	fp,0(sp)
   41a28:	dec00104 	addi	sp,sp,4
   41a2c:	f800283a 	ret

00041a30 <xTaskGenericCreate>:
/*-----------------------------------------------------------
 * TASK CREATION API documented in task.h
 *----------------------------------------------------------*/

signed portBASE_TYPE xTaskGenericCreate( pdTASK_CODE pxTaskCode, const signed char * const pcName, unsigned short usStackDepth, void *pvParameters, unsigned portBASE_TYPE uxPriority, xTaskHandle *pxCreatedTask, portSTACK_TYPE *puxStackBuffer, const xMemoryRegion * const xRegions )
{
   41a30:	defff604 	addi	sp,sp,-40
   41a34:	dfc00915 	stw	ra,36(sp)
   41a38:	df000815 	stw	fp,32(sp)
   41a3c:	df000804 	addi	fp,sp,32
   41a40:	e13ffc15 	stw	r4,-16(fp)
   41a44:	e17ffd15 	stw	r5,-12(fp)
   41a48:	3005883a 	mov	r2,r6
   41a4c:	e1ffff15 	stw	r7,-4(fp)
   41a50:	e0bffe0d 	sth	r2,-8(fp)
	configASSERT( pxTaskCode );
	configASSERT( ( uxPriority < configMAX_PRIORITIES ) );

	/* Allocate the memory required by the TCB and stack for the new task,
	checking that the allocation was successful. */
	pxNewTCB = prvAllocateTCBAndStack( usStackDepth, puxStackBuffer );
   41a54:	e0bffe0b 	ldhu	r2,-8(fp)
   41a58:	1009883a 	mov	r4,r2
   41a5c:	e1400417 	ldw	r5,16(fp)
   41a60:	0042dc80 	call	42dc8 <prvAllocateTCBAndStack>
   41a64:	e0bffa15 	stw	r2,-24(fp)

	if( pxNewTCB != NULL )
   41a68:	e0bffa17 	ldw	r2,-24(fp)
   41a6c:	10005426 	beq	r2,zero,41bc0 <xTaskGenericCreate+0x190>
		stack grows from high memory to low (as per the 80x86) or visa versa.
		portSTACK_GROWTH is used to make the result positive or negative as
		required by the port. */
		#if( portSTACK_GROWTH < 0 )
		{
			pxTopOfStack = pxNewTCB->pxStack + ( usStackDepth - ( unsigned short ) 1 );
   41a70:	e0bffa17 	ldw	r2,-24(fp)
   41a74:	10c00c17 	ldw	r3,48(r2)
   41a78:	e0bffe0b 	ldhu	r2,-8(fp)
   41a7c:	1085883a 	add	r2,r2,r2
   41a80:	1085883a 	add	r2,r2,r2
   41a84:	10bfff04 	addi	r2,r2,-4
   41a88:	1885883a 	add	r2,r3,r2
   41a8c:	e0bffb15 	stw	r2,-20(fp)
			pxTopOfStack = ( portSTACK_TYPE * ) ( ( ( unsigned long ) pxTopOfStack ) & ( ( unsigned long ) ~portBYTE_ALIGNMENT_MASK  ) );
   41a90:	e0fffb17 	ldw	r3,-20(fp)
   41a94:	00bfff04 	movi	r2,-4
   41a98:	1884703a 	and	r2,r3,r2
   41a9c:	e0bffb15 	stw	r2,-20(fp)
			pxNewTCB->pxEndOfStack = pxNewTCB->pxStack + ( usStackDepth - 1 );
		}
		#endif

		/* Setup the newly allocated TCB with the initial state of the task. */
		prvInitialiseTCBVariables( pxNewTCB, pcName, uxPriority, xRegions, usStackDepth );
   41aa0:	e0bffe0b 	ldhu	r2,-8(fp)
   41aa4:	d8800015 	stw	r2,0(sp)
   41aa8:	e13ffa17 	ldw	r4,-24(fp)
   41aac:	e17ffd17 	ldw	r5,-12(fp)
   41ab0:	e1800217 	ldw	r6,8(fp)
   41ab4:	e1c00517 	ldw	r7,20(fp)
   41ab8:	0042b100 	call	42b10 <prvInitialiseTCBVariables>
		{
			pxNewTCB->pxTopOfStack = pxPortInitialiseStack( pxTopOfStack, pxTaskCode, pvParameters, xRunPrivileged );
		}
		#else
		{
			pxNewTCB->pxTopOfStack = pxPortInitialiseStack( pxTopOfStack, pxTaskCode, pvParameters );
   41abc:	e13ffb17 	ldw	r4,-20(fp)
   41ac0:	e17ffc17 	ldw	r5,-16(fp)
   41ac4:	e1bfff17 	ldw	r6,-4(fp)
   41ac8:	00405440 	call	40544 <pxPortInitialiseStack>
   41acc:	1007883a 	mov	r3,r2
   41ad0:	e0bffa17 	ldw	r2,-24(fp)
   41ad4:	10c00015 	stw	r3,0(r2)
		#endif

		/* Check the alignment of the initialised stack. */
		configASSERT( ( ( ( unsigned long ) pxNewTCB->pxTopOfStack & ( unsigned long ) portBYTE_ALIGNMENT_MASK ) == 0UL ) );

		if( ( void * ) pxCreatedTask != NULL )
   41ad8:	e0800317 	ldw	r2,12(fp)
   41adc:	10000326 	beq	r2,zero,41aec <xTaskGenericCreate+0xbc>
		{
			/* Pass the TCB out - in an anonymous way.  The calling function/
			task can use this as a handle to delete the task later if
			required.*/
			*pxCreatedTask = ( xTaskHandle ) pxNewTCB;
   41ae0:	e0800317 	ldw	r2,12(fp)
   41ae4:	e0fffa17 	ldw	r3,-24(fp)
   41ae8:	10c00015 	stw	r3,0(r2)
		}
		
		/* We are going to manipulate the task queues to add this task to a
		ready list, so must make sure no interrupts occur. */
		taskENTER_CRITICAL();
   41aec:	00431780 	call	43178 <vTaskEnterCritical>
		{
			uxCurrentNumberOfTasks++;
   41af0:	d0a6da17 	ldw	r2,-25752(gp)
   41af4:	10800044 	addi	r2,r2,1
   41af8:	d0a6da15 	stw	r2,-25752(gp)
			if( pxCurrentTCB == NULL )
   41afc:	d0a6d617 	ldw	r2,-25768(gp)
   41b00:	1000071e 	bne	r2,zero,41b20 <xTaskGenericCreate+0xf0>
			{
				/* There are no other tasks, or all the other tasks are in
				the suspended state - make this the current task. */
				pxCurrentTCB =  pxNewTCB;
   41b04:	e0bffa17 	ldw	r2,-24(fp)
   41b08:	d0a6d615 	stw	r2,-25768(gp)

				if( uxCurrentNumberOfTasks == ( unsigned portBASE_TYPE ) 1 )
   41b0c:	d0a6da17 	ldw	r2,-25752(gp)
   41b10:	10800058 	cmpnei	r2,r2,1
   41b14:	10000a1e 	bne	r2,zero,41b40 <xTaskGenericCreate+0x110>
				{
					/* This is the first task to be created so do the preliminary
					initialisation required.  We will not recover if this call
					fails, but we will report the failure. */
					prvInitialiseTaskLists();
   41b18:	0042bec0 	call	42bec <prvInitialiseTaskLists>
   41b1c:	00000806 	br	41b40 <xTaskGenericCreate+0x110>
			else
			{
				/* If the scheduler is not already running, make this task the
				current task if it is the highest priority task to be created
				so far. */
				if( xSchedulerRunning == pdFALSE )
   41b20:	d0a6de17 	ldw	r2,-25736(gp)
   41b24:	1000061e 	bne	r2,zero,41b40 <xTaskGenericCreate+0x110>
				{
					if( pxCurrentTCB->uxPriority <= uxPriority )
   41b28:	d0a6d617 	ldw	r2,-25768(gp)
   41b2c:	10800b17 	ldw	r2,44(r2)
   41b30:	e0c00217 	ldw	r3,8(fp)
   41b34:	18800236 	bltu	r3,r2,41b40 <xTaskGenericCreate+0x110>
					{
						pxCurrentTCB = pxNewTCB;
   41b38:	e0bffa17 	ldw	r2,-24(fp)
   41b3c:	d0a6d615 	stw	r2,-25768(gp)
				}
			}

			/* Remember the top priority to make context switching faster.  Use
			the priority in pxNewTCB as this has been capped to a valid value. */
			if( pxNewTCB->uxPriority > uxTopUsedPriority )
   41b40:	e0bffa17 	ldw	r2,-24(fp)
   41b44:	10800b17 	ldw	r2,44(r2)
   41b48:	d0e6dc17 	ldw	r3,-25744(gp)
   41b4c:	1880032e 	bgeu	r3,r2,41b5c <xTaskGenericCreate+0x12c>
			{
				uxTopUsedPriority = pxNewTCB->uxPriority;
   41b50:	e0bffa17 	ldw	r2,-24(fp)
   41b54:	10800b17 	ldw	r2,44(r2)
   41b58:	d0a6dc15 	stw	r2,-25744(gp)
			{
				/* Add a counter into the TCB for tracing only. */
				pxNewTCB->uxTCBNumber = uxTaskNumber;
			}
			#endif
			uxTaskNumber++;
   41b5c:	d0a6e317 	ldw	r2,-25716(gp)
   41b60:	10800044 	addi	r2,r2,1
   41b64:	d0a6e315 	stw	r2,-25716(gp)

			prvAddTaskToReadyQueue( pxNewTCB );
   41b68:	e0bffa17 	ldw	r2,-24(fp)
   41b6c:	10800b17 	ldw	r2,44(r2)
   41b70:	d0e6dd17 	ldw	r3,-25740(gp)
   41b74:	1880032e 	bgeu	r3,r2,41b84 <xTaskGenericCreate+0x154>
   41b78:	e0bffa17 	ldw	r2,-24(fp)
   41b7c:	10800b17 	ldw	r2,44(r2)
   41b80:	d0a6dd15 	stw	r2,-25740(gp)
   41b84:	e0bffa17 	ldw	r2,-24(fp)
   41b88:	10800b17 	ldw	r2,44(r2)
   41b8c:	10c00524 	muli	r3,r2,20
   41b90:	008001b4 	movhi	r2,6
   41b94:	10be9904 	addi	r2,r2,-1436
   41b98:	1887883a 	add	r3,r3,r2
   41b9c:	e0bffa17 	ldw	r2,-24(fp)
   41ba0:	10800104 	addi	r2,r2,4
   41ba4:	1809883a 	mov	r4,r3
   41ba8:	100b883a 	mov	r5,r2
   41bac:	00403240 	call	40324 <vListInsertEnd>

			xReturn = pdPASS;
   41bb0:	00800044 	movi	r2,1
   41bb4:	e0bff915 	stw	r2,-28(fp)
			traceTASK_CREATE( pxNewTCB );
		}
		taskEXIT_CRITICAL();
   41bb8:	00431c40 	call	431c4 <vTaskExitCritical>
   41bbc:	00000206 	br	41bc8 <xTaskGenericCreate+0x198>
	}
	else
	{
		xReturn = errCOULD_NOT_ALLOCATE_REQUIRED_MEMORY;
   41bc0:	00bfffc4 	movi	r2,-1
   41bc4:	e0bff915 	stw	r2,-28(fp)
		traceTASK_CREATE_FAILED();
	}

	if( xReturn == pdPASS )
   41bc8:	e0bff917 	ldw	r2,-28(fp)
   41bcc:	10800058 	cmpnei	r2,r2,1
   41bd0:	1000071e 	bne	r2,zero,41bf0 <xTaskGenericCreate+0x1c0>
	{
		if( xSchedulerRunning != pdFALSE )
   41bd4:	d0a6de17 	ldw	r2,-25736(gp)
   41bd8:	10000526 	beq	r2,zero,41bf0 <xTaskGenericCreate+0x1c0>
		{
			/* If the created task is of a higher priority than the current task
			then it should run now. */
			if( pxCurrentTCB->uxPriority < uxPriority )
   41bdc:	d0a6d617 	ldw	r2,-25768(gp)
   41be0:	10c00b17 	ldw	r3,44(r2)
   41be4:	e0800217 	ldw	r2,8(fp)
   41be8:	1880012e 	bgeu	r3,r2,41bf0 <xTaskGenericCreate+0x1c0>
			{
				portYIELD_WITHIN_API();
   41bec:	003b683a 	trap	0
			}
		}
	}

	return xReturn;
   41bf0:	e0bff917 	ldw	r2,-28(fp)
}
   41bf4:	e037883a 	mov	sp,fp
   41bf8:	dfc00117 	ldw	ra,4(sp)
   41bfc:	df000017 	ldw	fp,0(sp)
   41c00:	dec00204 	addi	sp,sp,8
   41c04:	f800283a 	ret

00041c08 <vTaskDelete>:
/*-----------------------------------------------------------*/

#if ( INCLUDE_vTaskDelete == 1 )

	void vTaskDelete( xTaskHandle pxTaskToDelete )
	{
   41c08:	defffc04 	addi	sp,sp,-16
   41c0c:	dfc00315 	stw	ra,12(sp)
   41c10:	df000215 	stw	fp,8(sp)
   41c14:	df000204 	addi	fp,sp,8
   41c18:	e13fff15 	stw	r4,-4(fp)
	tskTCB *pxTCB;

		taskENTER_CRITICAL();
   41c1c:	00431780 	call	43178 <vTaskEnterCritical>
		{
			/* Ensure a yield is performed if the current task is being
			deleted. */
			if( pxTaskToDelete == pxCurrentTCB )
   41c20:	d0a6d617 	ldw	r2,-25768(gp)
   41c24:	e0ffff17 	ldw	r3,-4(fp)
   41c28:	1880011e 	bne	r3,r2,41c30 <vTaskDelete+0x28>
			{
				pxTaskToDelete = NULL;
   41c2c:	e03fff15 	stw	zero,-4(fp)
			}

			/* If null is passed in here then we are deleting ourselves. */
			pxTCB = prvGetTCBFromHandle( pxTaskToDelete );
   41c30:	e0bfff17 	ldw	r2,-4(fp)
   41c34:	1000021e 	bne	r2,zero,41c40 <vTaskDelete+0x38>
   41c38:	d0a6d617 	ldw	r2,-25768(gp)
   41c3c:	00000106 	br	41c44 <vTaskDelete+0x3c>
   41c40:	e0bfff17 	ldw	r2,-4(fp)
   41c44:	e0bffe15 	stw	r2,-8(fp)

			/* Remove task from the ready list and place in the	termination list.
			This will stop the task from be scheduled.  The idle task will check
			the termination list and free up any memory allocated by the
			scheduler for the TCB and stack. */
			vListRemove( &( pxTCB->xGenericListItem ) );
   41c48:	e0bffe17 	ldw	r2,-8(fp)
   41c4c:	10800104 	addi	r2,r2,4
   41c50:	1009883a 	mov	r4,r2
   41c54:	00404900 	call	40490 <vListRemove>

			/* Is the task waiting on an event also? */
			if( pxTCB->xEventListItem.pvContainer )
   41c58:	e0bffe17 	ldw	r2,-8(fp)
   41c5c:	10800a17 	ldw	r2,40(r2)
   41c60:	10000426 	beq	r2,zero,41c74 <vTaskDelete+0x6c>
			{
				vListRemove( &( pxTCB->xEventListItem ) );
   41c64:	e0bffe17 	ldw	r2,-8(fp)
   41c68:	10800604 	addi	r2,r2,24
   41c6c:	1009883a 	mov	r4,r2
   41c70:	00404900 	call	40490 <vListRemove>
			}

			vListInsertEnd( ( xList * ) &xTasksWaitingTermination, &( pxTCB->xGenericListItem ) );
   41c74:	e0bffe17 	ldw	r2,-8(fp)
   41c78:	10800104 	addi	r2,r2,4
   41c7c:	010001b4 	movhi	r4,6
   41c80:	213ec104 	addi	r4,r4,-1276
   41c84:	100b883a 	mov	r5,r2
   41c88:	00403240 	call	40324 <vListInsertEnd>

			/* Increment the ucTasksDeleted variable so the idle task knows
			there is a task that has been deleted and that it should therefore
			check the xTasksWaitingTermination list. */
			++uxTasksDeleted;
   41c8c:	d0a6d917 	ldw	r2,-25756(gp)
   41c90:	10800044 	addi	r2,r2,1
   41c94:	d0a6d915 	stw	r2,-25756(gp)

			/* Increment the uxTaskNumberVariable also so kernel aware debuggers
			can detect that the task lists need re-generating. */
			uxTaskNumber++;
   41c98:	d0a6e317 	ldw	r2,-25716(gp)
   41c9c:	10800044 	addi	r2,r2,1
   41ca0:	d0a6e315 	stw	r2,-25716(gp)

			traceTASK_DELETE( pxTCB );
		}
		taskEXIT_CRITICAL();
   41ca4:	00431c40 	call	431c4 <vTaskExitCritical>

		/* Force a reschedule if we have just deleted the current task. */
		if( xSchedulerRunning != pdFALSE )
   41ca8:	d0a6de17 	ldw	r2,-25736(gp)
   41cac:	10000326 	beq	r2,zero,41cbc <vTaskDelete+0xb4>
		{
			if( ( void * ) pxTaskToDelete == NULL )
   41cb0:	e0bfff17 	ldw	r2,-4(fp)
   41cb4:	1000011e 	bne	r2,zero,41cbc <vTaskDelete+0xb4>
			{
				portYIELD_WITHIN_API();
   41cb8:	003b683a 	trap	0
			}
		}
	}
   41cbc:	e037883a 	mov	sp,fp
   41cc0:	dfc00117 	ldw	ra,4(sp)
   41cc4:	df000017 	ldw	fp,0(sp)
   41cc8:	dec00204 	addi	sp,sp,8
   41ccc:	f800283a 	ret

00041cd0 <vTaskDelayUntil>:
 *----------------------------------------------------------*/

#if ( INCLUDE_vTaskDelayUntil == 1 )

	void vTaskDelayUntil( portTickType * const pxPreviousWakeTime, portTickType xTimeIncrement )
	{
   41cd0:	defff904 	addi	sp,sp,-28
   41cd4:	dfc00615 	stw	ra,24(sp)
   41cd8:	df000515 	stw	fp,20(sp)
   41cdc:	df000504 	addi	fp,sp,20
   41ce0:	e13ffe15 	stw	r4,-8(fp)
   41ce4:	e17fff15 	stw	r5,-4(fp)
	portTickType xTimeToWake;
	portBASE_TYPE xAlreadyYielded, xShouldDelay = pdFALSE;
   41ce8:	e03ffb15 	stw	zero,-20(fp)

		configASSERT( pxPreviousWakeTime );
		configASSERT( ( xTimeIncrement > 0 ) );

		vTaskSuspendAll();
   41cec:	00423bc0 	call	423bc <vTaskSuspendAll>
		{
			/* Generate the tick time at which the task wants to wake. */
			xTimeToWake = *pxPreviousWakeTime + xTimeIncrement;
   41cf0:	e0bffe17 	ldw	r2,-8(fp)
   41cf4:	10c00017 	ldw	r3,0(r2)
   41cf8:	e0bfff17 	ldw	r2,-4(fp)
   41cfc:	1885883a 	add	r2,r3,r2
   41d00:	e0bffc15 	stw	r2,-16(fp)

			if( xTickCount < *pxPreviousWakeTime )
   41d04:	e0bffe17 	ldw	r2,-8(fp)
   41d08:	10800017 	ldw	r2,0(r2)
   41d0c:	d0e6db17 	ldw	r3,-25748(gp)
   41d10:	18800a2e 	bgeu	r3,r2,41d3c <vTaskDelayUntil+0x6c>
				/* The tick count has overflowed since this function was
				lasted called.  In this case the only time we should ever
				actually delay is if the wake time has also	overflowed,
				and the wake time is greater than the tick time.  When this
				is the case it is as if neither time had overflowed. */
				if( ( xTimeToWake < *pxPreviousWakeTime ) && ( xTimeToWake > xTickCount ) )
   41d14:	e0bffe17 	ldw	r2,-8(fp)
   41d18:	10800017 	ldw	r2,0(r2)
   41d1c:	e0fffc17 	ldw	r3,-16(fp)
   41d20:	18800f2e 	bgeu	r3,r2,41d60 <vTaskDelayUntil+0x90>
   41d24:	d0e6db17 	ldw	r3,-25748(gp)
   41d28:	e0bffc17 	ldw	r2,-16(fp)
   41d2c:	18800c2e 	bgeu	r3,r2,41d60 <vTaskDelayUntil+0x90>
				{
					xShouldDelay = pdTRUE;
   41d30:	00800044 	movi	r2,1
   41d34:	e0bffb15 	stw	r2,-20(fp)
   41d38:	00000906 	br	41d60 <vTaskDelayUntil+0x90>
			else
			{
				/* The tick time has not overflowed.  In this case we will
				delay if either the wake time has overflowed, and/or the
				tick time is less than the wake time. */
				if( ( xTimeToWake < *pxPreviousWakeTime ) || ( xTimeToWake > xTickCount ) )
   41d3c:	e0bffe17 	ldw	r2,-8(fp)
   41d40:	10800017 	ldw	r2,0(r2)
   41d44:	e0fffc17 	ldw	r3,-16(fp)
   41d48:	18800336 	bltu	r3,r2,41d58 <vTaskDelayUntil+0x88>
   41d4c:	d0e6db17 	ldw	r3,-25748(gp)
   41d50:	e0bffc17 	ldw	r2,-16(fp)
   41d54:	1880022e 	bgeu	r3,r2,41d60 <vTaskDelayUntil+0x90>
				{
					xShouldDelay = pdTRUE;
   41d58:	00800044 	movi	r2,1
   41d5c:	e0bffb15 	stw	r2,-20(fp)
				}
			}

			/* Update the wake time ready for the next call. */
			*pxPreviousWakeTime = xTimeToWake;
   41d60:	e0bffe17 	ldw	r2,-8(fp)
   41d64:	e0fffc17 	ldw	r3,-16(fp)
   41d68:	10c00015 	stw	r3,0(r2)

			if( xShouldDelay != pdFALSE )
   41d6c:	e0bffb17 	ldw	r2,-20(fp)
   41d70:	10000626 	beq	r2,zero,41d8c <vTaskDelayUntil+0xbc>
				traceTASK_DELAY_UNTIL();

				/* We must remove ourselves from the ready list before adding
				ourselves to the blocked list as the same list item is used for
				both lists. */
				vListRemove( ( xListItem * ) &( pxCurrentTCB->xGenericListItem ) );
   41d74:	d0a6d617 	ldw	r2,-25768(gp)
   41d78:	10800104 	addi	r2,r2,4
   41d7c:	1009883a 	mov	r4,r2
   41d80:	00404900 	call	40490 <vListRemove>
				prvAddCurrentTaskToDelayedList( xTimeToWake );
   41d84:	e13ffc17 	ldw	r4,-16(fp)
   41d88:	0042d400 	call	42d40 <prvAddCurrentTaskToDelayedList>
			}
		}
		xAlreadyYielded = xTaskResumeAll();
   41d8c:	00423e40 	call	423e4 <xTaskResumeAll>
   41d90:	e0bffd15 	stw	r2,-12(fp)

		/* Force a reschedule if xTaskResumeAll has not already done so, we may
		have put ourselves to sleep. */
		if( !xAlreadyYielded )
   41d94:	e0bffd17 	ldw	r2,-12(fp)
   41d98:	1000011e 	bne	r2,zero,41da0 <vTaskDelayUntil+0xd0>
		{
			portYIELD_WITHIN_API();
   41d9c:	003b683a 	trap	0
		}
	}
   41da0:	e037883a 	mov	sp,fp
   41da4:	dfc00117 	ldw	ra,4(sp)
   41da8:	df000017 	ldw	fp,0(sp)
   41dac:	dec00204 	addi	sp,sp,8
   41db0:	f800283a 	ret

00041db4 <vTaskDelay>:
/*-----------------------------------------------------------*/

#if ( INCLUDE_vTaskDelay == 1 )

	void vTaskDelay( portTickType xTicksToDelay )
	{
   41db4:	defffb04 	addi	sp,sp,-20
   41db8:	dfc00415 	stw	ra,16(sp)
   41dbc:	df000315 	stw	fp,12(sp)
   41dc0:	df000304 	addi	fp,sp,12
   41dc4:	e13fff15 	stw	r4,-4(fp)
	portTickType xTimeToWake;
	signed portBASE_TYPE xAlreadyYielded = pdFALSE;
   41dc8:	e03ffd15 	stw	zero,-12(fp)

		/* A delay time of zero just forces a reschedule. */
		if( xTicksToDelay > ( portTickType ) 0 )
   41dcc:	e0bfff17 	ldw	r2,-4(fp)
   41dd0:	10000d26 	beq	r2,zero,41e08 <vTaskDelay+0x54>
		{
			vTaskSuspendAll();
   41dd4:	00423bc0 	call	423bc <vTaskSuspendAll>
				This task cannot be in an event list as it is the currently
				executing task. */

				/* Calculate the time to wake - this may overflow but this is
				not a problem. */
				xTimeToWake = xTickCount + xTicksToDelay;
   41dd8:	d0e6db17 	ldw	r3,-25748(gp)
   41ddc:	e0bfff17 	ldw	r2,-4(fp)
   41de0:	1885883a 	add	r2,r3,r2
   41de4:	e0bffe15 	stw	r2,-8(fp)

				/* We must remove ourselves from the ready list before adding
				ourselves to the blocked list as the same list item is used for
				both lists. */
				vListRemove( ( xListItem * ) &( pxCurrentTCB->xGenericListItem ) );
   41de8:	d0a6d617 	ldw	r2,-25768(gp)
   41dec:	10800104 	addi	r2,r2,4
   41df0:	1009883a 	mov	r4,r2
   41df4:	00404900 	call	40490 <vListRemove>
				prvAddCurrentTaskToDelayedList( xTimeToWake );
   41df8:	e13ffe17 	ldw	r4,-8(fp)
   41dfc:	0042d400 	call	42d40 <prvAddCurrentTaskToDelayedList>
			}
			xAlreadyYielded = xTaskResumeAll();
   41e00:	00423e40 	call	423e4 <xTaskResumeAll>
   41e04:	e0bffd15 	stw	r2,-12(fp)
		}

		/* Force a reschedule if xTaskResumeAll has not already done so, we may
		have put ourselves to sleep. */
		if( !xAlreadyYielded )
   41e08:	e0bffd17 	ldw	r2,-12(fp)
   41e0c:	1000011e 	bne	r2,zero,41e14 <vTaskDelay+0x60>
		{
			portYIELD_WITHIN_API();
   41e10:	003b683a 	trap	0
		}
	}
   41e14:	e037883a 	mov	sp,fp
   41e18:	dfc00117 	ldw	ra,4(sp)
   41e1c:	df000017 	ldw	fp,0(sp)
   41e20:	dec00204 	addi	sp,sp,8
   41e24:	f800283a 	ret

00041e28 <uxTaskPriorityGet>:
/*-----------------------------------------------------------*/

#if ( INCLUDE_uxTaskPriorityGet == 1 )

	unsigned portBASE_TYPE uxTaskPriorityGet( xTaskHandle pxTask )
	{
   41e28:	defffb04 	addi	sp,sp,-20
   41e2c:	dfc00415 	stw	ra,16(sp)
   41e30:	df000315 	stw	fp,12(sp)
   41e34:	df000304 	addi	fp,sp,12
   41e38:	e13fff15 	stw	r4,-4(fp)
	tskTCB *pxTCB;
	unsigned portBASE_TYPE uxReturn;

		taskENTER_CRITICAL();
   41e3c:	00431780 	call	43178 <vTaskEnterCritical>
		{
			/* If null is passed in here then we are changing the
			priority of the calling function. */
			pxTCB = prvGetTCBFromHandle( pxTask );
   41e40:	e0bfff17 	ldw	r2,-4(fp)
   41e44:	1000021e 	bne	r2,zero,41e50 <uxTaskPriorityGet+0x28>
   41e48:	d0a6d617 	ldw	r2,-25768(gp)
   41e4c:	00000106 	br	41e54 <uxTaskPriorityGet+0x2c>
   41e50:	e0bfff17 	ldw	r2,-4(fp)
   41e54:	e0bffd15 	stw	r2,-12(fp)
			uxReturn = pxTCB->uxPriority;
   41e58:	e0bffd17 	ldw	r2,-12(fp)
   41e5c:	10800b17 	ldw	r2,44(r2)
   41e60:	e0bffe15 	stw	r2,-8(fp)
		}
		taskEXIT_CRITICAL();
   41e64:	00431c40 	call	431c4 <vTaskExitCritical>

		return uxReturn;
   41e68:	e0bffe17 	ldw	r2,-8(fp)
	}
   41e6c:	e037883a 	mov	sp,fp
   41e70:	dfc00117 	ldw	ra,4(sp)
   41e74:	df000017 	ldw	fp,0(sp)
   41e78:	dec00204 	addi	sp,sp,8
   41e7c:	f800283a 	ret

00041e80 <vTaskPrioritySet>:
/*-----------------------------------------------------------*/

#if ( INCLUDE_vTaskPrioritySet == 1 )

	void vTaskPrioritySet( xTaskHandle pxTask, unsigned portBASE_TYPE uxNewPriority )
	{
   41e80:	defff904 	addi	sp,sp,-28
   41e84:	dfc00615 	stw	ra,24(sp)
   41e88:	df000515 	stw	fp,20(sp)
   41e8c:	df000504 	addi	fp,sp,20
   41e90:	e13ffe15 	stw	r4,-8(fp)
   41e94:	e17fff15 	stw	r5,-4(fp)
	tskTCB *pxTCB;
	unsigned portBASE_TYPE uxCurrentPriority;
	portBASE_TYPE xYieldRequired = pdFALSE;
   41e98:	e03ffb15 	stw	zero,-20(fp)

		configASSERT( ( uxNewPriority < configMAX_PRIORITIES ) );

		/* Ensure the new priority is valid. */
		if( uxNewPriority >= configMAX_PRIORITIES )
   41e9c:	e0bfff17 	ldw	r2,-4(fp)
   41ea0:	10800170 	cmpltui	r2,r2,5
   41ea4:	1000021e 	bne	r2,zero,41eb0 <vTaskPrioritySet+0x30>
		{
			uxNewPriority = configMAX_PRIORITIES - ( unsigned portBASE_TYPE ) 1U;
   41ea8:	00800104 	movi	r2,4
   41eac:	e0bfff15 	stw	r2,-4(fp)
		}

		taskENTER_CRITICAL();
   41eb0:	00431780 	call	43178 <vTaskEnterCritical>
		{
			if( pxTask == pxCurrentTCB )
   41eb4:	d0a6d617 	ldw	r2,-25768(gp)
   41eb8:	e0fffe17 	ldw	r3,-8(fp)
   41ebc:	1880011e 	bne	r3,r2,41ec4 <vTaskPrioritySet+0x44>
			{
				pxTask = NULL;
   41ec0:	e03ffe15 	stw	zero,-8(fp)
			}

			/* If null is passed in here then we are changing the
			priority of the calling function. */
			pxTCB = prvGetTCBFromHandle( pxTask );
   41ec4:	e0bffe17 	ldw	r2,-8(fp)
   41ec8:	1000021e 	bne	r2,zero,41ed4 <vTaskPrioritySet+0x54>
   41ecc:	d0a6d617 	ldw	r2,-25768(gp)
   41ed0:	00000106 	br	41ed8 <vTaskPrioritySet+0x58>
   41ed4:	e0bffe17 	ldw	r2,-8(fp)
   41ed8:	e0bffc15 	stw	r2,-16(fp)

			traceTASK_PRIORITY_SET( pxTask, uxNewPriority );

			#if ( configUSE_MUTEXES == 1 )
			{
				uxCurrentPriority = pxTCB->uxBasePriority;
   41edc:	e0bffc17 	ldw	r2,-16(fp)
   41ee0:	10801017 	ldw	r2,64(r2)
   41ee4:	e0bffd15 	stw	r2,-12(fp)
			{
				uxCurrentPriority = pxTCB->uxPriority;
			}
			#endif

			if( uxCurrentPriority != uxNewPriority )
   41ee8:	e0fffd17 	ldw	r3,-12(fp)
   41eec:	e0bfff17 	ldw	r2,-4(fp)
   41ef0:	18803e26 	beq	r3,r2,41fec <vTaskPrioritySet+0x16c>
			{
				/* The priority change may have readied a task of higher
				priority than the calling task. */
				if( uxNewPriority > uxCurrentPriority )
   41ef4:	e0bfff17 	ldw	r2,-4(fp)
   41ef8:	e0fffd17 	ldw	r3,-12(fp)
   41efc:	1880052e 	bgeu	r3,r2,41f14 <vTaskPrioritySet+0x94>
				{
					if( pxTask != NULL )
   41f00:	e0bffe17 	ldw	r2,-8(fp)
   41f04:	10000726 	beq	r2,zero,41f24 <vTaskPrioritySet+0xa4>
					{
						/* The priority of another task is being raised.  If we
						were raising the priority of the currently running task
						there would be no need to switch as it must have already
						been the highest priority task. */
						xYieldRequired = pdTRUE;
   41f08:	00800044 	movi	r2,1
   41f0c:	e0bffb15 	stw	r2,-20(fp)
   41f10:	00000406 	br	41f24 <vTaskPrioritySet+0xa4>
					}
				}
				else if( pxTask == NULL )
   41f14:	e0bffe17 	ldw	r2,-8(fp)
   41f18:	1000021e 	bne	r2,zero,41f24 <vTaskPrioritySet+0xa4>
				{
					/* Setting our own priority down means there may now be another
					task of higher priority that is ready to execute. */
					xYieldRequired = pdTRUE;
   41f1c:	00800044 	movi	r2,1
   41f20:	e0bffb15 	stw	r2,-20(fp)

				#if ( configUSE_MUTEXES == 1 )
				{
					/* Only change the priority being used if the task is not
					currently using an inherited priority. */
					if( pxTCB->uxBasePriority == pxTCB->uxPriority )
   41f24:	e0bffc17 	ldw	r2,-16(fp)
   41f28:	10c01017 	ldw	r3,64(r2)
   41f2c:	e0bffc17 	ldw	r2,-16(fp)
   41f30:	10800b17 	ldw	r2,44(r2)
   41f34:	1880031e 	bne	r3,r2,41f44 <vTaskPrioritySet+0xc4>
					{
						pxTCB->uxPriority = uxNewPriority;
   41f38:	e0bffc17 	ldw	r2,-16(fp)
   41f3c:	e0ffff17 	ldw	r3,-4(fp)
   41f40:	10c00b15 	stw	r3,44(r2)
					}

					/* The base priority gets set whatever. */
					pxTCB->uxBasePriority = uxNewPriority;
   41f44:	e0bffc17 	ldw	r2,-16(fp)
   41f48:	e0ffff17 	ldw	r3,-4(fp)
   41f4c:	10c01015 	stw	r3,64(r2)
				{
					pxTCB->uxPriority = uxNewPriority;
				}
				#endif

				listSET_LIST_ITEM_VALUE( &( pxTCB->xEventListItem ), ( configMAX_PRIORITIES - ( portTickType ) uxNewPriority ) );
   41f50:	00c00144 	movi	r3,5
   41f54:	e0bfff17 	ldw	r2,-4(fp)
   41f58:	1887c83a 	sub	r3,r3,r2
   41f5c:	e0bffc17 	ldw	r2,-16(fp)
   41f60:	10c00615 	stw	r3,24(r2)

				/* If the task is in the blocked or suspended list we need do
				nothing more than change it's priority variable. However, if
				the task is in a ready list it needs to be removed and placed
				in the queue appropriate to its new priority. */
				if( listIS_CONTAINED_WITHIN( &( pxReadyTasksLists[ uxCurrentPriority ] ), &( pxTCB->xGenericListItem ) ) )
   41f64:	e0bffc17 	ldw	r2,-16(fp)
   41f68:	10c00517 	ldw	r3,20(r2)
   41f6c:	e0bffd17 	ldw	r2,-12(fp)
   41f70:	11000524 	muli	r4,r2,20
   41f74:	008001b4 	movhi	r2,6
   41f78:	10be9904 	addi	r2,r2,-1436
   41f7c:	2085883a 	add	r2,r4,r2
   41f80:	1880161e 	bne	r3,r2,41fdc <vTaskPrioritySet+0x15c>
				{
					/* The task is currently in its ready list - remove before adding
					it to it's new ready list.  As we are in a critical section we
					can do this even if the scheduler is suspended. */
					vListRemove( &( pxTCB->xGenericListItem ) );
   41f84:	e0bffc17 	ldw	r2,-16(fp)
   41f88:	10800104 	addi	r2,r2,4
   41f8c:	1009883a 	mov	r4,r2
   41f90:	00404900 	call	40490 <vListRemove>
					prvAddTaskToReadyQueue( pxTCB );
   41f94:	e0bffc17 	ldw	r2,-16(fp)
   41f98:	10800b17 	ldw	r2,44(r2)
   41f9c:	d0e6dd17 	ldw	r3,-25740(gp)
   41fa0:	1880032e 	bgeu	r3,r2,41fb0 <vTaskPrioritySet+0x130>
   41fa4:	e0bffc17 	ldw	r2,-16(fp)
   41fa8:	10800b17 	ldw	r2,44(r2)
   41fac:	d0a6dd15 	stw	r2,-25740(gp)
   41fb0:	e0bffc17 	ldw	r2,-16(fp)
   41fb4:	10800b17 	ldw	r2,44(r2)
   41fb8:	10c00524 	muli	r3,r2,20
   41fbc:	008001b4 	movhi	r2,6
   41fc0:	10be9904 	addi	r2,r2,-1436
   41fc4:	1887883a 	add	r3,r3,r2
   41fc8:	e0bffc17 	ldw	r2,-16(fp)
   41fcc:	10800104 	addi	r2,r2,4
   41fd0:	1809883a 	mov	r4,r3
   41fd4:	100b883a 	mov	r5,r2
   41fd8:	00403240 	call	40324 <vListInsertEnd>
				}

				if( xYieldRequired == pdTRUE )
   41fdc:	e0bffb17 	ldw	r2,-20(fp)
   41fe0:	10800058 	cmpnei	r2,r2,1
   41fe4:	1000011e 	bne	r2,zero,41fec <vTaskPrioritySet+0x16c>
				{
					portYIELD_WITHIN_API();
   41fe8:	003b683a 	trap	0
				}
			}
		}
		taskEXIT_CRITICAL();
   41fec:	00431c40 	call	431c4 <vTaskExitCritical>
	}
   41ff0:	e037883a 	mov	sp,fp
   41ff4:	dfc00117 	ldw	ra,4(sp)
   41ff8:	df000017 	ldw	fp,0(sp)
   41ffc:	dec00204 	addi	sp,sp,8
   42000:	f800283a 	ret

00042004 <vTaskSuspend>:
/*-----------------------------------------------------------*/

#if ( INCLUDE_vTaskSuspend == 1 )

	void vTaskSuspend( xTaskHandle pxTaskToSuspend )
	{
   42004:	defffc04 	addi	sp,sp,-16
   42008:	dfc00315 	stw	ra,12(sp)
   4200c:	df000215 	stw	fp,8(sp)
   42010:	df000204 	addi	fp,sp,8
   42014:	e13fff15 	stw	r4,-4(fp)
	tskTCB *pxTCB;

		taskENTER_CRITICAL();
   42018:	00431780 	call	43178 <vTaskEnterCritical>
		{
			/* Ensure a yield is performed if the current task is being
			suspended. */
			if( pxTaskToSuspend == pxCurrentTCB )
   4201c:	d0a6d617 	ldw	r2,-25768(gp)
   42020:	e0ffff17 	ldw	r3,-4(fp)
   42024:	1880011e 	bne	r3,r2,4202c <vTaskSuspend+0x28>
			{
				pxTaskToSuspend = NULL;
   42028:	e03fff15 	stw	zero,-4(fp)
			}

			/* If null is passed in here then we are suspending ourselves. */
			pxTCB = prvGetTCBFromHandle( pxTaskToSuspend );
   4202c:	e0bfff17 	ldw	r2,-4(fp)
   42030:	1000021e 	bne	r2,zero,4203c <vTaskSuspend+0x38>
   42034:	d0a6d617 	ldw	r2,-25768(gp)
   42038:	00000106 	br	42040 <vTaskSuspend+0x3c>
   4203c:	e0bfff17 	ldw	r2,-4(fp)
   42040:	e0bffe15 	stw	r2,-8(fp)

			traceTASK_SUSPEND( pxTCB );

			/* Remove task from the ready/delayed list and place in the	suspended list. */
			vListRemove( &( pxTCB->xGenericListItem ) );
   42044:	e0bffe17 	ldw	r2,-8(fp)
   42048:	10800104 	addi	r2,r2,4
   4204c:	1009883a 	mov	r4,r2
   42050:	00404900 	call	40490 <vListRemove>

			/* Is the task waiting on an event also? */
			if( pxTCB->xEventListItem.pvContainer )
   42054:	e0bffe17 	ldw	r2,-8(fp)
   42058:	10800a17 	ldw	r2,40(r2)
   4205c:	10000426 	beq	r2,zero,42070 <vTaskSuspend+0x6c>
			{
				vListRemove( &( pxTCB->xEventListItem ) );
   42060:	e0bffe17 	ldw	r2,-8(fp)
   42064:	10800604 	addi	r2,r2,24
   42068:	1009883a 	mov	r4,r2
   4206c:	00404900 	call	40490 <vListRemove>
			}

			vListInsertEnd( ( xList * ) &xSuspendedTaskList, &( pxTCB->xGenericListItem ) );
   42070:	e0bffe17 	ldw	r2,-8(fp)
   42074:	10800104 	addi	r2,r2,4
   42078:	010001b4 	movhi	r4,6
   4207c:	213ec604 	addi	r4,r4,-1256
   42080:	100b883a 	mov	r5,r2
   42084:	00403240 	call	40324 <vListInsertEnd>
		}
		taskEXIT_CRITICAL();
   42088:	00431c40 	call	431c4 <vTaskExitCritical>

		if( ( void * ) pxTaskToSuspend == NULL )
   4208c:	e0bfff17 	ldw	r2,-4(fp)
   42090:	10000c1e 	bne	r2,zero,420c4 <vTaskSuspend+0xc0>
		{
			if( xSchedulerRunning != pdFALSE )
   42094:	d0a6de17 	ldw	r2,-25736(gp)
   42098:	10000226 	beq	r2,zero,420a4 <vTaskSuspend+0xa0>
			{
				/* We have just suspended the current task. */
				portYIELD_WITHIN_API();
   4209c:	003b683a 	trap	0
   420a0:	00000806 	br	420c4 <vTaskSuspend+0xc0>
			else
			{
				/* The scheduler is not running, but the task that was pointed
				to by pxCurrentTCB has just been suspended and pxCurrentTCB
				must be adjusted to point to a different task. */
				if( listCURRENT_LIST_LENGTH( &xSuspendedTaskList ) == uxCurrentNumberOfTasks ) 
   420a4:	008001b4 	movhi	r2,6
   420a8:	10bec604 	addi	r2,r2,-1256
   420ac:	10c00017 	ldw	r3,0(r2)
   420b0:	d0a6da17 	ldw	r2,-25752(gp)
   420b4:	1880021e 	bne	r3,r2,420c0 <vTaskSuspend+0xbc>
				{
					/* No other tasks are ready, so set pxCurrentTCB back to
					NULL so when the next task is created pxCurrentTCB will
					be set to point to it no matter what its relative priority
					is. */
					pxCurrentTCB = NULL;
   420b8:	d026d615 	stw	zero,-25768(gp)
   420bc:	00000106 	br	420c4 <vTaskSuspend+0xc0>
				}
				else
				{
					vTaskSwitchContext();
   420c0:	004271c0 	call	4271c <vTaskSwitchContext>
				}
			}
		}
	}
   420c4:	e037883a 	mov	sp,fp
   420c8:	dfc00117 	ldw	ra,4(sp)
   420cc:	df000017 	ldw	fp,0(sp)
   420d0:	dec00204 	addi	sp,sp,8
   420d4:	f800283a 	ret

000420d8 <xTaskIsTaskSuspended>:
/*-----------------------------------------------------------*/

#if ( INCLUDE_vTaskSuspend == 1 )

	signed portBASE_TYPE xTaskIsTaskSuspended( xTaskHandle xTask )
	{
   420d8:	defffc04 	addi	sp,sp,-16
   420dc:	df000315 	stw	fp,12(sp)
   420e0:	df000304 	addi	fp,sp,12
   420e4:	e13fff15 	stw	r4,-4(fp)
	portBASE_TYPE xReturn = pdFALSE;
   420e8:	e03ffd15 	stw	zero,-12(fp)
	const tskTCB * const pxTCB = ( tskTCB * ) xTask;
   420ec:	e0bfff17 	ldw	r2,-4(fp)
   420f0:	e0bffe15 	stw	r2,-8(fp)
		/* It does not make sense to check if the calling task is suspended. */
		configASSERT( xTask );

		/* Is the task we are attempting to resume actually in the
		suspended list? */
		if( listIS_CONTAINED_WITHIN( &xSuspendedTaskList, &( pxTCB->xGenericListItem ) ) != pdFALSE )
   420f4:	e0bffe17 	ldw	r2,-8(fp)
   420f8:	10c00517 	ldw	r3,20(r2)
   420fc:	008001b4 	movhi	r2,6
   42100:	10bec604 	addi	r2,r2,-1256
   42104:	18800a1e 	bne	r3,r2,42130 <xTaskIsTaskSuspended+0x58>
		{
			/* Has the task already been resumed from within an ISR? */
			if( listIS_CONTAINED_WITHIN( &xPendingReadyList, &( pxTCB->xEventListItem ) ) != pdTRUE )
   42108:	e0bffe17 	ldw	r2,-8(fp)
   4210c:	10c00a17 	ldw	r3,40(r2)
   42110:	008001b4 	movhi	r2,6
   42114:	10bebc04 	addi	r2,r2,-1296
   42118:	18800526 	beq	r3,r2,42130 <xTaskIsTaskSuspended+0x58>
			{
				/* Is it in the suspended list because it is in the
				Suspended state?  It is possible to be in the suspended
				list because it is blocked on a task with no timeout
				specified. */
				if( listIS_CONTAINED_WITHIN( NULL, &( pxTCB->xEventListItem ) ) == pdTRUE )
   4211c:	e0bffe17 	ldw	r2,-8(fp)
   42120:	10800a17 	ldw	r2,40(r2)
   42124:	1000021e 	bne	r2,zero,42130 <xTaskIsTaskSuspended+0x58>
				{
					xReturn = pdTRUE;
   42128:	00800044 	movi	r2,1
   4212c:	e0bffd15 	stw	r2,-12(fp)
				}
			}
		}

		return xReturn;
   42130:	e0bffd17 	ldw	r2,-12(fp)
	}
   42134:	e037883a 	mov	sp,fp
   42138:	df000017 	ldw	fp,0(sp)
   4213c:	dec00104 	addi	sp,sp,4
   42140:	f800283a 	ret

00042144 <vTaskResume>:
/*-----------------------------------------------------------*/

#if ( INCLUDE_vTaskSuspend == 1 )

	void vTaskResume( xTaskHandle pxTaskToResume )
	{
   42144:	defffc04 	addi	sp,sp,-16
   42148:	dfc00315 	stw	ra,12(sp)
   4214c:	df000215 	stw	fp,8(sp)
   42150:	df000204 	addi	fp,sp,8
   42154:	e13fff15 	stw	r4,-4(fp)
		/* It does not make sense to resume the calling task. */
		configASSERT( pxTaskToResume );

		/* Remove the task from whichever list it is currently in, and place
		it in the ready list. */
		pxTCB = ( tskTCB * ) pxTaskToResume;
   42158:	e0bfff17 	ldw	r2,-4(fp)
   4215c:	e0bffe15 	stw	r2,-8(fp)

		/* The parameter cannot be NULL as it is impossible to resume the
		currently executing task. */
		if( ( pxTCB != NULL ) && ( pxTCB != pxCurrentTCB ) )
   42160:	e0bffe17 	ldw	r2,-8(fp)
   42164:	10002526 	beq	r2,zero,421fc <vTaskResume+0xb8>
   42168:	d0a6d617 	ldw	r2,-25768(gp)
   4216c:	e0fffe17 	ldw	r3,-8(fp)
   42170:	18802226 	beq	r3,r2,421fc <vTaskResume+0xb8>
		{
			taskENTER_CRITICAL();
   42174:	00431780 	call	43178 <vTaskEnterCritical>
			{
				if( xTaskIsTaskSuspended( pxTCB ) == pdTRUE )
   42178:	e13ffe17 	ldw	r4,-8(fp)
   4217c:	00420d80 	call	420d8 <xTaskIsTaskSuspended>
   42180:	10800058 	cmpnei	r2,r2,1
   42184:	10001c1e 	bne	r2,zero,421f8 <vTaskResume+0xb4>
				{
					traceTASK_RESUME( pxTCB );

					/* As we are in a critical section we can access the ready
					lists even if the scheduler is suspended. */
					vListRemove(  &( pxTCB->xGenericListItem ) );
   42188:	e0bffe17 	ldw	r2,-8(fp)
   4218c:	10800104 	addi	r2,r2,4
   42190:	1009883a 	mov	r4,r2
   42194:	00404900 	call	40490 <vListRemove>
					prvAddTaskToReadyQueue( pxTCB );
   42198:	e0bffe17 	ldw	r2,-8(fp)
   4219c:	10800b17 	ldw	r2,44(r2)
   421a0:	d0e6dd17 	ldw	r3,-25740(gp)
   421a4:	1880032e 	bgeu	r3,r2,421b4 <vTaskResume+0x70>
   421a8:	e0bffe17 	ldw	r2,-8(fp)
   421ac:	10800b17 	ldw	r2,44(r2)
   421b0:	d0a6dd15 	stw	r2,-25740(gp)
   421b4:	e0bffe17 	ldw	r2,-8(fp)
   421b8:	10800b17 	ldw	r2,44(r2)
   421bc:	10c00524 	muli	r3,r2,20
   421c0:	008001b4 	movhi	r2,6
   421c4:	10be9904 	addi	r2,r2,-1436
   421c8:	1887883a 	add	r3,r3,r2
   421cc:	e0bffe17 	ldw	r2,-8(fp)
   421d0:	10800104 	addi	r2,r2,4
   421d4:	1809883a 	mov	r4,r3
   421d8:	100b883a 	mov	r5,r2
   421dc:	00403240 	call	40324 <vListInsertEnd>

					/* We may have just resumed a higher priority task. */
					if( pxTCB->uxPriority >= pxCurrentTCB->uxPriority )
   421e0:	e0bffe17 	ldw	r2,-8(fp)
   421e4:	10c00b17 	ldw	r3,44(r2)
   421e8:	d0a6d617 	ldw	r2,-25768(gp)
   421ec:	10800b17 	ldw	r2,44(r2)
   421f0:	18800136 	bltu	r3,r2,421f8 <vTaskResume+0xb4>
					{
						/* This yield may not cause the task just resumed to run, but
						will leave the lists in the correct state for the next yield. */
						portYIELD_WITHIN_API();
   421f4:	003b683a 	trap	0
					}
				}
			}
			taskEXIT_CRITICAL();
   421f8:	00431c40 	call	431c4 <vTaskExitCritical>
		}
	}
   421fc:	e037883a 	mov	sp,fp
   42200:	dfc00117 	ldw	ra,4(sp)
   42204:	df000017 	ldw	fp,0(sp)
   42208:	dec00204 	addi	sp,sp,8
   4220c:	f800283a 	ret

00042210 <xTaskResumeFromISR>:
/*-----------------------------------------------------------*/

#if ( ( INCLUDE_xTaskResumeFromISR == 1 ) && ( INCLUDE_vTaskSuspend == 1 ) )

	portBASE_TYPE xTaskResumeFromISR( xTaskHandle pxTaskToResume )
	{
   42210:	defffb04 	addi	sp,sp,-20
   42214:	dfc00415 	stw	ra,16(sp)
   42218:	df000315 	stw	fp,12(sp)
   4221c:	df000304 	addi	fp,sp,12
   42220:	e13fff15 	stw	r4,-4(fp)
	portBASE_TYPE xYieldRequired = pdFALSE;
   42224:	e03ffd15 	stw	zero,-12(fp)
	tskTCB *pxTCB;

		configASSERT( pxTaskToResume );

		pxTCB = ( tskTCB * ) pxTaskToResume;
   42228:	e0bfff17 	ldw	r2,-4(fp)
   4222c:	e0bffe15 	stw	r2,-8(fp)

		if( xTaskIsTaskSuspended( pxTCB ) == pdTRUE )
   42230:	e13ffe17 	ldw	r4,-8(fp)
   42234:	00420d80 	call	420d8 <xTaskIsTaskSuspended>
   42238:	10800058 	cmpnei	r2,r2,1
   4223c:	1000261e 	bne	r2,zero,422d8 <xTaskResumeFromISR+0xc8>
		{
			traceTASK_RESUME_FROM_ISR( pxTCB );

			if( uxSchedulerSuspended == ( unsigned portBASE_TYPE ) pdFALSE )
   42240:	d0a6df17 	ldw	r2,-25732(gp)
   42244:	10001e1e 	bne	r2,zero,422c0 <xTaskResumeFromISR+0xb0>
			{
				xYieldRequired = ( pxTCB->uxPriority >= pxCurrentTCB->uxPriority );
   42248:	e0bffe17 	ldw	r2,-8(fp)
   4224c:	10c00b17 	ldw	r3,44(r2)
   42250:	d0a6d617 	ldw	r2,-25768(gp)
   42254:	10800b17 	ldw	r2,44(r2)
   42258:	1885403a 	cmpgeu	r2,r3,r2
   4225c:	10803fcc 	andi	r2,r2,255
   42260:	e0bffd15 	stw	r2,-12(fp)
				vListRemove(  &( pxTCB->xGenericListItem ) );
   42264:	e0bffe17 	ldw	r2,-8(fp)
   42268:	10800104 	addi	r2,r2,4
   4226c:	1009883a 	mov	r4,r2
   42270:	00404900 	call	40490 <vListRemove>
				prvAddTaskToReadyQueue( pxTCB );
   42274:	e0bffe17 	ldw	r2,-8(fp)
   42278:	10800b17 	ldw	r2,44(r2)
   4227c:	d0e6dd17 	ldw	r3,-25740(gp)
   42280:	1880032e 	bgeu	r3,r2,42290 <xTaskResumeFromISR+0x80>
   42284:	e0bffe17 	ldw	r2,-8(fp)
   42288:	10800b17 	ldw	r2,44(r2)
   4228c:	d0a6dd15 	stw	r2,-25740(gp)
   42290:	e0bffe17 	ldw	r2,-8(fp)
   42294:	10800b17 	ldw	r2,44(r2)
   42298:	10c00524 	muli	r3,r2,20
   4229c:	008001b4 	movhi	r2,6
   422a0:	10be9904 	addi	r2,r2,-1436
   422a4:	1887883a 	add	r3,r3,r2
   422a8:	e0bffe17 	ldw	r2,-8(fp)
   422ac:	10800104 	addi	r2,r2,4
   422b0:	1809883a 	mov	r4,r3
   422b4:	100b883a 	mov	r5,r2
   422b8:	00403240 	call	40324 <vListInsertEnd>
   422bc:	00000606 	br	422d8 <xTaskResumeFromISR+0xc8>
			else
			{
				/* We cannot access the delayed or ready lists, so will hold this
				task pending until the scheduler is resumed, at which point a
				yield will be performed if necessary. */
				vListInsertEnd( ( xList * ) &( xPendingReadyList ), &( pxTCB->xEventListItem ) );
   422c0:	e0bffe17 	ldw	r2,-8(fp)
   422c4:	10800604 	addi	r2,r2,24
   422c8:	010001b4 	movhi	r4,6
   422cc:	213ebc04 	addi	r4,r4,-1296
   422d0:	100b883a 	mov	r5,r2
   422d4:	00403240 	call	40324 <vListInsertEnd>
			}
		}

		return xYieldRequired;
   422d8:	e0bffd17 	ldw	r2,-12(fp)
	}
   422dc:	e037883a 	mov	sp,fp
   422e0:	dfc00117 	ldw	ra,4(sp)
   422e4:	df000017 	ldw	fp,0(sp)
   422e8:	dec00204 	addi	sp,sp,8
   422ec:	f800283a 	ret

000422f0 <vTaskStartScheduler>:
 * PUBLIC SCHEDULER CONTROL documented in task.h
 *----------------------------------------------------------*/


void vTaskStartScheduler( void )
{
   422f0:	defff804 	addi	sp,sp,-32
   422f4:	dfc00715 	stw	ra,28(sp)
   422f8:	df000615 	stw	fp,24(sp)
   422fc:	df000604 	addi	fp,sp,24
portBASE_TYPE xReturn;

	/* Add the idle task at the lowest priority. */
	xReturn = xTaskCreate( prvIdleTask, ( signed char * ) "IDLE", tskIDLE_STACK_SIZE, ( void * ) NULL, ( tskIDLE_PRIORITY | portPRIVILEGE_BIT ), ( xTaskHandle * ) NULL );
   42300:	d8000015 	stw	zero,0(sp)
   42304:	d8000115 	stw	zero,4(sp)
   42308:	d8000215 	stw	zero,8(sp)
   4230c:	d8000315 	stw	zero,12(sp)
   42310:	01000134 	movhi	r4,4
   42314:	210abd04 	addi	r4,r4,10996
   42318:	01400174 	movhi	r5,5
   4231c:	29491704 	addi	r5,r5,9308
   42320:	01810004 	movi	r6,1024
   42324:	000f883a 	mov	r7,zero
   42328:	0041a300 	call	41a30 <xTaskGenericCreate>
   4232c:	e0bffe15 	stw	r2,-8(fp)
			xReturn = xTimerCreateTimerTask();
		}
	}
	#endif

	if( xReturn == pdPASS )
   42330:	e0bffe17 	ldw	r2,-8(fp)
   42334:	10800058 	cmpnei	r2,r2,1
   42338:	10000a1e 	bne	r2,zero,42364 <vTaskStartScheduler+0x74>
static ALT_INLINE alt_irq_context ALT_ALWAYS_INLINE 
       alt_irq_disable_all (void)
{
  alt_irq_context context;

  NIOS2_READ_STATUS (context);
   4233c:	0005303a 	rdctl	r2,status
   42340:	e0bfff15 	stw	r2,-4(fp)

  NIOS2_WRITE_STATUS (context & ~NIOS2_STATUS_PIE_MSK);
   42344:	e0ffff17 	ldw	r3,-4(fp)
   42348:	00bfff84 	movi	r2,-2
   4234c:	1884703a 	and	r2,r3,r2
   42350:	1001703a 	wrctl	status,r2

		STEPPING THROUGH HERE USING A DEBUGGER CAN CAUSE BIG PROBLEMS IF THE
		DEBUGGER ALLOWS INTERRUPTS TO BE PROCESSED. */
		portDISABLE_INTERRUPTS();

		xSchedulerRunning = pdTRUE;
   42354:	00800044 	movi	r2,1
   42358:	d0a6de15 	stw	r2,-25736(gp)
		xTickCount = ( portTickType ) 0;
   4235c:	d026db15 	stw	zero,-25748(gp)
		the run time counter time base. */
		portCONFIGURE_TIMER_FOR_RUN_TIME_STATS();
		
		/* Setting up the timer tick is hardware specific and thus in the
		portable interface. */
		if( xPortStartScheduler() )
   42360:	00406240 	call	40624 <xPortStartScheduler>
		}
	}

	/* This line will only be reached if the kernel could not be started. */
	configASSERT( xReturn );
}
   42364:	e037883a 	mov	sp,fp
   42368:	dfc00117 	ldw	ra,4(sp)
   4236c:	df000017 	ldw	fp,0(sp)
   42370:	dec00204 	addi	sp,sp,8
   42374:	f800283a 	ret

00042378 <vTaskEndScheduler>:
/*-----------------------------------------------------------*/

void vTaskEndScheduler( void )
{
   42378:	defffd04 	addi	sp,sp,-12
   4237c:	dfc00215 	stw	ra,8(sp)
   42380:	df000115 	stw	fp,4(sp)
   42384:	df000104 	addi	fp,sp,4
static ALT_INLINE alt_irq_context ALT_ALWAYS_INLINE 
       alt_irq_disable_all (void)
{
  alt_irq_context context;

  NIOS2_READ_STATUS (context);
   42388:	0005303a 	rdctl	r2,status
   4238c:	e0bfff15 	stw	r2,-4(fp)

  NIOS2_WRITE_STATUS (context & ~NIOS2_STATUS_PIE_MSK);
   42390:	e0ffff17 	ldw	r3,-4(fp)
   42394:	00bfff84 	movi	r2,-2
   42398:	1884703a 	and	r2,r3,r2
   4239c:	1001703a 	wrctl	status,r2
	/* Stop the scheduler interrupts and call the portable scheduler end
	routine so the original ISRs can be restored if necessary.  The port
	layer must ensure interrupts enable	bit is left in the correct state. */
	portDISABLE_INTERRUPTS();
	xSchedulerRunning = pdFALSE;
   423a0:	d026de15 	stw	zero,-25736(gp)
	vPortEndScheduler();
   423a4:	004065c0 	call	4065c <vPortEndScheduler>
}
   423a8:	e037883a 	mov	sp,fp
   423ac:	dfc00117 	ldw	ra,4(sp)
   423b0:	df000017 	ldw	fp,0(sp)
   423b4:	dec00204 	addi	sp,sp,8
   423b8:	f800283a 	ret

000423bc <vTaskSuspendAll>:
/*----------------------------------------------------------*/

void vTaskSuspendAll( void )
{
   423bc:	deffff04 	addi	sp,sp,-4
   423c0:	df000015 	stw	fp,0(sp)
   423c4:	d839883a 	mov	fp,sp
	/* A critical section is not required as the variable is of type
	portBASE_TYPE. */
	++uxSchedulerSuspended;
   423c8:	d0a6df17 	ldw	r2,-25732(gp)
   423cc:	10800044 	addi	r2,r2,1
   423d0:	d0a6df15 	stw	r2,-25732(gp)
}
   423d4:	e037883a 	mov	sp,fp
   423d8:	df000017 	ldw	fp,0(sp)
   423dc:	dec00104 	addi	sp,sp,4
   423e0:	f800283a 	ret

000423e4 <xTaskResumeAll>:
/*----------------------------------------------------------*/

signed portBASE_TYPE xTaskResumeAll( void )
{
   423e4:	defffb04 	addi	sp,sp,-20
   423e8:	dfc00415 	stw	ra,16(sp)
   423ec:	df000315 	stw	fp,12(sp)
   423f0:	dc000215 	stw	r16,8(sp)
   423f4:	df000304 	addi	fp,sp,12
register tskTCB *pxTCB;
signed portBASE_TYPE xAlreadyYielded = pdFALSE;
   423f8:	e03ffd15 	stw	zero,-12(fp)
	/* It is possible that an ISR caused a task to be removed from an event
	list while the scheduler was suspended.  If this was the case then the
	removed task will have been added to the xPendingReadyList.  Once the
	scheduler has been resumed it is safe to move all the pending ready
	tasks from this list into their appropriate ready list. */
	taskENTER_CRITICAL();
   423fc:	00431780 	call	43178 <vTaskEnterCritical>
	{
		--uxSchedulerSuspended;
   42400:	d0a6df17 	ldw	r2,-25732(gp)
   42404:	10bfffc4 	addi	r2,r2,-1
   42408:	d0a6df15 	stw	r2,-25732(gp)

		if( uxSchedulerSuspended == ( unsigned portBASE_TYPE ) pdFALSE )
   4240c:	d0a6df17 	ldw	r2,-25732(gp)
   42410:	10003b1e 	bne	r2,zero,42500 <xTaskResumeAll+0x11c>
		{
			if( uxCurrentNumberOfTasks > ( unsigned portBASE_TYPE ) 0 )
   42414:	d0a6da17 	ldw	r2,-25752(gp)
   42418:	10003926 	beq	r2,zero,42500 <xTaskResumeAll+0x11c>
			{
				portBASE_TYPE xYieldRequired = pdFALSE;
   4241c:	e03ffe15 	stw	zero,-8(fp)

				/* Move any readied tasks from the pending list into the
				appropriate ready list. */
				while( listLIST_IS_EMPTY( ( xList * ) &xPendingReadyList ) == pdFALSE )
   42420:	00001e06 	br	4249c <xTaskResumeAll+0xb8>
				{
					pxTCB = ( tskTCB * ) listGET_OWNER_OF_HEAD_ENTRY(  ( ( xList * ) &xPendingReadyList ) );
   42424:	008001b4 	movhi	r2,6
   42428:	10bebc04 	addi	r2,r2,-1296
   4242c:	10800317 	ldw	r2,12(r2)
   42430:	14000317 	ldw	r16,12(r2)
					vListRemove( &( pxTCB->xEventListItem ) );
   42434:	80800604 	addi	r2,r16,24
   42438:	1009883a 	mov	r4,r2
   4243c:	00404900 	call	40490 <vListRemove>
					vListRemove( &( pxTCB->xGenericListItem ) );
   42440:	80800104 	addi	r2,r16,4
   42444:	1009883a 	mov	r4,r2
   42448:	00404900 	call	40490 <vListRemove>
					prvAddTaskToReadyQueue( pxTCB );
   4244c:	80800b17 	ldw	r2,44(r16)
   42450:	d0e6dd17 	ldw	r3,-25740(gp)
   42454:	1880022e 	bgeu	r3,r2,42460 <xTaskResumeAll+0x7c>
   42458:	80800b17 	ldw	r2,44(r16)
   4245c:	d0a6dd15 	stw	r2,-25740(gp)
   42460:	80800b17 	ldw	r2,44(r16)
   42464:	10c00524 	muli	r3,r2,20
   42468:	008001b4 	movhi	r2,6
   4246c:	10be9904 	addi	r2,r2,-1436
   42470:	1887883a 	add	r3,r3,r2
   42474:	80800104 	addi	r2,r16,4
   42478:	1809883a 	mov	r4,r3
   4247c:	100b883a 	mov	r5,r2
   42480:	00403240 	call	40324 <vListInsertEnd>

					/* If we have moved a task that has a priority higher than
					the current task then we should yield. */
					if( pxTCB->uxPriority >= pxCurrentTCB->uxPriority )
   42484:	80c00b17 	ldw	r3,44(r16)
   42488:	d0a6d617 	ldw	r2,-25768(gp)
   4248c:	10800b17 	ldw	r2,44(r2)
   42490:	18800236 	bltu	r3,r2,4249c <xTaskResumeAll+0xb8>
					{
						xYieldRequired = pdTRUE;
   42494:	00800044 	movi	r2,1
   42498:	e0bffe15 	stw	r2,-8(fp)
			{
				portBASE_TYPE xYieldRequired = pdFALSE;

				/* Move any readied tasks from the pending list into the
				appropriate ready list. */
				while( listLIST_IS_EMPTY( ( xList * ) &xPendingReadyList ) == pdFALSE )
   4249c:	008001b4 	movhi	r2,6
   424a0:	10bebc04 	addi	r2,r2,-1296
   424a4:	10800017 	ldw	r2,0(r2)
   424a8:	103fde1e 	bne	r2,zero,42424 <__alt_data_end+0xfffc7aa4>
				}

				/* If any ticks occurred while the scheduler was suspended then
				they should be processed now.  This ensures the tick count does not
				slip, and that any delayed tasks are resumed at the correct time. */
				if( uxMissedTicks > ( unsigned portBASE_TYPE ) 0 )
   424ac:	d0a6e017 	ldw	r2,-25728(gp)
   424b0:	10000926 	beq	r2,zero,424d8 <xTaskResumeAll+0xf4>
				{
					while( uxMissedTicks > ( unsigned portBASE_TYPE ) 0 )
   424b4:	00000406 	br	424c8 <xTaskResumeAll+0xe4>
					{
						vTaskIncrementTick();
   424b8:	00425a40 	call	425a4 <vTaskIncrementTick>
						--uxMissedTicks;
   424bc:	d0a6e017 	ldw	r2,-25728(gp)
   424c0:	10bfffc4 	addi	r2,r2,-1
   424c4:	d0a6e015 	stw	r2,-25728(gp)
				/* If any ticks occurred while the scheduler was suspended then
				they should be processed now.  This ensures the tick count does not
				slip, and that any delayed tasks are resumed at the correct time. */
				if( uxMissedTicks > ( unsigned portBASE_TYPE ) 0 )
				{
					while( uxMissedTicks > ( unsigned portBASE_TYPE ) 0 )
   424c8:	d0a6e017 	ldw	r2,-25728(gp)
   424cc:	103ffa1e 	bne	r2,zero,424b8 <__alt_data_end+0xfffc7b38>
					/* As we have processed some ticks it is appropriate to yield
					to ensure the highest priority task that is ready to run is
					the task actually running. */
					#if configUSE_PREEMPTION == 1
					{
						xYieldRequired = pdTRUE;
   424d0:	00800044 	movi	r2,1
   424d4:	e0bffe15 	stw	r2,-8(fp)
					}
					#endif
				}

				if( ( xYieldRequired == pdTRUE ) || ( xMissedYield == pdTRUE ) )
   424d8:	e0bffe17 	ldw	r2,-8(fp)
   424dc:	10800060 	cmpeqi	r2,r2,1
   424e0:	1000031e 	bne	r2,zero,424f0 <xTaskResumeAll+0x10c>
   424e4:	d0a6e117 	ldw	r2,-25724(gp)
   424e8:	10800058 	cmpnei	r2,r2,1
   424ec:	1000041e 	bne	r2,zero,42500 <xTaskResumeAll+0x11c>
				{
					xAlreadyYielded = pdTRUE;
   424f0:	00800044 	movi	r2,1
   424f4:	e0bffd15 	stw	r2,-12(fp)
					xMissedYield = pdFALSE;
   424f8:	d026e115 	stw	zero,-25724(gp)
					portYIELD_WITHIN_API();
   424fc:	003b683a 	trap	0
				}
			}
		}
	}
	taskEXIT_CRITICAL();
   42500:	00431c40 	call	431c4 <vTaskExitCritical>

	return xAlreadyYielded;
   42504:	e0bffd17 	ldw	r2,-12(fp)
}
   42508:	e6ffff04 	addi	sp,fp,-4
   4250c:	dfc00217 	ldw	ra,8(sp)
   42510:	df000117 	ldw	fp,4(sp)
   42514:	dc000017 	ldw	r16,0(sp)
   42518:	dec00304 	addi	sp,sp,12
   4251c:	f800283a 	ret

00042520 <xTaskGetTickCount>:
 *----------------------------------------------------------*/



portTickType xTaskGetTickCount( void )
{
   42520:	defffd04 	addi	sp,sp,-12
   42524:	dfc00215 	stw	ra,8(sp)
   42528:	df000115 	stw	fp,4(sp)
   4252c:	df000104 	addi	fp,sp,4
portTickType xTicks;

	/* Critical section required if running on a 16 bit processor. */
	taskENTER_CRITICAL();
   42530:	00431780 	call	43178 <vTaskEnterCritical>
	{
		xTicks = xTickCount;
   42534:	d0a6db17 	ldw	r2,-25748(gp)
   42538:	e0bfff15 	stw	r2,-4(fp)
	}
	taskEXIT_CRITICAL();
   4253c:	00431c40 	call	431c4 <vTaskExitCritical>

	return xTicks;
   42540:	e0bfff17 	ldw	r2,-4(fp)
}
   42544:	e037883a 	mov	sp,fp
   42548:	dfc00117 	ldw	ra,4(sp)
   4254c:	df000017 	ldw	fp,0(sp)
   42550:	dec00204 	addi	sp,sp,8
   42554:	f800283a 	ret

00042558 <xTaskGetTickCountFromISR>:
/*-----------------------------------------------------------*/

portTickType xTaskGetTickCountFromISR( void )
{
   42558:	defffd04 	addi	sp,sp,-12
   4255c:	df000215 	stw	fp,8(sp)
   42560:	df000204 	addi	fp,sp,8
portTickType xReturn;
unsigned portBASE_TYPE uxSavedInterruptStatus;

	uxSavedInterruptStatus = portSET_INTERRUPT_MASK_FROM_ISR();
   42564:	e03ffe15 	stw	zero,-8(fp)
	xReturn = xTickCount;
   42568:	d0a6db17 	ldw	r2,-25748(gp)
   4256c:	e0bfff15 	stw	r2,-4(fp)
	portCLEAR_INTERRUPT_MASK_FROM_ISR( uxSavedInterruptStatus );

	return xReturn;
   42570:	e0bfff17 	ldw	r2,-4(fp)
}
   42574:	e037883a 	mov	sp,fp
   42578:	df000017 	ldw	fp,0(sp)
   4257c:	dec00104 	addi	sp,sp,4
   42580:	f800283a 	ret

00042584 <uxTaskGetNumberOfTasks>:
/*-----------------------------------------------------------*/

unsigned portBASE_TYPE uxTaskGetNumberOfTasks( void )
{
   42584:	deffff04 	addi	sp,sp,-4
   42588:	df000015 	stw	fp,0(sp)
   4258c:	d839883a 	mov	fp,sp
	/* A critical section is not required because the variables are of type
	portBASE_TYPE. */
	return uxCurrentNumberOfTasks;
   42590:	d0a6da17 	ldw	r2,-25752(gp)
}
   42594:	e037883a 	mov	sp,fp
   42598:	df000017 	ldw	fp,0(sp)
   4259c:	dec00104 	addi	sp,sp,4
   425a0:	f800283a 	ret

000425a4 <vTaskIncrementTick>:
 * documented in task.h
 *----------------------------------------------------------*/


void vTaskIncrementTick( void )
{
   425a4:	defffb04 	addi	sp,sp,-20
   425a8:	dfc00415 	stw	ra,16(sp)
   425ac:	df000315 	stw	fp,12(sp)
   425b0:	df000304 	addi	fp,sp,12
tskTCB * pxTCB;

	/* Called by the portable layer each time a tick interrupt occurs.
	Increments the tick then checks to see if the new tick value will cause any
	tasks to be unblocked. */
	if( uxSchedulerSuspended == ( unsigned portBASE_TYPE ) pdFALSE )
   425b4:	d0a6df17 	ldw	r2,-25732(gp)
   425b8:	1000501e 	bne	r2,zero,426fc <vTaskIncrementTick+0x158>
	{
		++xTickCount;
   425bc:	d0a6db17 	ldw	r2,-25748(gp)
   425c0:	10800044 	addi	r2,r2,1
   425c4:	d0a6db15 	stw	r2,-25748(gp)
		if( xTickCount == ( portTickType ) 0 )
   425c8:	d0a6db17 	ldw	r2,-25748(gp)
   425cc:	1000161e 	bne	r2,zero,42628 <vTaskIncrementTick+0x84>
			/* Tick count has overflowed so we need to swap the delay lists.
			If there are any items in pxDelayedTaskList here then there is
			an error! */
			configASSERT( ( listLIST_IS_EMPTY( pxDelayedTaskList ) ) );
			
			pxTemp = pxDelayedTaskList;
   425d0:	d0a6d717 	ldw	r2,-25764(gp)
   425d4:	e0bffd15 	stw	r2,-12(fp)
			pxDelayedTaskList = pxOverflowDelayedTaskList;
   425d8:	d0a6d817 	ldw	r2,-25760(gp)
   425dc:	d0a6d715 	stw	r2,-25764(gp)
			pxOverflowDelayedTaskList = pxTemp;
   425e0:	e0bffd17 	ldw	r2,-12(fp)
   425e4:	d0a6d815 	stw	r2,-25760(gp)
			xNumOfOverflows++;
   425e8:	d0a6e217 	ldw	r2,-25720(gp)
   425ec:	10800044 	addi	r2,r2,1
   425f0:	d0a6e215 	stw	r2,-25720(gp)
	
			if( listLIST_IS_EMPTY( pxDelayedTaskList ) != pdFALSE )
   425f4:	d0a6d717 	ldw	r2,-25764(gp)
   425f8:	10800017 	ldw	r2,0(r2)
   425fc:	1000031e 	bne	r2,zero,4260c <vTaskIncrementTick+0x68>
				/* The new current delayed list is empty.  Set 
				xNextTaskUnblockTime to the maximum possible value so it is 
				extremely unlikely that the	
				if( xTickCount >= xNextTaskUnblockTime ) test will pass until 
				there is an item in the delayed list. */
				xNextTaskUnblockTime = portMAX_DELAY;
   42600:	00bfffc4 	movi	r2,-1
   42604:	d0a00215 	stw	r2,-32760(gp)
   42608:	00000706 	br	42628 <vTaskIncrementTick+0x84>
			{
				/* The new current delayed list is not empty, get the value of 
				the item at the head of the delayed list.  This is the time at 
				which the task at the head of the delayed list should be removed 
				from the Blocked state. */
				pxTCB = ( tskTCB * ) listGET_OWNER_OF_HEAD_ENTRY( pxDelayedTaskList );
   4260c:	d0a6d717 	ldw	r2,-25764(gp)
   42610:	10800317 	ldw	r2,12(r2)
   42614:	10800317 	ldw	r2,12(r2)
   42618:	e0bffe15 	stw	r2,-8(fp)
				xNextTaskUnblockTime = listGET_LIST_ITEM_VALUE( &( pxTCB->xGenericListItem ) );
   4261c:	e0bffe17 	ldw	r2,-8(fp)
   42620:	10800117 	ldw	r2,4(r2)
   42624:	d0a00215 	stw	r2,-32760(gp)
			}
		}

		/* See if this tick has made a timeout expire. */
		prvCheckDelayedTasks();
   42628:	d0e6db17 	ldw	r3,-25748(gp)
   4262c:	d0a00217 	ldw	r2,-32760(gp)
   42630:	18803136 	bltu	r3,r2,426f8 <vTaskIncrementTick+0x154>
   42634:	d0a6d717 	ldw	r2,-25764(gp)
   42638:	10800017 	ldw	r2,0(r2)
   4263c:	1000031e 	bne	r2,zero,4264c <vTaskIncrementTick+0xa8>
   42640:	00bfffc4 	movi	r2,-1
   42644:	d0a00215 	stw	r2,-32760(gp)
   42648:	00002b06 	br	426f8 <vTaskIncrementTick+0x154>
   4264c:	d0a6d717 	ldw	r2,-25764(gp)
   42650:	10800317 	ldw	r2,12(r2)
   42654:	10800317 	ldw	r2,12(r2)
   42658:	e0bffe15 	stw	r2,-8(fp)
   4265c:	e0bffe17 	ldw	r2,-8(fp)
   42660:	10800117 	ldw	r2,4(r2)
   42664:	e0bfff15 	stw	r2,-4(fp)
   42668:	d0e6db17 	ldw	r3,-25748(gp)
   4266c:	e0bfff17 	ldw	r2,-4(fp)
   42670:	1880032e 	bgeu	r3,r2,42680 <vTaskIncrementTick+0xdc>
   42674:	e0bfff17 	ldw	r2,-4(fp)
   42678:	d0a00215 	stw	r2,-32760(gp)
   4267c:	00001e06 	br	426f8 <vTaskIncrementTick+0x154>
   42680:	e0bffe17 	ldw	r2,-8(fp)
   42684:	10800104 	addi	r2,r2,4
   42688:	1009883a 	mov	r4,r2
   4268c:	00404900 	call	40490 <vListRemove>
   42690:	e0bffe17 	ldw	r2,-8(fp)
   42694:	10800a17 	ldw	r2,40(r2)
   42698:	10000426 	beq	r2,zero,426ac <vTaskIncrementTick+0x108>
   4269c:	e0bffe17 	ldw	r2,-8(fp)
   426a0:	10800604 	addi	r2,r2,24
   426a4:	1009883a 	mov	r4,r2
   426a8:	00404900 	call	40490 <vListRemove>
   426ac:	e0bffe17 	ldw	r2,-8(fp)
   426b0:	10800b17 	ldw	r2,44(r2)
   426b4:	d0e6dd17 	ldw	r3,-25740(gp)
   426b8:	1880032e 	bgeu	r3,r2,426c8 <vTaskIncrementTick+0x124>
   426bc:	e0bffe17 	ldw	r2,-8(fp)
   426c0:	10800b17 	ldw	r2,44(r2)
   426c4:	d0a6dd15 	stw	r2,-25740(gp)
   426c8:	e0bffe17 	ldw	r2,-8(fp)
   426cc:	10800b17 	ldw	r2,44(r2)
   426d0:	10c00524 	muli	r3,r2,20
   426d4:	008001b4 	movhi	r2,6
   426d8:	10be9904 	addi	r2,r2,-1436
   426dc:	1887883a 	add	r3,r3,r2
   426e0:	e0bffe17 	ldw	r2,-8(fp)
   426e4:	10800104 	addi	r2,r2,4
   426e8:	1809883a 	mov	r4,r3
   426ec:	100b883a 	mov	r5,r2
   426f0:	00403240 	call	40324 <vListInsertEnd>
   426f4:	003fcf06 	br	42634 <__alt_data_end+0xfffc7cb4>
   426f8:	00000306 	br	42708 <vTaskIncrementTick+0x164>
	}
	else
	{
		++uxMissedTicks;
   426fc:	d0a6e017 	ldw	r2,-25728(gp)
   42700:	10800044 	addi	r2,r2,1
   42704:	d0a6e015 	stw	r2,-25728(gp)
		}
	}
	#endif

	traceTASK_INCREMENT_TICK( xTickCount );
}
   42708:	e037883a 	mov	sp,fp
   4270c:	dfc00117 	ldw	ra,4(sp)
   42710:	df000017 	ldw	fp,0(sp)
   42714:	dec00204 	addi	sp,sp,8
   42718:	f800283a 	ret

0004271c <vTaskSwitchContext>:

#endif
/*-----------------------------------------------------------*/

void vTaskSwitchContext( void )
{
   4271c:	defffd04 	addi	sp,sp,-12
   42720:	dfc00215 	stw	ra,8(sp)
   42724:	df000115 	stw	fp,4(sp)
   42728:	df000104 	addi	fp,sp,4
	if( uxSchedulerSuspended != ( unsigned portBASE_TYPE ) pdFALSE )
   4272c:	d0a6df17 	ldw	r2,-25732(gp)
   42730:	10000326 	beq	r2,zero,42740 <vTaskSwitchContext+0x24>
	{
		/* The scheduler is currently suspended - do not allow a context
		switch. */
		xMissedYield = pdTRUE;
   42734:	00800044 	movi	r2,1
   42738:	d0a6e115 	stw	r2,-25724(gp)
   4273c:	00003d06 	br	42834 <vTaskSwitchContext+0x118>
				pxCurrentTCB->ulRunTimeCounter += ( ulTempCounter - ulTaskSwitchedInTime );
				ulTaskSwitchedInTime = ulTempCounter;
		}
		#endif
	
		taskFIRST_CHECK_FOR_STACK_OVERFLOW();
   42740:	d0a6d617 	ldw	r2,-25768(gp)
   42744:	10800017 	ldw	r2,0(r2)
   42748:	d0e6d617 	ldw	r3,-25768(gp)
   4274c:	18c00c17 	ldw	r3,48(r3)
   42750:	18800636 	bltu	r3,r2,4276c <vTaskSwitchContext+0x50>
   42754:	d0e6d617 	ldw	r3,-25768(gp)
   42758:	d0a6d617 	ldw	r2,-25768(gp)
   4275c:	10800d04 	addi	r2,r2,52
   42760:	1809883a 	mov	r4,r3
   42764:	100b883a 	mov	r5,r2
   42768:	00432200 	call	43220 <vApplicationStackOverflowHook>
		taskSECOND_CHECK_FOR_STACK_OVERFLOW();
   4276c:	d0a6d617 	ldw	r2,-25768(gp)
   42770:	10800c17 	ldw	r2,48(r2)
   42774:	1009883a 	mov	r4,r2
   42778:	01400174 	movhi	r5,5
   4277c:	29491844 	addi	r5,r5,9313
   42780:	01800504 	movi	r6,20
   42784:	004386c0 	call	4386c <memcmp>
   42788:	10000626 	beq	r2,zero,427a4 <vTaskSwitchContext+0x88>
   4278c:	d0e6d617 	ldw	r3,-25768(gp)
   42790:	d0a6d617 	ldw	r2,-25768(gp)
   42794:	10800d04 	addi	r2,r2,52
   42798:	1809883a 	mov	r4,r3
   4279c:	100b883a 	mov	r5,r2
   427a0:	00432200 	call	43220 <vApplicationStackOverflowHook>
	
		/* Find the highest priority queue that contains ready tasks. */
		while( listLIST_IS_EMPTY( &( pxReadyTasksLists[ uxTopReadyPriority ] ) ) )
   427a4:	00000306 	br	427b4 <vTaskSwitchContext+0x98>
		{
			configASSERT( uxTopReadyPriority );
			--uxTopReadyPriority;
   427a8:	d0a6dd17 	ldw	r2,-25740(gp)
   427ac:	10bfffc4 	addi	r2,r2,-1
   427b0:	d0a6dd15 	stw	r2,-25740(gp)
	
		taskFIRST_CHECK_FOR_STACK_OVERFLOW();
		taskSECOND_CHECK_FOR_STACK_OVERFLOW();
	
		/* Find the highest priority queue that contains ready tasks. */
		while( listLIST_IS_EMPTY( &( pxReadyTasksLists[ uxTopReadyPriority ] ) ) )
   427b4:	d0e6dd17 	ldw	r3,-25740(gp)
   427b8:	008001b4 	movhi	r2,6
   427bc:	10be9904 	addi	r2,r2,-1436
   427c0:	18c00524 	muli	r3,r3,20
   427c4:	10c5883a 	add	r2,r2,r3
   427c8:	10800017 	ldw	r2,0(r2)
   427cc:	103ff626 	beq	r2,zero,427a8 <__alt_data_end+0xfffc7e28>
			--uxTopReadyPriority;
		}
	
		/* listGET_OWNER_OF_NEXT_ENTRY walks through the list, so the tasks of the
		same priority get an equal share of the processor time. */
		listGET_OWNER_OF_NEXT_ENTRY( pxCurrentTCB, &( pxReadyTasksLists[ uxTopReadyPriority ] ) );
   427d0:	d0a6dd17 	ldw	r2,-25740(gp)
   427d4:	10c00524 	muli	r3,r2,20
   427d8:	008001b4 	movhi	r2,6
   427dc:	10be9904 	addi	r2,r2,-1436
   427e0:	1885883a 	add	r2,r3,r2
   427e4:	e0bfff15 	stw	r2,-4(fp)
   427e8:	e0bfff17 	ldw	r2,-4(fp)
   427ec:	10800117 	ldw	r2,4(r2)
   427f0:	10c00117 	ldw	r3,4(r2)
   427f4:	e0bfff17 	ldw	r2,-4(fp)
   427f8:	10c00115 	stw	r3,4(r2)
   427fc:	e0bfff17 	ldw	r2,-4(fp)
   42800:	10c00117 	ldw	r3,4(r2)
   42804:	e0bfff17 	ldw	r2,-4(fp)
   42808:	10800204 	addi	r2,r2,8
   4280c:	1880051e 	bne	r3,r2,42824 <vTaskSwitchContext+0x108>
   42810:	e0bfff17 	ldw	r2,-4(fp)
   42814:	10800117 	ldw	r2,4(r2)
   42818:	10c00117 	ldw	r3,4(r2)
   4281c:	e0bfff17 	ldw	r2,-4(fp)
   42820:	10c00115 	stw	r3,4(r2)
   42824:	e0bfff17 	ldw	r2,-4(fp)
   42828:	10800117 	ldw	r2,4(r2)
   4282c:	10800317 	ldw	r2,12(r2)
   42830:	d0a6d615 	stw	r2,-25768(gp)
	
		traceTASK_SWITCHED_IN();
		vWriteTraceToBuffer();
	}
}
   42834:	e037883a 	mov	sp,fp
   42838:	dfc00117 	ldw	ra,4(sp)
   4283c:	df000017 	ldw	fp,0(sp)
   42840:	dec00204 	addi	sp,sp,8
   42844:	f800283a 	ret

00042848 <vTaskPlaceOnEventList>:
/*-----------------------------------------------------------*/

void vTaskPlaceOnEventList( const xList * const pxEventList, portTickType xTicksToWait )
{
   42848:	defffb04 	addi	sp,sp,-20
   4284c:	dfc00415 	stw	ra,16(sp)
   42850:	df000315 	stw	fp,12(sp)
   42854:	df000304 	addi	fp,sp,12
   42858:	e13ffe15 	stw	r4,-8(fp)
   4285c:	e17fff15 	stw	r5,-4(fp)
	SCHEDULER SUSPENDED. */

	/* Place the event list item of the TCB in the appropriate event list.
	This is placed in the list in priority order so the highest priority task
	is the first to be woken by the event. */
	vListInsert( ( xList * ) pxEventList, ( xListItem * ) &( pxCurrentTCB->xEventListItem ) );
   42860:	d0a6d617 	ldw	r2,-25768(gp)
   42864:	10800604 	addi	r2,r2,24
   42868:	e13ffe17 	ldw	r4,-8(fp)
   4286c:	100b883a 	mov	r5,r2
   42870:	00403bc0 	call	403bc <vListInsert>

	/* We must remove ourselves from the ready list before adding ourselves
	to the blocked list as the same list item is used for both lists.  We have
	exclusive access to the ready lists as the scheduler is locked. */
	vListRemove( ( xListItem * ) &( pxCurrentTCB->xGenericListItem ) );
   42874:	d0a6d617 	ldw	r2,-25768(gp)
   42878:	10800104 	addi	r2,r2,4
   4287c:	1009883a 	mov	r4,r2
   42880:	00404900 	call	40490 <vListRemove>


	#if ( INCLUDE_vTaskSuspend == 1 )
	{
		if( xTicksToWait == portMAX_DELAY )
   42884:	e0bfff17 	ldw	r2,-4(fp)
   42888:	10bfffd8 	cmpnei	r2,r2,-1
   4288c:	1000071e 	bne	r2,zero,428ac <vTaskPlaceOnEventList+0x64>
		{
			/* Add ourselves to the suspended task list instead of a delayed task
			list to ensure we are not woken by a timing event.  We will block
			indefinitely. */
			vListInsertEnd( ( xList * ) &xSuspendedTaskList, ( xListItem * ) &( pxCurrentTCB->xGenericListItem ) );
   42890:	d0a6d617 	ldw	r2,-25768(gp)
   42894:	10800104 	addi	r2,r2,4
   42898:	010001b4 	movhi	r4,6
   4289c:	213ec604 	addi	r4,r4,-1256
   428a0:	100b883a 	mov	r5,r2
   428a4:	00403240 	call	40324 <vListInsertEnd>
   428a8:	00000606 	br	428c4 <vTaskPlaceOnEventList+0x7c>
		}
		else
		{
			/* Calculate the time at which the task should be woken if the event does
			not occur.  This may overflow but this doesn't matter. */
			xTimeToWake = xTickCount + xTicksToWait;
   428ac:	d0e6db17 	ldw	r3,-25748(gp)
   428b0:	e0bfff17 	ldw	r2,-4(fp)
   428b4:	1885883a 	add	r2,r3,r2
   428b8:	e0bffd15 	stw	r2,-12(fp)
			prvAddCurrentTaskToDelayedList( xTimeToWake );
   428bc:	e13ffd17 	ldw	r4,-12(fp)
   428c0:	0042d400 	call	42d40 <prvAddCurrentTaskToDelayedList>
			not occur.  This may overflow but this doesn't matter. */
			xTimeToWake = xTickCount + xTicksToWait;
			prvAddCurrentTaskToDelayedList( xTimeToWake );
	}
	#endif
}
   428c4:	e037883a 	mov	sp,fp
   428c8:	dfc00117 	ldw	ra,4(sp)
   428cc:	df000017 	ldw	fp,0(sp)
   428d0:	dec00204 	addi	sp,sp,8
   428d4:	f800283a 	ret

000428d8 <xTaskRemoveFromEventList>:
	
#endif /* configUSE_TIMERS */
/*-----------------------------------------------------------*/

signed portBASE_TYPE xTaskRemoveFromEventList( const xList * const pxEventList )
{
   428d8:	defffb04 	addi	sp,sp,-20
   428dc:	dfc00415 	stw	ra,16(sp)
   428e0:	df000315 	stw	fp,12(sp)
   428e4:	df000304 	addi	fp,sp,12
   428e8:	e13fff15 	stw	r4,-4(fp)
	get called - the lock count on the queue will get modified instead.  This
	means we can always expect exclusive access to the event list here.
	
	This function assumes that a check has already been made to ensure that
	pxEventList is not empty. */
	pxUnblockedTCB = ( tskTCB * ) listGET_OWNER_OF_HEAD_ENTRY( pxEventList );
   428ec:	e0bfff17 	ldw	r2,-4(fp)
   428f0:	10800317 	ldw	r2,12(r2)
   428f4:	10800317 	ldw	r2,12(r2)
   428f8:	e0bffe15 	stw	r2,-8(fp)
	configASSERT( pxUnblockedTCB );
	vListRemove( &( pxUnblockedTCB->xEventListItem ) );
   428fc:	e0bffe17 	ldw	r2,-8(fp)
   42900:	10800604 	addi	r2,r2,24
   42904:	1009883a 	mov	r4,r2
   42908:	00404900 	call	40490 <vListRemove>

	if( uxSchedulerSuspended == ( unsigned portBASE_TYPE ) pdFALSE )
   4290c:	d0a6df17 	ldw	r2,-25732(gp)
   42910:	1000171e 	bne	r2,zero,42970 <xTaskRemoveFromEventList+0x98>
	{
		vListRemove( &( pxUnblockedTCB->xGenericListItem ) );
   42914:	e0bffe17 	ldw	r2,-8(fp)
   42918:	10800104 	addi	r2,r2,4
   4291c:	1009883a 	mov	r4,r2
   42920:	00404900 	call	40490 <vListRemove>
		prvAddTaskToReadyQueue( pxUnblockedTCB );
   42924:	e0bffe17 	ldw	r2,-8(fp)
   42928:	10800b17 	ldw	r2,44(r2)
   4292c:	d0e6dd17 	ldw	r3,-25740(gp)
   42930:	1880032e 	bgeu	r3,r2,42940 <xTaskRemoveFromEventList+0x68>
   42934:	e0bffe17 	ldw	r2,-8(fp)
   42938:	10800b17 	ldw	r2,44(r2)
   4293c:	d0a6dd15 	stw	r2,-25740(gp)
   42940:	e0bffe17 	ldw	r2,-8(fp)
   42944:	10800b17 	ldw	r2,44(r2)
   42948:	10c00524 	muli	r3,r2,20
   4294c:	008001b4 	movhi	r2,6
   42950:	10be9904 	addi	r2,r2,-1436
   42954:	1887883a 	add	r3,r3,r2
   42958:	e0bffe17 	ldw	r2,-8(fp)
   4295c:	10800104 	addi	r2,r2,4
   42960:	1809883a 	mov	r4,r3
   42964:	100b883a 	mov	r5,r2
   42968:	00403240 	call	40324 <vListInsertEnd>
   4296c:	00000606 	br	42988 <xTaskRemoveFromEventList+0xb0>
	}
	else
	{
		/* We cannot access the delayed or ready lists, so will hold this
		task pending until the scheduler is resumed. */
		vListInsertEnd( ( xList * ) &( xPendingReadyList ), &( pxUnblockedTCB->xEventListItem ) );
   42970:	e0bffe17 	ldw	r2,-8(fp)
   42974:	10800604 	addi	r2,r2,24
   42978:	010001b4 	movhi	r4,6
   4297c:	213ebc04 	addi	r4,r4,-1296
   42980:	100b883a 	mov	r5,r2
   42984:	00403240 	call	40324 <vListInsertEnd>
	}

	if( pxUnblockedTCB->uxPriority >= pxCurrentTCB->uxPriority )
   42988:	e0bffe17 	ldw	r2,-8(fp)
   4298c:	10c00b17 	ldw	r3,44(r2)
   42990:	d0a6d617 	ldw	r2,-25768(gp)
   42994:	10800b17 	ldw	r2,44(r2)
   42998:	18800336 	bltu	r3,r2,429a8 <xTaskRemoveFromEventList+0xd0>
	{
		/* Return true if the task removed from the event list has
		a higher priority than the calling task.  This allows
		the calling task to know if it should force a context
		switch now. */
		xReturn = pdTRUE;
   4299c:	00800044 	movi	r2,1
   429a0:	e0bffd15 	stw	r2,-12(fp)
   429a4:	00000106 	br	429ac <xTaskRemoveFromEventList+0xd4>
	}
	else
	{
		xReturn = pdFALSE;
   429a8:	e03ffd15 	stw	zero,-12(fp)
	}

	return xReturn;
   429ac:	e0bffd17 	ldw	r2,-12(fp)
}
   429b0:	e037883a 	mov	sp,fp
   429b4:	dfc00117 	ldw	ra,4(sp)
   429b8:	df000017 	ldw	fp,0(sp)
   429bc:	dec00204 	addi	sp,sp,8
   429c0:	f800283a 	ret

000429c4 <vTaskSetTimeOutState>:
/*-----------------------------------------------------------*/

void vTaskSetTimeOutState( xTimeOutType * const pxTimeOut )
{
   429c4:	defffe04 	addi	sp,sp,-8
   429c8:	df000115 	stw	fp,4(sp)
   429cc:	df000104 	addi	fp,sp,4
   429d0:	e13fff15 	stw	r4,-4(fp)
	configASSERT( pxTimeOut );
	pxTimeOut->xOverflowCount = xNumOfOverflows;
   429d4:	d0e6e217 	ldw	r3,-25720(gp)
   429d8:	e0bfff17 	ldw	r2,-4(fp)
   429dc:	10c00015 	stw	r3,0(r2)
	pxTimeOut->xTimeOnEntering = xTickCount;
   429e0:	d0e6db17 	ldw	r3,-25748(gp)
   429e4:	e0bfff17 	ldw	r2,-4(fp)
   429e8:	10c00115 	stw	r3,4(r2)
}
   429ec:	e037883a 	mov	sp,fp
   429f0:	df000017 	ldw	fp,0(sp)
   429f4:	dec00104 	addi	sp,sp,4
   429f8:	f800283a 	ret

000429fc <xTaskCheckForTimeOut>:
/*-----------------------------------------------------------*/

portBASE_TYPE xTaskCheckForTimeOut( xTimeOutType * const pxTimeOut, portTickType * const pxTicksToWait )
{
   429fc:	defffb04 	addi	sp,sp,-20
   42a00:	dfc00415 	stw	ra,16(sp)
   42a04:	df000315 	stw	fp,12(sp)
   42a08:	df000304 	addi	fp,sp,12
   42a0c:	e13ffe15 	stw	r4,-8(fp)
   42a10:	e17fff15 	stw	r5,-4(fp)
portBASE_TYPE xReturn;

	configASSERT( pxTimeOut );
	configASSERT( pxTicksToWait );

	taskENTER_CRITICAL();
   42a14:	00431780 	call	43178 <vTaskEnterCritical>
	{
		#if ( INCLUDE_vTaskSuspend == 1 )
			/* If INCLUDE_vTaskSuspend is set to 1 and the block time specified is
			the maximum block time then the task should block indefinitely, and
			therefore never time out. */
			if( *pxTicksToWait == portMAX_DELAY )
   42a18:	e0bfff17 	ldw	r2,-4(fp)
   42a1c:	10800017 	ldw	r2,0(r2)
   42a20:	10bfffd8 	cmpnei	r2,r2,-1
   42a24:	1000021e 	bne	r2,zero,42a30 <xTaskCheckForTimeOut+0x34>
			{
				xReturn = pdFALSE;
   42a28:	e03ffd15 	stw	zero,-12(fp)
   42a2c:	00002106 	br	42ab4 <xTaskCheckForTimeOut+0xb8>
			}
			else /* We are not blocking indefinitely, perform the checks below. */
		#endif

		if( ( xNumOfOverflows != pxTimeOut->xOverflowCount ) && ( ( portTickType ) xTickCount >= ( portTickType ) pxTimeOut->xTimeOnEntering ) )
   42a30:	e0bffe17 	ldw	r2,-8(fp)
   42a34:	10c00017 	ldw	r3,0(r2)
   42a38:	d0a6e217 	ldw	r2,-25720(gp)
   42a3c:	18800726 	beq	r3,r2,42a5c <xTaskCheckForTimeOut+0x60>
   42a40:	e0bffe17 	ldw	r2,-8(fp)
   42a44:	10800117 	ldw	r2,4(r2)
   42a48:	d0e6db17 	ldw	r3,-25748(gp)
   42a4c:	18800336 	bltu	r3,r2,42a5c <xTaskCheckForTimeOut+0x60>
		{
			/* The tick count is greater than the time at which vTaskSetTimeout()
			was called, but has also overflowed since vTaskSetTimeOut() was called.
			It must have wrapped all the way around and gone past us again. This
			passed since vTaskSetTimeout() was called. */
			xReturn = pdTRUE;
   42a50:	00800044 	movi	r2,1
   42a54:	e0bffd15 	stw	r2,-12(fp)
   42a58:	00001606 	br	42ab4 <xTaskCheckForTimeOut+0xb8>
		}
		else if( ( ( portTickType ) ( ( portTickType ) xTickCount - ( portTickType ) pxTimeOut->xTimeOnEntering ) ) < ( portTickType ) *pxTicksToWait )
   42a5c:	d0e6db17 	ldw	r3,-25748(gp)
   42a60:	e0bffe17 	ldw	r2,-8(fp)
   42a64:	10800117 	ldw	r2,4(r2)
   42a68:	1887c83a 	sub	r3,r3,r2
   42a6c:	e0bfff17 	ldw	r2,-4(fp)
   42a70:	10800017 	ldw	r2,0(r2)
   42a74:	18800d2e 	bgeu	r3,r2,42aac <xTaskCheckForTimeOut+0xb0>
		{
			/* Not a genuine timeout. Adjust parameters for time remaining. */
			*pxTicksToWait -= ( ( portTickType ) xTickCount - ( portTickType ) pxTimeOut->xTimeOnEntering );
   42a78:	d0e6db17 	ldw	r3,-25748(gp)
   42a7c:	e0bffe17 	ldw	r2,-8(fp)
   42a80:	10800117 	ldw	r2,4(r2)
   42a84:	1885c83a 	sub	r2,r3,r2
   42a88:	e0ffff17 	ldw	r3,-4(fp)
   42a8c:	18c00017 	ldw	r3,0(r3)
   42a90:	1887c83a 	sub	r3,r3,r2
   42a94:	e0bfff17 	ldw	r2,-4(fp)
   42a98:	10c00015 	stw	r3,0(r2)
			vTaskSetTimeOutState( pxTimeOut );
   42a9c:	e13ffe17 	ldw	r4,-8(fp)
   42aa0:	00429c40 	call	429c4 <vTaskSetTimeOutState>
			xReturn = pdFALSE;
   42aa4:	e03ffd15 	stw	zero,-12(fp)
   42aa8:	00000206 	br	42ab4 <xTaskCheckForTimeOut+0xb8>
		}
		else
		{
			xReturn = pdTRUE;
   42aac:	00800044 	movi	r2,1
   42ab0:	e0bffd15 	stw	r2,-12(fp)
		}
	}
	taskEXIT_CRITICAL();
   42ab4:	00431c40 	call	431c4 <vTaskExitCritical>

	return xReturn;
   42ab8:	e0bffd17 	ldw	r2,-12(fp)
}
   42abc:	e037883a 	mov	sp,fp
   42ac0:	dfc00117 	ldw	ra,4(sp)
   42ac4:	df000017 	ldw	fp,0(sp)
   42ac8:	dec00204 	addi	sp,sp,8
   42acc:	f800283a 	ret

00042ad0 <vTaskMissedYield>:
/*-----------------------------------------------------------*/

void vTaskMissedYield( void )
{
   42ad0:	deffff04 	addi	sp,sp,-4
   42ad4:	df000015 	stw	fp,0(sp)
   42ad8:	d839883a 	mov	fp,sp
	xMissedYield = pdTRUE;
   42adc:	00800044 	movi	r2,1
   42ae0:	d0a6e115 	stw	r2,-25724(gp)
}
   42ae4:	e037883a 	mov	sp,fp
   42ae8:	df000017 	ldw	fp,0(sp)
   42aec:	dec00104 	addi	sp,sp,4
   42af0:	f800283a 	ret

00042af4 <prvIdleTask>:
 *
 * void prvIdleTask( void *pvParameters );
 *
 */
static portTASK_FUNCTION( prvIdleTask, pvParameters )
{
   42af4:	defffd04 	addi	sp,sp,-12
   42af8:	dfc00215 	stw	ra,8(sp)
   42afc:	df000115 	stw	fp,4(sp)
   42b00:	df000104 	addi	fp,sp,4
   42b04:	e13fff15 	stw	r4,-4(fp)
	( void ) pvParameters;

	for( ;; )
	{
		/* See if any tasks have been deleted. */
		prvCheckTasksWaitingTermination();
   42b08:	0042ca00 	call	42ca0 <prvCheckTasksWaitingTermination>
			NOTE: vApplicationIdleHook() MUST NOT, UNDER ANY CIRCUMSTANCES,
			CALL A FUNCTION THAT MIGHT BLOCK. */
			vApplicationIdleHook();
		}
		#endif
	}
   42b0c:	003ffe06 	br	42b08 <__alt_data_end+0xfffc8188>

00042b10 <prvInitialiseTCBVariables>:
 *----------------------------------------------------------*/



static void prvInitialiseTCBVariables( tskTCB *pxTCB, const signed char * const pcName, unsigned portBASE_TYPE uxPriority, const xMemoryRegion * const xRegions, unsigned short usStackDepth )
{
   42b10:	defff904 	addi	sp,sp,-28
   42b14:	dfc00615 	stw	ra,24(sp)
   42b18:	df000515 	stw	fp,20(sp)
   42b1c:	df000504 	addi	fp,sp,20
   42b20:	e13ffb15 	stw	r4,-20(fp)
   42b24:	e17ffc15 	stw	r5,-16(fp)
   42b28:	e1bffd15 	stw	r6,-12(fp)
   42b2c:	e1fffe15 	stw	r7,-8(fp)
   42b30:	e0800217 	ldw	r2,8(fp)
   42b34:	e0bfff0d 	sth	r2,-4(fp)
	/* Store the function name in the TCB. */
	#if configMAX_TASK_NAME_LEN > 1
	{
		/* Don't bring strncpy into the build unnecessarily. */
		strncpy( ( char * ) pxTCB->pcTaskName, ( const char * ) pcName, ( unsigned short ) configMAX_TASK_NAME_LEN );
   42b38:	e0bffb17 	ldw	r2,-20(fp)
   42b3c:	10800d04 	addi	r2,r2,52
   42b40:	1009883a 	mov	r4,r2
   42b44:	e17ffc17 	ldw	r5,-16(fp)
   42b48:	01800204 	movi	r6,8
   42b4c:	0043bcc0 	call	43bcc <strncpy>
	}
	#endif
	pxTCB->pcTaskName[ ( unsigned short ) configMAX_TASK_NAME_LEN - ( unsigned short ) 1 ] = ( signed char ) '\0';
   42b50:	e0bffb17 	ldw	r2,-20(fp)
   42b54:	10000ec5 	stb	zero,59(r2)

	/* This is used as an array index so must ensure it's not too large.  First
	remove the privilege bit if one is present. */
	if( uxPriority >= configMAX_PRIORITIES )
   42b58:	e0bffd17 	ldw	r2,-12(fp)
   42b5c:	10800170 	cmpltui	r2,r2,5
   42b60:	1000021e 	bne	r2,zero,42b6c <prvInitialiseTCBVariables+0x5c>
	{
		uxPriority = configMAX_PRIORITIES - ( unsigned portBASE_TYPE ) 1U;
   42b64:	00800104 	movi	r2,4
   42b68:	e0bffd15 	stw	r2,-12(fp)
	}

	pxTCB->uxPriority = uxPriority;
   42b6c:	e0bffb17 	ldw	r2,-20(fp)
   42b70:	e0fffd17 	ldw	r3,-12(fp)
   42b74:	10c00b15 	stw	r3,44(r2)
	#if ( configUSE_MUTEXES == 1 )
	{
		pxTCB->uxBasePriority = uxPriority;
   42b78:	e0bffb17 	ldw	r2,-20(fp)
   42b7c:	e0fffd17 	ldw	r3,-12(fp)
   42b80:	10c01015 	stw	r3,64(r2)
	}
	#endif

	vListInitialiseItem( &( pxTCB->xGenericListItem ) );
   42b84:	e0bffb17 	ldw	r2,-20(fp)
   42b88:	10800104 	addi	r2,r2,4
   42b8c:	1009883a 	mov	r4,r2
   42b90:	00402fc0 	call	402fc <vListInitialiseItem>
	vListInitialiseItem( &( pxTCB->xEventListItem ) );
   42b94:	e0bffb17 	ldw	r2,-20(fp)
   42b98:	10800604 	addi	r2,r2,24
   42b9c:	1009883a 	mov	r4,r2
   42ba0:	00402fc0 	call	402fc <vListInitialiseItem>

	/* Set the pxTCB as a link back from the xListItem.  This is so we can get
	back to	the containing TCB from a generic item in a list. */
	listSET_LIST_ITEM_OWNER( &( pxTCB->xGenericListItem ), pxTCB );
   42ba4:	e0bffb17 	ldw	r2,-20(fp)
   42ba8:	e0fffb17 	ldw	r3,-20(fp)
   42bac:	10c00415 	stw	r3,16(r2)

	/* Event lists are always in priority order. */
	listSET_LIST_ITEM_VALUE( &( pxTCB->xEventListItem ), configMAX_PRIORITIES - ( portTickType ) uxPriority );
   42bb0:	00c00144 	movi	r3,5
   42bb4:	e0bffd17 	ldw	r2,-12(fp)
   42bb8:	1887c83a 	sub	r3,r3,r2
   42bbc:	e0bffb17 	ldw	r2,-20(fp)
   42bc0:	10c00615 	stw	r3,24(r2)
	listSET_LIST_ITEM_OWNER( &( pxTCB->xEventListItem ), pxTCB );
   42bc4:	e0bffb17 	ldw	r2,-20(fp)
   42bc8:	e0fffb17 	ldw	r3,-20(fp)
   42bcc:	10c00915 	stw	r3,36(r2)

	#if ( portCRITICAL_NESTING_IN_TCB == 1 )
	{
		pxTCB->uxCriticalNesting = ( unsigned portBASE_TYPE ) 0;
   42bd0:	e0bffb17 	ldw	r2,-20(fp)
   42bd4:	10000f15 	stw	zero,60(r2)
	{
		( void ) xRegions;
		( void ) usStackDepth;
	}
	#endif
}
   42bd8:	e037883a 	mov	sp,fp
   42bdc:	dfc00117 	ldw	ra,4(sp)
   42be0:	df000017 	ldw	fp,0(sp)
   42be4:	dec00204 	addi	sp,sp,8
   42be8:	f800283a 	ret

00042bec <prvInitialiseTaskLists>:
	}
	/*-----------------------------------------------------------*/
#endif

static void prvInitialiseTaskLists( void )
{
   42bec:	defffd04 	addi	sp,sp,-12
   42bf0:	dfc00215 	stw	ra,8(sp)
   42bf4:	df000115 	stw	fp,4(sp)
   42bf8:	df000104 	addi	fp,sp,4
unsigned portBASE_TYPE uxPriority;

	for( uxPriority = ( unsigned portBASE_TYPE ) 0U; uxPriority < configMAX_PRIORITIES; uxPriority++ )
   42bfc:	e03fff15 	stw	zero,-4(fp)
   42c00:	00000a06 	br	42c2c <prvInitialiseTaskLists+0x40>
	{
		vListInitialise( ( xList * ) &( pxReadyTasksLists[ uxPriority ] ) );
   42c04:	e0bfff17 	ldw	r2,-4(fp)
   42c08:	10c00524 	muli	r3,r2,20
   42c0c:	008001b4 	movhi	r2,6
   42c10:	10be9904 	addi	r2,r2,-1436
   42c14:	1885883a 	add	r2,r3,r2
   42c18:	1009883a 	mov	r4,r2
   42c1c:	00402980 	call	40298 <vListInitialise>

static void prvInitialiseTaskLists( void )
{
unsigned portBASE_TYPE uxPriority;

	for( uxPriority = ( unsigned portBASE_TYPE ) 0U; uxPriority < configMAX_PRIORITIES; uxPriority++ )
   42c20:	e0bfff17 	ldw	r2,-4(fp)
   42c24:	10800044 	addi	r2,r2,1
   42c28:	e0bfff15 	stw	r2,-4(fp)
   42c2c:	e0bfff17 	ldw	r2,-4(fp)
   42c30:	10800170 	cmpltui	r2,r2,5
   42c34:	103ff31e 	bne	r2,zero,42c04 <__alt_data_end+0xfffc8284>
	{
		vListInitialise( ( xList * ) &( pxReadyTasksLists[ uxPriority ] ) );
	}

	vListInitialise( ( xList * ) &xDelayedTaskList1 );
   42c38:	010001b4 	movhi	r4,6
   42c3c:	213eb204 	addi	r4,r4,-1336
   42c40:	00402980 	call	40298 <vListInitialise>
	vListInitialise( ( xList * ) &xDelayedTaskList2 );
   42c44:	010001b4 	movhi	r4,6
   42c48:	213eb704 	addi	r4,r4,-1316
   42c4c:	00402980 	call	40298 <vListInitialise>
	vListInitialise( ( xList * ) &xPendingReadyList );
   42c50:	010001b4 	movhi	r4,6
   42c54:	213ebc04 	addi	r4,r4,-1296
   42c58:	00402980 	call	40298 <vListInitialise>

	#if ( INCLUDE_vTaskDelete == 1 )
	{
		vListInitialise( ( xList * ) &xTasksWaitingTermination );
   42c5c:	010001b4 	movhi	r4,6
   42c60:	213ec104 	addi	r4,r4,-1276
   42c64:	00402980 	call	40298 <vListInitialise>
	}
	#endif

	#if ( INCLUDE_vTaskSuspend == 1 )
	{
		vListInitialise( ( xList * ) &xSuspendedTaskList );
   42c68:	010001b4 	movhi	r4,6
   42c6c:	213ec604 	addi	r4,r4,-1256
   42c70:	00402980 	call	40298 <vListInitialise>
	}
	#endif

	/* Start with pxDelayedTaskList using list1 and the pxOverflowDelayedTaskList
	using list2. */
	pxDelayedTaskList = &xDelayedTaskList1;
   42c74:	008001b4 	movhi	r2,6
   42c78:	10beb204 	addi	r2,r2,-1336
   42c7c:	d0a6d715 	stw	r2,-25764(gp)
	pxOverflowDelayedTaskList = &xDelayedTaskList2;
   42c80:	008001b4 	movhi	r2,6
   42c84:	10beb704 	addi	r2,r2,-1316
   42c88:	d0a6d815 	stw	r2,-25760(gp)
}
   42c8c:	e037883a 	mov	sp,fp
   42c90:	dfc00117 	ldw	ra,4(sp)
   42c94:	df000017 	ldw	fp,0(sp)
   42c98:	dec00204 	addi	sp,sp,8
   42c9c:	f800283a 	ret

00042ca0 <prvCheckTasksWaitingTermination>:
/*-----------------------------------------------------------*/

static void prvCheckTasksWaitingTermination( void )
{
   42ca0:	defffc04 	addi	sp,sp,-16
   42ca4:	dfc00315 	stw	ra,12(sp)
   42ca8:	df000215 	stw	fp,8(sp)
   42cac:	df000204 	addi	fp,sp,8
	{
		portBASE_TYPE xListIsEmpty;

		/* ucTasksDeleted is used to prevent vTaskSuspendAll() being called
		too often in the idle task. */
		if( uxTasksDeleted > ( unsigned portBASE_TYPE ) 0 )
   42cb0:	d0a6d917 	ldw	r2,-25756(gp)
   42cb4:	10001d26 	beq	r2,zero,42d2c <prvCheckTasksWaitingTermination+0x8c>
		{
			vTaskSuspendAll();
   42cb8:	00423bc0 	call	423bc <vTaskSuspendAll>
				xListIsEmpty = listLIST_IS_EMPTY( &xTasksWaitingTermination );
   42cbc:	008001b4 	movhi	r2,6
   42cc0:	10bec104 	addi	r2,r2,-1276
   42cc4:	10800017 	ldw	r2,0(r2)
   42cc8:	1005003a 	cmpeq	r2,r2,zero
   42ccc:	10803fcc 	andi	r2,r2,255
   42cd0:	e0bffe15 	stw	r2,-8(fp)
			xTaskResumeAll();
   42cd4:	00423e40 	call	423e4 <xTaskResumeAll>

			if( xListIsEmpty == pdFALSE )
   42cd8:	e0bffe17 	ldw	r2,-8(fp)
   42cdc:	1000131e 	bne	r2,zero,42d2c <prvCheckTasksWaitingTermination+0x8c>
			{
				tskTCB *pxTCB;

				taskENTER_CRITICAL();
   42ce0:	00431780 	call	43178 <vTaskEnterCritical>
				{
					pxTCB = ( tskTCB * ) listGET_OWNER_OF_HEAD_ENTRY( ( ( xList * ) &xTasksWaitingTermination ) );
   42ce4:	008001b4 	movhi	r2,6
   42ce8:	10bec304 	addi	r2,r2,-1268
   42cec:	10800117 	ldw	r2,4(r2)
   42cf0:	10800317 	ldw	r2,12(r2)
   42cf4:	e0bfff15 	stw	r2,-4(fp)
					vListRemove( &( pxTCB->xGenericListItem ) );
   42cf8:	e0bfff17 	ldw	r2,-4(fp)
   42cfc:	10800104 	addi	r2,r2,4
   42d00:	1009883a 	mov	r4,r2
   42d04:	00404900 	call	40490 <vListRemove>
					--uxCurrentNumberOfTasks;
   42d08:	d0a6da17 	ldw	r2,-25752(gp)
   42d0c:	10bfffc4 	addi	r2,r2,-1
   42d10:	d0a6da15 	stw	r2,-25752(gp)
					--uxTasksDeleted;
   42d14:	d0a6d917 	ldw	r2,-25756(gp)
   42d18:	10bfffc4 	addi	r2,r2,-1
   42d1c:	d0a6d915 	stw	r2,-25756(gp)
				}
				taskEXIT_CRITICAL();
   42d20:	00431c40 	call	431c4 <vTaskExitCritical>

				prvDeleteTCB( pxTCB );
   42d24:	e13fff17 	ldw	r4,-4(fp)
   42d28:	0042f480 	call	42f48 <prvDeleteTCB>
			}
		}
	}
	#endif
}
   42d2c:	e037883a 	mov	sp,fp
   42d30:	dfc00117 	ldw	ra,4(sp)
   42d34:	df000017 	ldw	fp,0(sp)
   42d38:	dec00204 	addi	sp,sp,8
   42d3c:	f800283a 	ret

00042d40 <prvAddCurrentTaskToDelayedList>:
/*-----------------------------------------------------------*/

static void prvAddCurrentTaskToDelayedList( portTickType xTimeToWake )
{
   42d40:	defffd04 	addi	sp,sp,-12
   42d44:	dfc00215 	stw	ra,8(sp)
   42d48:	df000115 	stw	fp,4(sp)
   42d4c:	df000104 	addi	fp,sp,4
   42d50:	e13fff15 	stw	r4,-4(fp)
	/* The list item will be inserted in wake time order. */
	listSET_LIST_ITEM_VALUE( &( pxCurrentTCB->xGenericListItem ), xTimeToWake );
   42d54:	d0a6d617 	ldw	r2,-25768(gp)
   42d58:	e0ffff17 	ldw	r3,-4(fp)
   42d5c:	10c00115 	stw	r3,4(r2)

	if( xTimeToWake < xTickCount )
   42d60:	d0a6db17 	ldw	r2,-25748(gp)
   42d64:	e0ffff17 	ldw	r3,-4(fp)
   42d68:	1880072e 	bgeu	r3,r2,42d88 <prvAddCurrentTaskToDelayedList+0x48>
	{
		/* Wake time has overflowed.  Place this item in the overflow list. */
		vListInsert( ( xList * ) pxOverflowDelayedTaskList, ( xListItem * ) &( pxCurrentTCB->xGenericListItem ) );
   42d6c:	d0e6d817 	ldw	r3,-25760(gp)
   42d70:	d0a6d617 	ldw	r2,-25768(gp)
   42d74:	10800104 	addi	r2,r2,4
   42d78:	1809883a 	mov	r4,r3
   42d7c:	100b883a 	mov	r5,r2
   42d80:	00403bc0 	call	403bc <vListInsert>
   42d84:	00000b06 	br	42db4 <prvAddCurrentTaskToDelayedList+0x74>
	}
	else
	{
		/* The wake time has not overflowed, so we can use the current block list. */
		vListInsert( ( xList * ) pxDelayedTaskList, ( xListItem * ) &( pxCurrentTCB->xGenericListItem ) );
   42d88:	d0e6d717 	ldw	r3,-25764(gp)
   42d8c:	d0a6d617 	ldw	r2,-25768(gp)
   42d90:	10800104 	addi	r2,r2,4
   42d94:	1809883a 	mov	r4,r3
   42d98:	100b883a 	mov	r5,r2
   42d9c:	00403bc0 	call	403bc <vListInsert>

		/* If the task entering the blocked state was placed at the head of the
		list of blocked tasks then xNextTaskUnblockTime needs to be updated
		too. */
		if( xTimeToWake < xNextTaskUnblockTime )
   42da0:	d0a00217 	ldw	r2,-32760(gp)
   42da4:	e0ffff17 	ldw	r3,-4(fp)
   42da8:	1880022e 	bgeu	r3,r2,42db4 <prvAddCurrentTaskToDelayedList+0x74>
		{
			xNextTaskUnblockTime = xTimeToWake;
   42dac:	e0bfff17 	ldw	r2,-4(fp)
   42db0:	d0a00215 	stw	r2,-32760(gp)
		}
	}
}
   42db4:	e037883a 	mov	sp,fp
   42db8:	dfc00117 	ldw	ra,4(sp)
   42dbc:	df000017 	ldw	fp,0(sp)
   42dc0:	dec00204 	addi	sp,sp,8
   42dc4:	f800283a 	ret

00042dc8 <prvAllocateTCBAndStack>:
/*-----------------------------------------------------------*/

static tskTCB *prvAllocateTCBAndStack( unsigned short usStackDepth, portSTACK_TYPE *puxStackBuffer )
{
   42dc8:	defffb04 	addi	sp,sp,-20
   42dcc:	dfc00415 	stw	ra,16(sp)
   42dd0:	df000315 	stw	fp,12(sp)
   42dd4:	df000304 	addi	fp,sp,12
   42dd8:	2005883a 	mov	r2,r4
   42ddc:	e17fff15 	stw	r5,-4(fp)
   42de0:	e0bffe0d 	sth	r2,-8(fp)
tskTCB *pxNewTCB;

	/* Allocate space for the TCB.  Where the memory comes from depends on
	the implementation of the port malloc function. */
	pxNewTCB = ( tskTCB * ) pvPortMalloc( sizeof( tskTCB ) );
   42de4:	01001104 	movi	r4,68
   42de8:	00409d80 	call	409d8 <pvPortMalloc>
   42dec:	e0bffd15 	stw	r2,-12(fp)

	if( pxNewTCB != NULL )
   42df0:	e0bffd17 	ldw	r2,-12(fp)
   42df4:	10001b26 	beq	r2,zero,42e64 <prvAllocateTCBAndStack+0x9c>
	{
		/* Allocate space for the stack used by the task being created.
		The base of the stack memory stored in the TCB so the task can
		be deleted later if required. */
		pxNewTCB->pxStack = ( portSTACK_TYPE * ) pvPortMallocAligned( ( ( ( size_t )usStackDepth ) * sizeof( portSTACK_TYPE ) ), puxStackBuffer );
   42df8:	e0bfff17 	ldw	r2,-4(fp)
   42dfc:	1000061e 	bne	r2,zero,42e18 <prvAllocateTCBAndStack+0x50>
   42e00:	e0bffe0b 	ldhu	r2,-8(fp)
   42e04:	1085883a 	add	r2,r2,r2
   42e08:	1085883a 	add	r2,r2,r2
   42e0c:	1009883a 	mov	r4,r2
   42e10:	00409d80 	call	409d8 <pvPortMalloc>
   42e14:	00000106 	br	42e1c <prvAllocateTCBAndStack+0x54>
   42e18:	e0bfff17 	ldw	r2,-4(fp)
   42e1c:	e0fffd17 	ldw	r3,-12(fp)
   42e20:	18800c15 	stw	r2,48(r3)

		if( pxNewTCB->pxStack == NULL )
   42e24:	e0bffd17 	ldw	r2,-12(fp)
   42e28:	10800c17 	ldw	r2,48(r2)
   42e2c:	1000041e 	bne	r2,zero,42e40 <prvAllocateTCBAndStack+0x78>
		{
			/* Could not allocate the stack.  Delete the allocated TCB. */
			vPortFree( pxNewTCB );
   42e30:	e13ffd17 	ldw	r4,-12(fp)
   42e34:	0040bec0 	call	40bec <vPortFree>
			pxNewTCB = NULL;
   42e38:	e03ffd15 	stw	zero,-12(fp)
   42e3c:	00000906 	br	42e64 <prvAllocateTCBAndStack+0x9c>
		}
		else
		{
			/* Just to help debugging. */
			memset( pxNewTCB->pxStack, tskSTACK_FILL_BYTE, usStackDepth * sizeof( portSTACK_TYPE ) );
   42e40:	e0bffd17 	ldw	r2,-12(fp)
   42e44:	10c00c17 	ldw	r3,48(r2)
   42e48:	e0bffe0b 	ldhu	r2,-8(fp)
   42e4c:	1085883a 	add	r2,r2,r2
   42e50:	1085883a 	add	r2,r2,r2
   42e54:	1809883a 	mov	r4,r3
   42e58:	01402944 	movi	r5,165
   42e5c:	100d883a 	mov	r6,r2
   42e60:	0043a200 	call	43a20 <memset>
		}
	}

	return pxNewTCB;
   42e64:	e0bffd17 	ldw	r2,-12(fp)
}
   42e68:	e037883a 	mov	sp,fp
   42e6c:	dfc00117 	ldw	ra,4(sp)
   42e70:	df000017 	ldw	fp,0(sp)
   42e74:	dec00204 	addi	sp,sp,8
   42e78:	f800283a 	ret

00042e7c <usTaskCheckFreeStackSpace>:
/*-----------------------------------------------------------*/

#if ( ( configUSE_TRACE_FACILITY == 1 ) || ( INCLUDE_uxTaskGetStackHighWaterMark == 1 ) )

	static unsigned short usTaskCheckFreeStackSpace( const unsigned char * pucStackByte )
	{
   42e7c:	defffd04 	addi	sp,sp,-12
   42e80:	df000215 	stw	fp,8(sp)
   42e84:	dc000115 	stw	r16,4(sp)
   42e88:	df000204 	addi	fp,sp,8
   42e8c:	e13ffe15 	stw	r4,-8(fp)
	register unsigned short usCount = 0;
   42e90:	0021883a 	mov	r16,zero

		while( *pucStackByte == tskSTACK_FILL_BYTE )
   42e94:	00000606 	br	42eb0 <usTaskCheckFreeStackSpace+0x34>
		{
			pucStackByte -= portSTACK_GROWTH;
   42e98:	e0bffe17 	ldw	r2,-8(fp)
   42e9c:	10800044 	addi	r2,r2,1
   42ea0:	e0bffe15 	stw	r2,-8(fp)
			usCount++;
   42ea4:	8005883a 	mov	r2,r16
   42ea8:	10800044 	addi	r2,r2,1
   42eac:	1021883a 	mov	r16,r2

	static unsigned short usTaskCheckFreeStackSpace( const unsigned char * pucStackByte )
	{
	register unsigned short usCount = 0;

		while( *pucStackByte == tskSTACK_FILL_BYTE )
   42eb0:	e0bffe17 	ldw	r2,-8(fp)
   42eb4:	10800003 	ldbu	r2,0(r2)
   42eb8:	10803fcc 	andi	r2,r2,255
   42ebc:	10802960 	cmpeqi	r2,r2,165
   42ec0:	103ff51e 	bne	r2,zero,42e98 <__alt_data_end+0xfffc8518>
		{
			pucStackByte -= portSTACK_GROWTH;
			usCount++;
		}

		usCount /= sizeof( portSTACK_TYPE );
   42ec4:	80bfffcc 	andi	r2,r16,65535
   42ec8:	1004d0ba 	srli	r2,r2,2
   42ecc:	1021883a 	mov	r16,r2

		return usCount;
   42ed0:	8005883a 	mov	r2,r16
	}
   42ed4:	e6ffff04 	addi	sp,fp,-4
   42ed8:	df000117 	ldw	fp,4(sp)
   42edc:	dc000017 	ldw	r16,0(sp)
   42ee0:	dec00204 	addi	sp,sp,8
   42ee4:	f800283a 	ret

00042ee8 <uxTaskGetStackHighWaterMark>:
/*-----------------------------------------------------------*/

#if ( INCLUDE_uxTaskGetStackHighWaterMark == 1 )

	unsigned portBASE_TYPE uxTaskGetStackHighWaterMark( xTaskHandle xTask )
	{
   42ee8:	defffa04 	addi	sp,sp,-24
   42eec:	dfc00515 	stw	ra,20(sp)
   42ef0:	df000415 	stw	fp,16(sp)
   42ef4:	df000404 	addi	fp,sp,16
   42ef8:	e13fff15 	stw	r4,-4(fp)
	tskTCB *pxTCB;
	unsigned char *pcEndOfStack;
	unsigned portBASE_TYPE uxReturn;

		pxTCB = prvGetTCBFromHandle( xTask );
   42efc:	e0bfff17 	ldw	r2,-4(fp)
   42f00:	1000021e 	bne	r2,zero,42f0c <uxTaskGetStackHighWaterMark+0x24>
   42f04:	d0a6d617 	ldw	r2,-25768(gp)
   42f08:	00000106 	br	42f10 <uxTaskGetStackHighWaterMark+0x28>
   42f0c:	e0bfff17 	ldw	r2,-4(fp)
   42f10:	e0bffc15 	stw	r2,-16(fp)

		#if portSTACK_GROWTH < 0
		{
			pcEndOfStack = ( unsigned char * ) pxTCB->pxStack;
   42f14:	e0bffc17 	ldw	r2,-16(fp)
   42f18:	10800c17 	ldw	r2,48(r2)
   42f1c:	e0bffd15 	stw	r2,-12(fp)
		{
			pcEndOfStack = ( unsigned char * ) pxTCB->pxEndOfStack;
		}
		#endif

		uxReturn = ( unsigned portBASE_TYPE ) usTaskCheckFreeStackSpace( pcEndOfStack );
   42f20:	e13ffd17 	ldw	r4,-12(fp)
   42f24:	0042e7c0 	call	42e7c <usTaskCheckFreeStackSpace>
   42f28:	10bfffcc 	andi	r2,r2,65535
   42f2c:	e0bffe15 	stw	r2,-8(fp)

		return uxReturn;
   42f30:	e0bffe17 	ldw	r2,-8(fp)
	}
   42f34:	e037883a 	mov	sp,fp
   42f38:	dfc00117 	ldw	ra,4(sp)
   42f3c:	df000017 	ldw	fp,0(sp)
   42f40:	dec00204 	addi	sp,sp,8
   42f44:	f800283a 	ret

00042f48 <prvDeleteTCB>:
/*-----------------------------------------------------------*/

#if ( ( INCLUDE_vTaskDelete == 1 ) || ( INCLUDE_vTaskCleanUpResources == 1 ) )

	static void prvDeleteTCB( tskTCB *pxTCB )
	{
   42f48:	defffd04 	addi	sp,sp,-12
   42f4c:	dfc00215 	stw	ra,8(sp)
   42f50:	df000115 	stw	fp,4(sp)
   42f54:	df000104 	addi	fp,sp,4
   42f58:	e13fff15 	stw	r4,-4(fp)
		/* Free up the memory allocated by the scheduler for the task.  It is up to
		the task to free any memory allocated at the application level. */
		vPortFreeAligned( pxTCB->pxStack );
   42f5c:	e0bfff17 	ldw	r2,-4(fp)
   42f60:	10800c17 	ldw	r2,48(r2)
   42f64:	1009883a 	mov	r4,r2
   42f68:	0040bec0 	call	40bec <vPortFree>
		vPortFree( pxTCB );
   42f6c:	e13fff17 	ldw	r4,-4(fp)
   42f70:	0040bec0 	call	40bec <vPortFree>
	}
   42f74:	e037883a 	mov	sp,fp
   42f78:	dfc00117 	ldw	ra,4(sp)
   42f7c:	df000017 	ldw	fp,0(sp)
   42f80:	dec00204 	addi	sp,sp,8
   42f84:	f800283a 	ret

00042f88 <xTaskGetCurrentTaskHandle>:
/*-----------------------------------------------------------*/

#if ( ( INCLUDE_xTaskGetCurrentTaskHandle == 1 ) || ( configUSE_MUTEXES == 1 ) )

	xTaskHandle xTaskGetCurrentTaskHandle( void )
	{
   42f88:	defffe04 	addi	sp,sp,-8
   42f8c:	df000115 	stw	fp,4(sp)
   42f90:	df000104 	addi	fp,sp,4
	xTaskHandle xReturn;

		/* A critical section is not required as this is not called from
		an interrupt and the current TCB will always be the same for any
		individual execution thread. */
		xReturn = pxCurrentTCB;
   42f94:	d0a6d617 	ldw	r2,-25768(gp)
   42f98:	e0bfff15 	stw	r2,-4(fp)

		return xReturn;
   42f9c:	e0bfff17 	ldw	r2,-4(fp)
	}
   42fa0:	e037883a 	mov	sp,fp
   42fa4:	df000017 	ldw	fp,0(sp)
   42fa8:	dec00104 	addi	sp,sp,4
   42fac:	f800283a 	ret

00042fb0 <vTaskPriorityInherit>:
/*-----------------------------------------------------------*/

#if ( configUSE_MUTEXES == 1 )

	void vTaskPriorityInherit( xTaskHandle * const pxMutexHolder )
	{
   42fb0:	defffc04 	addi	sp,sp,-16
   42fb4:	dfc00315 	stw	ra,12(sp)
   42fb8:	df000215 	stw	fp,8(sp)
   42fbc:	df000204 	addi	fp,sp,8
   42fc0:	e13fff15 	stw	r4,-4(fp)
	tskTCB * const pxTCB = ( tskTCB * ) pxMutexHolder;
   42fc4:	e0bfff17 	ldw	r2,-4(fp)
   42fc8:	e0bffe15 	stw	r2,-8(fp)

		configASSERT( pxMutexHolder );

		if( pxTCB->uxPriority < pxCurrentTCB->uxPriority )
   42fcc:	e0bffe17 	ldw	r2,-8(fp)
   42fd0:	10c00b17 	ldw	r3,44(r2)
   42fd4:	d0a6d617 	ldw	r2,-25768(gp)
   42fd8:	10800b17 	ldw	r2,44(r2)
   42fdc:	18802e2e 	bgeu	r3,r2,43098 <vTaskPriorityInherit+0xe8>
		{
			/* Adjust the mutex holder state to account for its new priority. */
			listSET_LIST_ITEM_VALUE( &( pxTCB->xEventListItem ), configMAX_PRIORITIES - ( portTickType ) pxCurrentTCB->uxPriority );
   42fe0:	d0a6d617 	ldw	r2,-25768(gp)
   42fe4:	10800b17 	ldw	r2,44(r2)
   42fe8:	00c00144 	movi	r3,5
   42fec:	1887c83a 	sub	r3,r3,r2
   42ff0:	e0bffe17 	ldw	r2,-8(fp)
   42ff4:	10c00615 	stw	r3,24(r2)

			/* If the task being modified is in the ready state it will need to
			be moved in to a new list. */
			if( listIS_CONTAINED_WITHIN( &( pxReadyTasksLists[ pxTCB->uxPriority ] ), &( pxTCB->xGenericListItem ) ) )
   42ff8:	e0bffe17 	ldw	r2,-8(fp)
   42ffc:	10c00517 	ldw	r3,20(r2)
   43000:	e0bffe17 	ldw	r2,-8(fp)
   43004:	10800b17 	ldw	r2,44(r2)
   43008:	11000524 	muli	r4,r2,20
   4300c:	008001b4 	movhi	r2,6
   43010:	10be9904 	addi	r2,r2,-1436
   43014:	2085883a 	add	r2,r4,r2
   43018:	18801b1e 	bne	r3,r2,43088 <vTaskPriorityInherit+0xd8>
			{
				vListRemove( &( pxTCB->xGenericListItem ) );
   4301c:	e0bffe17 	ldw	r2,-8(fp)
   43020:	10800104 	addi	r2,r2,4
   43024:	1009883a 	mov	r4,r2
   43028:	00404900 	call	40490 <vListRemove>

				/* Inherit the priority before being moved into the new list. */
				pxTCB->uxPriority = pxCurrentTCB->uxPriority;
   4302c:	d0a6d617 	ldw	r2,-25768(gp)
   43030:	10c00b17 	ldw	r3,44(r2)
   43034:	e0bffe17 	ldw	r2,-8(fp)
   43038:	10c00b15 	stw	r3,44(r2)
				prvAddTaskToReadyQueue( pxTCB );
   4303c:	e0bffe17 	ldw	r2,-8(fp)
   43040:	10800b17 	ldw	r2,44(r2)
   43044:	d0e6dd17 	ldw	r3,-25740(gp)
   43048:	1880032e 	bgeu	r3,r2,43058 <vTaskPriorityInherit+0xa8>
   4304c:	e0bffe17 	ldw	r2,-8(fp)
   43050:	10800b17 	ldw	r2,44(r2)
   43054:	d0a6dd15 	stw	r2,-25740(gp)
   43058:	e0bffe17 	ldw	r2,-8(fp)
   4305c:	10800b17 	ldw	r2,44(r2)
   43060:	10c00524 	muli	r3,r2,20
   43064:	008001b4 	movhi	r2,6
   43068:	10be9904 	addi	r2,r2,-1436
   4306c:	1887883a 	add	r3,r3,r2
   43070:	e0bffe17 	ldw	r2,-8(fp)
   43074:	10800104 	addi	r2,r2,4
   43078:	1809883a 	mov	r4,r3
   4307c:	100b883a 	mov	r5,r2
   43080:	00403240 	call	40324 <vListInsertEnd>
   43084:	00000406 	br	43098 <vTaskPriorityInherit+0xe8>
			}
			else
			{
				/* Just inherit the priority. */
				pxTCB->uxPriority = pxCurrentTCB->uxPriority;
   43088:	d0a6d617 	ldw	r2,-25768(gp)
   4308c:	10c00b17 	ldw	r3,44(r2)
   43090:	e0bffe17 	ldw	r2,-8(fp)
   43094:	10c00b15 	stw	r3,44(r2)
			}
		}
	}
   43098:	e037883a 	mov	sp,fp
   4309c:	dfc00117 	ldw	ra,4(sp)
   430a0:	df000017 	ldw	fp,0(sp)
   430a4:	dec00204 	addi	sp,sp,8
   430a8:	f800283a 	ret

000430ac <vTaskPriorityDisinherit>:
/*-----------------------------------------------------------*/

#if ( configUSE_MUTEXES == 1 )

	void vTaskPriorityDisinherit( xTaskHandle * const pxMutexHolder )
	{
   430ac:	defffc04 	addi	sp,sp,-16
   430b0:	dfc00315 	stw	ra,12(sp)
   430b4:	df000215 	stw	fp,8(sp)
   430b8:	df000204 	addi	fp,sp,8
   430bc:	e13fff15 	stw	r4,-4(fp)
	tskTCB * const pxTCB = ( tskTCB * ) pxMutexHolder;
   430c0:	e0bfff17 	ldw	r2,-4(fp)
   430c4:	e0bffe15 	stw	r2,-8(fp)

		if( pxMutexHolder != NULL )
   430c8:	e0bfff17 	ldw	r2,-4(fp)
   430cc:	10002526 	beq	r2,zero,43164 <vTaskPriorityDisinherit+0xb8>
		{
			if( pxTCB->uxPriority != pxTCB->uxBasePriority )
   430d0:	e0bffe17 	ldw	r2,-8(fp)
   430d4:	10c00b17 	ldw	r3,44(r2)
   430d8:	e0bffe17 	ldw	r2,-8(fp)
   430dc:	10801017 	ldw	r2,64(r2)
   430e0:	18802026 	beq	r3,r2,43164 <vTaskPriorityDisinherit+0xb8>
			{
				/* We must be the running task to be able to give the mutex back.
				Remove ourselves from the ready list we currently appear in. */
				vListRemove( &( pxTCB->xGenericListItem ) );
   430e4:	e0bffe17 	ldw	r2,-8(fp)
   430e8:	10800104 	addi	r2,r2,4
   430ec:	1009883a 	mov	r4,r2
   430f0:	00404900 	call	40490 <vListRemove>

				/* Disinherit the priority before adding ourselves into the new
				ready list. */
				pxTCB->uxPriority = pxTCB->uxBasePriority;
   430f4:	e0bffe17 	ldw	r2,-8(fp)
   430f8:	10c01017 	ldw	r3,64(r2)
   430fc:	e0bffe17 	ldw	r2,-8(fp)
   43100:	10c00b15 	stw	r3,44(r2)
				listSET_LIST_ITEM_VALUE( &( pxTCB->xEventListItem ), configMAX_PRIORITIES - ( portTickType ) pxTCB->uxPriority );
   43104:	e0bffe17 	ldw	r2,-8(fp)
   43108:	10800b17 	ldw	r2,44(r2)
   4310c:	00c00144 	movi	r3,5
   43110:	1887c83a 	sub	r3,r3,r2
   43114:	e0bffe17 	ldw	r2,-8(fp)
   43118:	10c00615 	stw	r3,24(r2)
				prvAddTaskToReadyQueue( pxTCB );
   4311c:	e0bffe17 	ldw	r2,-8(fp)
   43120:	10800b17 	ldw	r2,44(r2)
   43124:	d0e6dd17 	ldw	r3,-25740(gp)
   43128:	1880032e 	bgeu	r3,r2,43138 <vTaskPriorityDisinherit+0x8c>
   4312c:	e0bffe17 	ldw	r2,-8(fp)
   43130:	10800b17 	ldw	r2,44(r2)
   43134:	d0a6dd15 	stw	r2,-25740(gp)
   43138:	e0bffe17 	ldw	r2,-8(fp)
   4313c:	10800b17 	ldw	r2,44(r2)
   43140:	10c00524 	muli	r3,r2,20
   43144:	008001b4 	movhi	r2,6
   43148:	10be9904 	addi	r2,r2,-1436
   4314c:	1887883a 	add	r3,r3,r2
   43150:	e0bffe17 	ldw	r2,-8(fp)
   43154:	10800104 	addi	r2,r2,4
   43158:	1809883a 	mov	r4,r3
   4315c:	100b883a 	mov	r5,r2
   43160:	00403240 	call	40324 <vListInsertEnd>
			}
		}
	}
   43164:	e037883a 	mov	sp,fp
   43168:	dfc00117 	ldw	ra,4(sp)
   4316c:	df000017 	ldw	fp,0(sp)
   43170:	dec00204 	addi	sp,sp,8
   43174:	f800283a 	ret

00043178 <vTaskEnterCritical>:
/*-----------------------------------------------------------*/

#if ( portCRITICAL_NESTING_IN_TCB == 1 )

	void vTaskEnterCritical( void )
	{
   43178:	defffe04 	addi	sp,sp,-8
   4317c:	df000115 	stw	fp,4(sp)
   43180:	df000104 	addi	fp,sp,4
static ALT_INLINE alt_irq_context ALT_ALWAYS_INLINE 
       alt_irq_disable_all (void)
{
  alt_irq_context context;

  NIOS2_READ_STATUS (context);
   43184:	0005303a 	rdctl	r2,status
   43188:	e0bfff15 	stw	r2,-4(fp)

  NIOS2_WRITE_STATUS (context & ~NIOS2_STATUS_PIE_MSK);
   4318c:	e0ffff17 	ldw	r3,-4(fp)
   43190:	00bfff84 	movi	r2,-2
   43194:	1884703a 	and	r2,r3,r2
   43198:	1001703a 	wrctl	status,r2
		portDISABLE_INTERRUPTS();

		if( xSchedulerRunning != pdFALSE )
   4319c:	d0a6de17 	ldw	r2,-25736(gp)
   431a0:	10000426 	beq	r2,zero,431b4 <vTaskEnterCritical+0x3c>
		{
			( pxCurrentTCB->uxCriticalNesting )++;
   431a4:	d0a6d617 	ldw	r2,-25768(gp)
   431a8:	10c00f17 	ldw	r3,60(r2)
   431ac:	18c00044 	addi	r3,r3,1
   431b0:	10c00f15 	stw	r3,60(r2)
		}
	}
   431b4:	e037883a 	mov	sp,fp
   431b8:	df000017 	ldw	fp,0(sp)
   431bc:	dec00104 	addi	sp,sp,4
   431c0:	f800283a 	ret

000431c4 <vTaskExitCritical>:
/*-----------------------------------------------------------*/

#if ( portCRITICAL_NESTING_IN_TCB == 1 )

void vTaskExitCritical( void )
{
   431c4:	defffe04 	addi	sp,sp,-8
   431c8:	df000115 	stw	fp,4(sp)
   431cc:	df000104 	addi	fp,sp,4
	if( xSchedulerRunning != pdFALSE )
   431d0:	d0a6de17 	ldw	r2,-25736(gp)
   431d4:	10000e26 	beq	r2,zero,43210 <vTaskExitCritical+0x4c>
	{
		if( pxCurrentTCB->uxCriticalNesting > 0 )
   431d8:	d0a6d617 	ldw	r2,-25768(gp)
   431dc:	10800f17 	ldw	r2,60(r2)
   431e0:	10000b26 	beq	r2,zero,43210 <vTaskExitCritical+0x4c>
		{
			( pxCurrentTCB->uxCriticalNesting )--;
   431e4:	d0a6d617 	ldw	r2,-25768(gp)
   431e8:	10c00f17 	ldw	r3,60(r2)
   431ec:	18ffffc4 	addi	r3,r3,-1
   431f0:	10c00f15 	stw	r3,60(r2)

			if( pxCurrentTCB->uxCriticalNesting == 0 )
   431f4:	d0a6d617 	ldw	r2,-25768(gp)
   431f8:	10800f17 	ldw	r2,60(r2)
   431fc:	1000041e 	bne	r2,zero,43210 <vTaskExitCritical+0x4c>
   43200:	00800044 	movi	r2,1
   43204:	e0bfff15 	stw	r2,-4(fp)
  status &= ~NIOS2_STATUS_PIE_MSK;
  status |= (context & NIOS2_STATUS_PIE_MSK);
  
  NIOS2_WRITE_STATUS (status);
#else
  NIOS2_WRITE_STATUS (context);
   43208:	e0bfff17 	ldw	r2,-4(fp)
   4320c:	1001703a 	wrctl	status,r2
			{
				portENABLE_INTERRUPTS();
			}
		}
	}
}
   43210:	e037883a 	mov	sp,fp
   43214:	df000017 	ldw	fp,0(sp)
   43218:	dec00104 	addi	sp,sp,4
   4321c:	f800283a 	ret

00043220 <vApplicationStackOverflowHook>:




void vApplicationStackOverflowHook( void )
{
   43220:	deffff04 	addi	sp,sp,-4
   43224:	df000015 	stw	fp,0(sp)
   43228:	d839883a 	mov	fp,sp
	/* Look at pxCurrentTCB to see which task overflowed its stack. */
	for( ;; )
    {
		asm( "break" );
   4322c:	003da03a 	break	0
    }
   43230:	003ffe06 	br	4322c <__alt_data_end+0xfffc88ac>

00043234 <_general_exception_handler>:
}
/*-----------------------------------------------------------*/

void _general_exception_handler( unsigned long ulCause, unsigned long ulStatus )
{
   43234:	defffd04 	addi	sp,sp,-12
   43238:	df000215 	stw	fp,8(sp)
   4323c:	df000204 	addi	fp,sp,8
   43240:	e13ffe15 	stw	r4,-8(fp)
   43244:	e17fff15 	stw	r5,-4(fp)
	/* This overrides the definition provided by the kernel.  Other exceptions
	should be handled here. */
	for( ;; )
    {
		asm( "break" );
   43248:	003da03a 	break	0
    }
   4324c:	003ffe06 	br	43248 <__alt_data_end+0xfffc88c8>

00043250 <prvCheckTask>:
}
/*-----------------------------------------------------------*/

static void prvCheckTask( void *pvParameters )
{
   43250:	defff804 	addi	sp,sp,-32
   43254:	dfc00715 	stw	ra,28(sp)
   43258:	df000615 	stw	fp,24(sp)
   4325c:	df000604 	addi	fp,sp,24
   43260:	e13fff15 	stw	r4,-4(fp)
portTickType xLastExecutionTime, ulTicksToWait = mainNO_ERROR_PERIOD;
   43264:	0084e204 	movi	r2,5000
   43268:	e0bffa15 	stw	r2,-24(fp)
unsigned long ulLastRegTest1 = 0UL, ulLastRegTest2 = 0UL;
   4326c:	e03ffb15 	stw	zero,-20(fp)
   43270:	e03ffc15 	stw	zero,-16(fp)
const char * pcMessage;

	/* Initialise the variable used to control our iteration rate prior to
	its first use. */
	xLastExecutionTime = xTaskGetTickCount();
   43274:	00425200 	call	42520 <xTaskGetTickCount>
   43278:	e0bffe15 	stw	r2,-8(fp)

	for( ;; )
	{
		/* Wait until it is time to run the tests again. */
		vTaskDelayUntil( &xLastExecutionTime, ulTicksToWait );
   4327c:	e0bffe04 	addi	r2,fp,-8
   43280:	1009883a 	mov	r4,r2
   43284:	e17ffa17 	ldw	r5,-24(fp)
   43288:	0041cd00 	call	41cd0 <vTaskDelayUntil>

		/* Have any of the standard demo tasks detected an error in their
		operation? */
		if( ulLastRegTest1 == ulRegTest1Counter )
   4328c:	d0a6e417 	ldw	r2,-25712(gp)
   43290:	e0fffb17 	ldw	r3,-20(fp)
   43294:	1880061e 	bne	r3,r2,432b0 <prvCheckTask+0x60>
        {
            /* ulRegTest1Counter is no longer being incremented, indicating
            that an error has been discovered in prvFirstRegTestTask(). */
            ulTicksToWait = mainERROR_PERIOD;
   43298:	00807d04 	movi	r2,500
   4329c:	e0bffa15 	stw	r2,-24(fp)
            pcMessage = "Error: Reg Test1.\n";
   432a0:	00800174 	movhi	r2,5
   432a4:	10891e04 	addi	r2,r2,9336
   432a8:	e0bffd15 	stw	r2,-12(fp)
   432ac:	00000a06 	br	432d8 <prvCheckTask+0x88>
        }
        else if( ulLastRegTest2 == ulRegTest2Counter )
   432b0:	d0a6e517 	ldw	r2,-25708(gp)
   432b4:	e0fffc17 	ldw	r3,-16(fp)
   432b8:	1880061e 	bne	r3,r2,432d4 <prvCheckTask+0x84>
        {
            /* ulRegTest2Counter is no longer being incremented, indicating
            that an error has been discovered in prvSecondRegTestTask(). */
            ulTicksToWait = mainERROR_PERIOD;
   432bc:	00807d04 	movi	r2,500
   432c0:	e0bffa15 	stw	r2,-24(fp)
            pcMessage = "Error: Reg Test2.\n";
   432c4:	00800174 	movhi	r2,5
   432c8:	10892304 	addi	r2,r2,9356
   432cc:	e0bffd15 	stw	r2,-12(fp)
   432d0:	00000106 	br	432d8 <prvCheckTask+0x88>
        }
		else
		{
			pcMessage = NULL;
   432d4:	e03ffd15 	stw	zero,-12(fp)
		}

        /* Remember the counter values this time around so a counter failing
        to be incremented correctly can be spotted. */
        ulLastRegTest1 = ulRegTest1Counter;
   432d8:	d0a6e417 	ldw	r2,-25712(gp)
   432dc:	e0bffb15 	stw	r2,-20(fp)
        ulLastRegTest2 = ulRegTest2Counter;
   432e0:	d0a6e517 	ldw	r2,-25708(gp)
   432e4:	e0bffc15 	stw	r2,-16(fp)

        /* Print out an error message if there is one.  Mutual exclusion is
        not used as this is the only task accessing stdout. */
        if( pcMessage != NULL )
   432e8:	e0bffd17 	ldw	r2,-12(fp)
   432ec:	10000226 	beq	r2,zero,432f8 <prvCheckTask+0xa8>
        {
            printf( pcMessage );
   432f0:	e13ffd17 	ldw	r4,-12(fp)
   432f4:	0043b700 	call	43b70 <printf>
        }


        //added cjr
        printf(".");
   432f8:	01000b84 	movi	r4,46
   432fc:	0043bb40 	call	43bb4 <putchar>
	}
   43300:	003fde06 	br	4327c <__alt_data_end+0xfffc88fc>

00043304 <prvFirstRegTestTask>:
}
/*-----------------------------------------------------------*/

static void prvFirstRegTestTask( void *pvParameters )
{
   43304:	defffd04 	addi	sp,sp,-12
   43308:	dfc00215 	stw	ra,8(sp)
   4330c:	df000115 	stw	fp,4(sp)
   43310:	df000104 	addi	fp,sp,4
   43314:	e13fff15 	stw	r4,-4(fp)
    /* Check the parameters are passed in as expected. */
    if( pvParameters != mainREG_TEST_1_PARAMETER )
   43318:	e0ffff17 	ldw	r3,-4(fp)
   4331c:	00800234 	movhi	r2,8
   43320:	10aa5fc4 	addi	r2,r2,-22145
   43324:	18800226 	beq	r3,r2,43330 <prvFirstRegTestTask+0x2c>
    {
        /* Don't execute any further so an error is recognised by the check
        task. */
        vTaskDelete( NULL );
   43328:	0009883a 	mov	r4,zero
   4332c:	0041c080 	call	41c08 <vTaskDelete>

    If no errors are found ulRegTest1Counter is incremented.  The check task
    will recognise an error if ulRegTest1Counter stops being incremented.
    This task also performs a manual yield in the middle of its execution, just
    to increase the test coverage. */
    asm volatile (
   43330:	00c000c4 	movi	r3,3
   43334:	01000104 	movi	r4,4
   43338:	01400144 	movi	r5,5
   4333c:	01800184 	movi	r6,6
   43340:	01c001c4 	movi	r7,7
   43344:	02000204 	movi	r8,8
   43348:	02400244 	movi	r9,9
   4334c:	02800284 	movi	r10,10
   43350:	02c002c4 	movi	r11,11
   43354:	03000304 	movi	r12,12
   43358:	03400344 	movi	r13,13
   4335c:	03800384 	movi	r14,14
   43360:	03c003c4 	movi	r15,15
   43364:	04000404 	movi	r16,16
   43368:	04400444 	movi	r17,17
   4336c:	04800484 	movi	r18,18
   43370:	04c004c4 	movi	r19,19
   43374:	05000504 	movi	r20,20
   43378:	05400544 	movi	r21,21
   4337c:	05800584 	movi	r22,22
   43380:	05c005c4 	movi	r23,23
   43384:	07000704 	movi	fp,28
   43388:	07c007c4 	movi	ra,31

0004338c <RegTest1>:
   4338c:	00800004 	movi	r2,0
   43390:	003b683a 	trap	0
   43394:	1000321e 	bne	r2,zero,43460 <RegTest1Error>
   43398:	008000c4 	movi	r2,3
   4339c:	10c0301e 	bne	r2,r3,43460 <RegTest1Error>
   433a0:	00800104 	movi	r2,4
   433a4:	11002e1e 	bne	r2,r4,43460 <RegTest1Error>
   433a8:	00800144 	movi	r2,5
   433ac:	11402c1e 	bne	r2,r5,43460 <RegTest1Error>
   433b0:	00800184 	movi	r2,6
   433b4:	11802a1e 	bne	r2,r6,43460 <RegTest1Error>
   433b8:	008001c4 	movi	r2,7
   433bc:	11c0281e 	bne	r2,r7,43460 <RegTest1Error>
   433c0:	00800204 	movi	r2,8
   433c4:	1200261e 	bne	r2,r8,43460 <RegTest1Error>
   433c8:	00800244 	movi	r2,9
   433cc:	1240241e 	bne	r2,r9,43460 <RegTest1Error>
   433d0:	00800284 	movi	r2,10
   433d4:	1280221e 	bne	r2,r10,43460 <RegTest1Error>
   433d8:	008002c4 	movi	r2,11
   433dc:	12c0201e 	bne	r2,r11,43460 <RegTest1Error>
   433e0:	00800304 	movi	r2,12
   433e4:	13001e1e 	bne	r2,r12,43460 <RegTest1Error>
   433e8:	00800344 	movi	r2,13
   433ec:	13401c1e 	bne	r2,r13,43460 <RegTest1Error>
   433f0:	00800384 	movi	r2,14
   433f4:	13801a1e 	bne	r2,r14,43460 <RegTest1Error>
   433f8:	008003c4 	movi	r2,15
   433fc:	13c0181e 	bne	r2,r15,43460 <RegTest1Error>
   43400:	00800404 	movi	r2,16
   43404:	1400161e 	bne	r2,r16,43460 <RegTest1Error>
   43408:	00800444 	movi	r2,17
   4340c:	1440141e 	bne	r2,r17,43460 <RegTest1Error>
   43410:	00800484 	movi	r2,18
   43414:	1480121e 	bne	r2,r18,43460 <RegTest1Error>
   43418:	008004c4 	movi	r2,19
   4341c:	14c0101e 	bne	r2,r19,43460 <RegTest1Error>
   43420:	00800504 	movi	r2,20
   43424:	15000e1e 	bne	r2,r20,43460 <RegTest1Error>
   43428:	00800544 	movi	r2,21
   4342c:	15400c1e 	bne	r2,r21,43460 <RegTest1Error>
   43430:	00800584 	movi	r2,22
   43434:	15800a1e 	bne	r2,r22,43460 <RegTest1Error>
   43438:	008005c4 	movi	r2,23
   4343c:	15c0081e 	bne	r2,r23,43460 <RegTest1Error>
   43440:	00800704 	movi	r2,28
   43444:	1700061e 	bne	r2,fp,43460 <RegTest1Error>
   43448:	008007c4 	movi	r2,31
   4344c:	17c0041e 	bne	r2,ra,43460 <RegTest1Error>
   43450:	d0a6e417 	ldw	r2,-25712(gp)
   43454:	10800044 	addi	r2,r2,1
   43458:	d0a6e415 	stw	r2,-25712(gp)
   4345c:	003fcb06 	br	4338c <__alt_data_end+0xfffc8a0c>

00043460 <RegTest1Error>:
   43460:	003fff06 	br	43460 <__alt_data_end+0xfffc8ae0>
        "   stw     r2, %gprel(ulRegTest1Counter)(gp)       \n" \
        "   br      RegTest1                    \n" \
        "RegTest1Error:                         \n" \
        "   br      RegTest1Error               \n"
    );
}
   43464:	e037883a 	mov	sp,fp
   43468:	dfc00117 	ldw	ra,4(sp)
   4346c:	df000017 	ldw	fp,0(sp)
   43470:	dec00204 	addi	sp,sp,8
   43474:	f800283a 	ret

00043478 <prvSecondRegTestTask>:
/*-----------------------------------------------------------*/

static void prvSecondRegTestTask( void *pvParameters )
{
   43478:	defffd04 	addi	sp,sp,-12
   4347c:	dfc00215 	stw	ra,8(sp)
   43480:	df000115 	stw	fp,4(sp)
   43484:	df000104 	addi	fp,sp,4
   43488:	e13fff15 	stw	r4,-4(fp)
    /* Check the parameters are passed in as expected. */
    if( pvParameters != mainREG_TEST_2_PARAMETER )
   4348c:	e0ffff17 	ldw	r3,-4(fp)
   43490:	00800234 	movhi	r2,8
   43494:	10aa6004 	addi	r2,r2,-22144
   43498:	18800226 	beq	r3,r2,434a4 <prvSecondRegTestTask+0x2c>
    {
        /* Don't execute any further so an error is recognised by the check
        task. */
        vTaskDelete( NULL );
   4349c:	0009883a 	mov	r4,zero
   434a0:	0041c080 	call	41c08 <vTaskDelete>
    contains its expected value.  An incorrect value is indicative of an error
    in the context switching process.

    If no errors are found ulRegTest2Counter is incremented.  The check task
    will recognise an error if ulRegTest2Counter stops being incremented. */
    asm volatile (
   434a4:	00c000c4 	movi	r3,3
   434a8:	01000104 	movi	r4,4
   434ac:	01400144 	movi	r5,5
   434b0:	01800184 	movi	r6,6
   434b4:	01c001c4 	movi	r7,7
   434b8:	02000204 	movi	r8,8
   434bc:	02400244 	movi	r9,9
   434c0:	02800284 	movi	r10,10
   434c4:	02c002c4 	movi	r11,11
   434c8:	03000304 	movi	r12,12
   434cc:	03400344 	movi	r13,13
   434d0:	03800384 	movi	r14,14
   434d4:	03c003c4 	movi	r15,15
   434d8:	04000404 	movi	r16,16
   434dc:	04400444 	movi	r17,17
   434e0:	04800484 	movi	r18,18
   434e4:	04c004c4 	movi	r19,19
   434e8:	05000504 	movi	r20,20
   434ec:	05400544 	movi	r21,21
   434f0:	05800584 	movi	r22,22
   434f4:	05c005c4 	movi	r23,23
   434f8:	07000704 	movi	fp,28
   434fc:	07c007c4 	movi	ra,31

00043500 <RegTest2>:
   43500:	00800004 	movi	r2,0
   43504:	1000321e 	bne	r2,zero,435d0 <RegTest2Error>
   43508:	008000c4 	movi	r2,3
   4350c:	10c0301e 	bne	r2,r3,435d0 <RegTest2Error>
   43510:	00800104 	movi	r2,4
   43514:	11002e1e 	bne	r2,r4,435d0 <RegTest2Error>
   43518:	00800144 	movi	r2,5
   4351c:	11402c1e 	bne	r2,r5,435d0 <RegTest2Error>
   43520:	00800184 	movi	r2,6
   43524:	11802a1e 	bne	r2,r6,435d0 <RegTest2Error>
   43528:	008001c4 	movi	r2,7
   4352c:	11c0281e 	bne	r2,r7,435d0 <RegTest2Error>
   43530:	00800204 	movi	r2,8
   43534:	1200261e 	bne	r2,r8,435d0 <RegTest2Error>
   43538:	00800244 	movi	r2,9
   4353c:	1240241e 	bne	r2,r9,435d0 <RegTest2Error>
   43540:	00800284 	movi	r2,10
   43544:	1280221e 	bne	r2,r10,435d0 <RegTest2Error>
   43548:	008002c4 	movi	r2,11
   4354c:	12c0201e 	bne	r2,r11,435d0 <RegTest2Error>
   43550:	00800304 	movi	r2,12
   43554:	13001e1e 	bne	r2,r12,435d0 <RegTest2Error>
   43558:	00800344 	movi	r2,13
   4355c:	13401c1e 	bne	r2,r13,435d0 <RegTest2Error>
   43560:	00800384 	movi	r2,14
   43564:	13801a1e 	bne	r2,r14,435d0 <RegTest2Error>
   43568:	008003c4 	movi	r2,15
   4356c:	13c0181e 	bne	r2,r15,435d0 <RegTest2Error>
   43570:	00800404 	movi	r2,16
   43574:	1400161e 	bne	r2,r16,435d0 <RegTest2Error>
   43578:	00800444 	movi	r2,17
   4357c:	1440141e 	bne	r2,r17,435d0 <RegTest2Error>
   43580:	00800484 	movi	r2,18
   43584:	1480121e 	bne	r2,r18,435d0 <RegTest2Error>
   43588:	008004c4 	movi	r2,19
   4358c:	14c0101e 	bne	r2,r19,435d0 <RegTest2Error>
   43590:	00800504 	movi	r2,20
   43594:	15000e1e 	bne	r2,r20,435d0 <RegTest2Error>
   43598:	00800544 	movi	r2,21
   4359c:	15400c1e 	bne	r2,r21,435d0 <RegTest2Error>
   435a0:	00800584 	movi	r2,22
   435a4:	15800a1e 	bne	r2,r22,435d0 <RegTest2Error>
   435a8:	008005c4 	movi	r2,23
   435ac:	15c0081e 	bne	r2,r23,435d0 <RegTest2Error>
   435b0:	00800704 	movi	r2,28
   435b4:	1700061e 	bne	r2,fp,435d0 <RegTest2Error>
   435b8:	008007c4 	movi	r2,31
   435bc:	17c0041e 	bne	r2,ra,435d0 <RegTest2Error>
   435c0:	d0a6e517 	ldw	r2,-25708(gp)
   435c4:	10800044 	addi	r2,r2,1
   435c8:	d0a6e515 	stw	r2,-25708(gp)
   435cc:	003fcc06 	br	43500 <__alt_data_end+0xfffc8b80>

000435d0 <RegTest2Error>:
   435d0:	003fff06 	br	435d0 <__alt_data_end+0xfffc8c50>
        "   stw     r2, %gprel(ulRegTest2Counter)(gp)       \n" \
        "   br      RegTest2                    \n" \
        "RegTest2Error:                         \n" \
        "   br      RegTest2Error               \n"
    );
}
   435d4:	e037883a 	mov	sp,fp
   435d8:	dfc00117 	ldw	ra,4(sp)
   435dc:	df000017 	ldw	fp,0(sp)
   435e0:	dec00204 	addi	sp,sp,8
   435e4:	f800283a 	ret

000435e8 <Tarea_LED0>:
	unsigned char out_tmp=1<<x;\
	unsigned char out=in_led ^ out_tmp;\
	IOWR(LED_BASE,0,out);\
}

void Tarea_LED0(void *pvParameters) {
   435e8:	defffc04 	addi	sp,sp,-16
   435ec:	dfc00315 	stw	ra,12(sp)
   435f0:	df000215 	stw	fp,8(sp)
   435f4:	df000204 	addi	fp,sp,8
   435f8:	e13fff15 	stw	r4,-4(fp)

	for (;;){
		TOGGLE_LED(0);
   435fc:	0005883a 	mov	r2,zero
   43600:	10800037 	ldwio	r2,0(r2)
   43604:	e0bffe05 	stb	r2,-8(fp)
   43608:	00800044 	movi	r2,1
   4360c:	e0bffe45 	stb	r2,-7(fp)
   43610:	e0fffe03 	ldbu	r3,-8(fp)
   43614:	e0bffe43 	ldbu	r2,-7(fp)
   43618:	1884f03a 	xor	r2,r3,r2
   4361c:	e0bffe85 	stb	r2,-6(fp)
   43620:	e0bffe83 	ldbu	r2,-6(fp)
   43624:	0007883a 	mov	r3,zero
   43628:	18800035 	stwio	r2,0(r3)
		vTaskDelay(500 / portTICK_RATE_MS); //
   4362c:	01007d04 	movi	r4,500
   43630:	0041db40 	call	41db4 <vTaskDelay>

	}
   43634:	003ff106 	br	435fc <__alt_data_end+0xfffc8c7c>

00043638 <Tarea_LED1>:
	vTaskDelete(NULL);
}

void Tarea_LED1(void *pvParameters) {
   43638:	defffc04 	addi	sp,sp,-16
   4363c:	dfc00315 	stw	ra,12(sp)
   43640:	df000215 	stw	fp,8(sp)
   43644:	df000204 	addi	fp,sp,8
   43648:	e13fff15 	stw	r4,-4(fp)

	for (;;){
		TOGGLE_LED(1);
   4364c:	0005883a 	mov	r2,zero
   43650:	10800037 	ldwio	r2,0(r2)
   43654:	e0bffe05 	stb	r2,-8(fp)
   43658:	00800084 	movi	r2,2
   4365c:	e0bffe45 	stb	r2,-7(fp)
   43660:	e0fffe03 	ldbu	r3,-8(fp)
   43664:	e0bffe43 	ldbu	r2,-7(fp)
   43668:	1884f03a 	xor	r2,r3,r2
   4366c:	e0bffe85 	stb	r2,-6(fp)
   43670:	e0bffe83 	ldbu	r2,-6(fp)
   43674:	0007883a 	mov	r3,zero
   43678:	18800035 	stwio	r2,0(r3)
		vTaskDelay(100 / portTICK_RATE_MS); //
