
Practica_nios_2.elf:     file format elf32-littlenios2
Practica_nios_2.elf
architecture: nios2:r1, flags 0x00000112:
EXEC_P, HAS_SYMS, D_PAGED
start address 0x0004022c

Program Header:
    LOAD off    0x00001000 vaddr 0x00040000 paddr 0x00040000 align 2**12
         filesz 0x00000020 memsz 0x00000020 flags r-x
    LOAD off    0x00001020 vaddr 0x00040020 paddr 0x00040020 align 2**12
         filesz 0x00010944 memsz 0x00010944 flags r-x
    LOAD off    0x00011964 vaddr 0x00050964 paddr 0x00052514 align 2**12
         filesz 0x00001bb0 memsz 0x00001bb0 flags rw-
    LOAD off    0x000140c4 vaddr 0x000540c4 paddr 0x000540c4 align 2**12
         filesz 0x00000000 memsz 0x00000338 flags rw-

Sections:
Idx Name          Size      VMA       LMA       File off  Algn
  0 .entry        00000020  00040000  00040000  00001000  2**5
                  CONTENTS, ALLOC, LOAD, READONLY, CODE
  1 .exceptions   0000020c  00040020  00040020  00001020  2**2
                  CONTENTS, ALLOC, LOAD, READONLY, CODE
  2 .text         000103f0  0004022c  0004022c  0000122c  2**2
                  CONTENTS, ALLOC, LOAD, READONLY, CODE
  3 .rodata       00000348  0005061c  0005061c  0001161c  2**2
                  CONTENTS, ALLOC, LOAD, READONLY, DATA
  4 .rwdata       00001bb0  00050964  00052514  00011964  2**2
                  CONTENTS, ALLOC, LOAD, DATA, SMALL_DATA
  5 .bss          00000338  000540c4  000540c4  000140c4  2**2
                  ALLOC, SMALL_DATA
  6 .RAM_jesus    00000000  000543fc  000543fc  00013514  2**0
                  CONTENTS
  7 .comment      00000023  00000000  00000000  00013514  2**0
                  CONTENTS, READONLY
  8 .debug_aranges 00000df0  00000000  00000000  00013538  2**3
                  CONTENTS, READONLY, DEBUGGING
  9 .debug_info   0002508f  00000000  00000000  00014328  2**0
                  CONTENTS, READONLY, DEBUGGING
 10 .debug_abbrev 00009821  00000000  00000000  000393b7  2**0
                  CONTENTS, READONLY, DEBUGGING
 11 .debug_line   0000b803  00000000  00000000  00042bd8  2**0
                  CONTENTS, READONLY, DEBUGGING
 12 .debug_frame  00002350  00000000  00000000  0004e3dc  2**2
                  CONTENTS, READONLY, DEBUGGING
 13 .debug_str    00003987  00000000  00000000  0005072c  2**0
                  CONTENTS, READONLY, DEBUGGING
 14 .debug_loc    00016ea9  00000000  00000000  000540b3  2**0
                  CONTENTS, READONLY, DEBUGGING
 15 .debug_alt_sim_info 00000040  00000000  00000000  0006af5c  2**2
                  CONTENTS, READONLY, DEBUGGING
 16 .debug_ranges 000013c0  00000000  00000000  0006afa0  2**3
                  CONTENTS, READONLY, DEBUGGING
 17 .thread_model 00000003  00000000  00000000  0006f765  2**0
                  CONTENTS, READONLY
 18 .cpu          00000003  00000000  00000000  0006f768  2**0
                  CONTENTS, READONLY
 19 .qsys         00000001  00000000  00000000  0006f76b  2**0
                  CONTENTS, READONLY
 20 .simulation_enabled 00000001  00000000  00000000  0006f76c  2**0
                  CONTENTS, READONLY
 21 .stderr_dev   00000009  00000000  00000000  0006f76d  2**0
                  CONTENTS, READONLY
 22 .stdin_dev    00000009  00000000  00000000  0006f776  2**0
                  CONTENTS, READONLY
 23 .stdout_dev   00000009  00000000  00000000  0006f77f  2**0
                  CONTENTS, READONLY
 24 .sopc_system_name 0000000d  00000000  00000000  0006f788  2**0
                  CONTENTS, READONLY
 25 .quartus_project_dir 0000002f  00000000  00000000  0006f795  2**0
                  CONTENTS, READONLY
 26 .jdi          00003b78  00000000  00000000  0006f7c4  2**0
                  CONTENTS, READONLY
 27 .sopcinfo     00065f6b  00000000  00000000  0007333c  2**0
                  CONTENTS, READONLY
SYMBOL TABLE:
00040000 l    d  .entry	00000000 .entry
00040020 l    d  .exceptions	00000000 .exceptions
0004022c l    d  .text	00000000 .text
0005061c l    d  .rodata	00000000 .rodata
00050964 l    d  .rwdata	00000000 .rwdata
000540c4 l    d  .bss	00000000 .bss
000543fc l    d  .RAM_jesus	00000000 .RAM_jesus
00000000 l    d  .comment	00000000 .comment
00000000 l    d  .debug_aranges	00000000 .debug_aranges
00000000 l    d  .debug_info	00000000 .debug_info
00000000 l    d  .debug_abbrev	00000000 .debug_abbrev
00000000 l    d  .debug_line	00000000 .debug_line
00000000 l    d  .debug_frame	00000000 .debug_frame
00000000 l    d  .debug_str	00000000 .debug_str
00000000 l    d  .debug_loc	00000000 .debug_loc
00000000 l    d  .debug_alt_sim_info	00000000 .debug_alt_sim_info
00000000 l    d  .debug_ranges	00000000 .debug_ranges
00000000 l    df *ABS*	00000000 ../Practica_nios_2_bsp//obj/HAL/src/crt0.o
00040264 l       .text	00000000 alt_after_alt_main
00000000 l    df *ABS*	00000000 alt_irq_handler.c
00000000 l    df *ABS*	00000000 alt_instruction_exception_entry.c
00000000 l    df *ABS*	00000000 hello_world.c
00000000 l    df *ABS*	00000000 lib2-divmod.c
00040830 l     F .text	0000006c udivmodsi4
00000000 l    df *ABS*	00000000 lib2-mul.c
00000000 l    df *ABS*	00000000 printf.c
00000000 l    df *ABS*	00000000 puts.c
00000000 l    df *ABS*	00000000 rand.c
00000000 l    df *ABS*	00000000 strlen.c
00000000 l    df *ABS*	00000000 vfprintf.c
000506a6 l     O .rodata	00000010 zeroes.4181
000506b6 l     O .rodata	00000010 blanks.4180
00000000 l    df *ABS*	00000000 wsetup.c
00000000 l    df *ABS*	00000000 dtoa.c
00042e1c l     F .text	00000228 quorem
00000000 l    df *ABS*	00000000 fflush.c
00000000 l    df *ABS*	00000000 findfp.c
000449c4 l     F .text	00000008 __fp_lock
000449cc l     F .text	00000008 __fp_unlock
000449e0 l     F .text	000001a0 __sinit.part.1
00000000 l    df *ABS*	00000000 mallocr.c
00000000 l    df *ABS*	00000000 fvwrite.c
00000000 l    df *ABS*	00000000 fwalk.c
00000000 l    df *ABS*	00000000 impure.c
00050964 l     O .rwdata	00000424 impure_data
00000000 l    df *ABS*	00000000 locale.c
00050da8 l     O .rwdata	00000020 lc_ctype_charset
00050d88 l     O .rwdata	00000020 lc_message_charset
00050dc8 l     O .rwdata	00000038 lconv
00000000 l    df *ABS*	00000000 makebuf.c
00000000 l    df *ABS*	00000000 mallocr.c
00000000 l    df *ABS*	00000000 memchr.c
00000000 l    df *ABS*	00000000 memcpy.c
00000000 l    df *ABS*	00000000 memmove.c
00000000 l    df *ABS*	00000000 memset.c
00000000 l    df *ABS*	00000000 mprec.c
000506e8 l     O .rodata	0000000c p05.2678
00000000 l    df *ABS*	00000000 mallocr.c
00000000 l    df *ABS*	00000000 s_fpclassify.c
00000000 l    df *ABS*	00000000 sbrkr.c
00000000 l    df *ABS*	00000000 stdio.c
00000000 l    df *ABS*	00000000 strcmp.c
00000000 l    df *ABS*	00000000 vfprintf.c
00047f10 l     F .text	000000fc __sprint_r.part.0
0005081c l     O .rodata	00000010 blanks.4125
0005080c l     O .rodata	00000010 zeroes.4126
00000000 l    df *ABS*	00000000 writer.c
00000000 l    df *ABS*	00000000 closer.c
00000000 l    df *ABS*	00000000 mallocr.c
00000000 l    df *ABS*	00000000 fclose.c
00000000 l    df *ABS*	00000000 fputwc.c
00000000 l    df *ABS*	00000000 fstatr.c
00000000 l    df *ABS*	00000000 int_errno.c
00000000 l    df *ABS*	00000000 isattyr.c
00000000 l    df *ABS*	00000000 lseekr.c
00000000 l    df *ABS*	00000000 readr.c
00000000 l    df *ABS*	00000000 wbuf.c
00000000 l    df *ABS*	00000000 wcrtomb.c
00000000 l    df *ABS*	00000000 wctomb_r.c
00000000 l    df *ABS*	00000000 libgcc2.c
00000000 l    df *ABS*	00000000 libgcc2.c
00000000 l    df *ABS*	00000000 libgcc2.c
00000000 l    df *ABS*	00000000 adddf3.c
00000000 l    df *ABS*	00000000 divdf3.c
00000000 l    df *ABS*	00000000 eqdf2.c
00000000 l    df *ABS*	00000000 gedf2.c
00000000 l    df *ABS*	00000000 ledf2.c
00000000 l    df *ABS*	00000000 muldf3.c
00000000 l    df *ABS*	00000000 subdf3.c
00000000 l    df *ABS*	00000000 fixdfsi.c
00000000 l    df *ABS*	00000000 floatsidf.c
00000000 l    df *ABS*	00000000 floatunsidf.c
00000000 l    df *ABS*	00000000 libgcc2.c
00000000 l    df *ABS*	00000000 libgcc2.c
00000000 l    df *ABS*	00000000 alt_close.c
0004d31c l     F .text	00000050 alt_get_errno
00000000 l    df *ABS*	00000000 alt_dev.c
0004d444 l     F .text	0000002c alt_dev_null_write
00000000 l    df *ABS*	00000000 alt_errno.c
00000000 l    df *ABS*	00000000 alt_fstat.c
0004d470 l     F .text	00000050 alt_get_errno
00000000 l    df *ABS*	00000000 alt_isatty.c
0004d578 l     F .text	00000050 alt_get_errno
00000000 l    df *ABS*	00000000 alt_load.c
0004d674 l     F .text	00000064 alt_load_section
00000000 l    df *ABS*	00000000 alt_lseek.c
0004d758 l     F .text	00000050 alt_get_errno
00000000 l    df *ABS*	00000000 alt_main.c
00000000 l    df *ABS*	00000000 alt_malloc_lock.c
00000000 l    df *ABS*	00000000 alt_read.c
0004d93c l     F .text	00000050 alt_get_errno
00000000 l    df *ABS*	00000000 alt_release_fd.c
00000000 l    df *ABS*	00000000 alt_sbrk.c
00052504 l     O .rwdata	00000004 heap_end
00000000 l    df *ABS*	00000000 alt_usleep.c
00000000 l    df *ABS*	00000000 alt_write.c
0004dbf0 l     F .text	00000050 alt_get_errno
00000000 l    df *ABS*	00000000 alt_sys_init.c
0004dd40 l     F .text	00000038 alt_dev_reg
000513b0 l     O .rwdata	00001060 jtag_uart
00052410 l     O .rwdata	000000c4 uart
00000000 l    df *ABS*	00000000 altera_avalon_jtag_uart_fd.c
00000000 l    df *ABS*	00000000 altera_avalon_jtag_uart_init.c
0004e050 l     F .text	00000204 altera_avalon_jtag_uart_irq
0004e254 l     F .text	000000a8 altera_avalon_jtag_uart_timeout
00000000 l    df *ABS*	00000000 altera_avalon_jtag_uart_ioctl.c
00000000 l    df *ABS*	00000000 altera_avalon_jtag_uart_read.c
00000000 l    df *ABS*	00000000 altera_avalon_jtag_uart_write.c
00000000 l    df *ABS*	00000000 altera_avalon_timer_sc.c
0004e874 l     F .text	00000074 alt_avalon_timer_sc_irq
00000000 l    df *ABS*	00000000 altera_avalon_uart_fd.c
00000000 l    df *ABS*	00000000 altera_avalon_uart_init.c
0004eb28 l     F .text	00000098 altera_avalon_uart_irq
0004ebc0 l     F .text	000000e0 altera_avalon_uart_rxirq
0004eca0 l     F .text	00000144 altera_avalon_uart_txirq
00000000 l    df *ABS*	00000000 altera_avalon_uart_read.c
0004ee38 l     F .text	00000050 alt_get_errno
00000000 l    df *ABS*	00000000 altera_avalon_uart_write.c
0004f064 l     F .text	00000050 alt_get_errno
00000000 l    df *ABS*	00000000 alt_alarm_start.c
00000000 l    df *ABS*	00000000 alt_busy_sleep.c
00000000 l    df *ABS*	00000000 alt_dcache_flush_all.c
00000000 l    df *ABS*	00000000 alt_dev_llist_insert.c
0004f514 l     F .text	00000050 alt_get_errno
00000000 l    df *ABS*	00000000 alt_do_ctors.c
00000000 l    df *ABS*	00000000 alt_do_dtors.c
00000000 l    df *ABS*	00000000 alt_icache_flush_all.c
00000000 l    df *ABS*	00000000 alt_iic.c
00000000 l    df *ABS*	00000000 alt_iic_isr_register.c
00000000 l    df *ABS*	00000000 alt_io_redirect.c
0004f9ac l     F .text	000000e0 alt_open_fd
00000000 l    df *ABS*	00000000 alt_irq_vars.c
00000000 l    df *ABS*	00000000 alt_open.c
0004fb04 l     F .text	00000050 alt_get_errno
0004fb54 l     F .text	000000f4 alt_file_locked
00000000 l    df *ABS*	00000000 alt_tick.c
00000000 l    df *ABS*	00000000 altera_nios2_gen2_irq.c
00000000 l    df *ABS*	00000000 alt_find_dev.c
00000000 l    df *ABS*	00000000 alt_find_file.c
00000000 l    df *ABS*	00000000 alt_get_fd.c
00000000 l    df *ABS*	00000000 atexit.c
00000000 l    df *ABS*	00000000 exit.c
00000000 l    df *ABS*	00000000 memcmp.c
00000000 l    df *ABS*	00000000 __atexit.c
00000000 l    df *ABS*	00000000 __call_atexit.c
00000000 l    df *ABS*	00000000 alt_exit.c
000540f8 g     O .bss	00000004 alt_instruction_exception_handler
00047550 g     F .text	00000074 _mprec_log10
0004763c g     F .text	0000008c __any_on
0004993c g     F .text	00000054 _isatty_r
000506f4 g     O .rodata	00000028 __mprec_tinytens
0004d884 g     F .text	00000078 alt_main
000409ec g     F .text	000000b8 _puts_r
000542fc g     O .bss	00000100 alt_irq
00049990 g     F .text	0000005c _lseek_r
00052514 g       *ABS*	00000000 __flash_rwdata_start
0004bd3c g     F .text	00000084 .hidden __eqdf2
000543fc g       *ABS*	00000000 __alt_heap_start
000409b0 g     F .text	0000003c printf
00049bb8 g     F .text	0000009c _wcrtomb_r
00047e08 g     F .text	0000005c __sseek
00044d28 g     F .text	00000010 __sinit
00049a48 g     F .text	00000154 __swbuf_r
000457a0 g     F .text	0000007c _setlocale_r
00044b80 g     F .text	00000078 __sfmoreglue
0004d91c g     F .text	00000020 __malloc_unlock
00046400 g     F .text	0000015c memmove
00044d10 g     F .text	00000018 _cleanup
00046680 g     F .text	000000a8 _Balloc
0004bdc0 g     F .text	000000e0 .hidden __gtdf2
0004ff44 g     F .text	00000020 altera_nios2_gen2_irq_init
00000000  w      *UND*	00000000 __errno
00040000 g     F .entry	0000000c __reset
00040020 g       *ABS*	00000000 __flash_exceptions_start
000498e4 g     F .text	00000058 _fstat_r
000540dc g     O .bss	00000004 errno
00047d84 g     F .text	00000008 __seofread
000540e4 g     O .bss	00000004 alt_argv
0005a4d4 g       *ABS*	00000000 _gp
0004dbc0 g     F .text	00000030 usleep
00051230 g     O .rwdata	00000180 alt_fd_list
0004ff64 g     F .text	00000090 alt_find_dev
000462c8 g     F .text	00000138 memcpy
000449d4 g     F .text	0000000c _cleanup_r
0004d144 g     F .text	000000d0 .hidden __floatsidf
0004fa8c g     F .text	00000078 alt_io_redirect
0004bea0 g     F .text	000000e0 .hidden __ltdf2
0005061c g       *ABS*	00000000 __DTOR_END__
00040aa4 g     F .text	00000014 puts
000501dc g     F .text	0000009c alt_exception_cause_generated_bad_addr
00047c68 g     F .text	00000074 __fpclassifyd
000474ac g     F .text	000000a4 __ratio
00049448 g     F .text	00000024 __vfiprintf_internal
0004e450 g     F .text	0000020c altera_avalon_jtag_uart_read
00000000  w      *UND*	00000000 malloc
00040984 g     F .text	0000002c _printf_r
0004094c g     F .text	00000008 .hidden __udivsi3
0004d5c8 g     F .text	000000ac isatty
00050744 g     O .rodata	000000c8 __mprec_tens
0004581c g     F .text	0000000c __locale_charset
000540d8 g     O .bss	00000004 __malloc_top_pad
000524dc g     O .rwdata	00000004 __mb_cur_max
0004584c g     F .text	0000000c _localeconv_r
00046aa8 g     F .text	0000003c __i2b
0004518c g     F .text	000004a4 __sfvwrite_r
00047cdc g     F .text	00000054 _sbrk_r
000499ec g     F .text	0000005c _read_r
000524fc g     O .rwdata	00000004 alt_max_fd
000495f4 g     F .text	00000100 _fclose_r
00044994 g     F .text	00000030 fflush
000540d4 g     O .bss	00000004 __malloc_max_sbrked_mem
0004ab20 g     F .text	0000089c .hidden __adddf3
00047254 g     F .text	0000011c __b2d
0004a504 g     F .text	0000061c .hidden __umoddi3
0004d7a8 g     F .text	000000dc lseek
000524d4 g     O .rwdata	00000004 _global_impure_ptr
000476c8 g     F .text	000005a0 _realloc_r
000543fc g       *ABS*	00000000 __bss_end
0004f8bc g     F .text	000000f0 alt_iic_isr_register
0004fe40 g     F .text	00000104 alt_tick
00049ec4 g     F .text	00000640 .hidden __udivdi3
00049708 g     F .text	00000184 _fputwc_r
0005071c g     O .rodata	00000028 __mprec_bigtens
0004688c g     F .text	00000104 __s2b
0004d214 g     F .text	000000a4 .hidden __floatunsidf
00046ffc g     F .text	00000060 __mcmp
0004ea80 g     F .text	000000a8 altera_avalon_uart_init
00044d48 g     F .text	00000018 __fp_lock_all
0004f870 g     F .text	0000004c alt_ic_irq_enabled
0004fda8 g     F .text	00000098 alt_alarm_stop
000540ec g     O .bss	00000004 alt_irq_active
000400fc g     F .exceptions	000000d0 alt_irq_handler
00051208 g     O .rwdata	00000028 alt_dev_null
0004f4f8 g     F .text	0000001c alt_dcache_flush_all
00046990 g     F .text	00000068 __hi0bits
0004d0bc g     F .text	00000088 .hidden __fixdfsi
00052514 g       *ABS*	00000000 __ram_rwdata_end
000524f4 g     O .rwdata	00000008 alt_dev_list
0004dc40 g     F .text	00000100 write
00050964 g       *ABS*	00000000 __ram_rodata_end
0004d4c0 g     F .text	000000b8 fstat
0004bea0 g     F .text	000000e0 .hidden __ledf2
00046d74 g     F .text	00000140 __pow5mult
00048024 g     F .text	00001424 ___vfiprintf_internal_r
000540cc g     O .bss	00000004 __nlocale_changed
00040954 g     F .text	00000008 .hidden __umodsi3
000543fc g       *ABS*	00000000 end
0004f0b4 g     F .text	000001ac altera_avalon_uart_write
0004df8c g     F .text	000000c4 altera_avalon_jtag_uart_init
000401cc g     F .exceptions	00000060 alt_instruction_exception_entry
0005061c g       *ABS*	00000000 __CTOR_LIST__
00075b60 g       *ABS*	00000000 __alt_stack_pointer
0004e8e8 g     F .text	00000088 alt_avalon_timer_sc_init
0004e9d0 g     F .text	00000060 altera_avalon_uart_write_fd
0004d2b8 g     F .text	00000064 .hidden __clzsi2
0004ea30 g     F .text	00000050 altera_avalon_uart_close_fd
0004e65c g     F .text	00000218 altera_avalon_jtag_uart_write
00044d38 g     F .text	00000004 __sfp_lock_acquire
000461e0 g     F .text	000000e8 memchr
00040bcc g     F .text	000020fc ___vfprintf_internal_r
00044e9c g     F .text	000002f0 _free_r
00045828 g     F .text	00000010 __locale_mb_cur_max
00050454 g     F .text	00000194 __call_exitprocs
000540c8 g     O .bss	00000004 __mlocale_changed
000524e0 g     O .rwdata	00000004 __malloc_sbrk_base
0004022c g     F .text	0000003c _start
000540f0 g     O .bss	00000004 _alt_tick_rate
00040ad0 g     F .text	00000064 rand
00046eb4 g     F .text	00000148 __lshift
000540f4 g     O .bss	00000004 _alt_nticks
0004d98c g     F .text	00000104 read
0004ddac g     F .text	0000007c alt_sys_init
00050340 g     F .text	00000114 __register_exitproc
00046ae4 g     F .text	00000290 __multiply
0004e2fc g     F .text	00000068 altera_avalon_jtag_uart_close
0004095c g     F .text	00000028 .hidden __mulsi3
00050964 g       *ABS*	00000000 __ram_rwdata_start
0005061c g       *ABS*	00000000 __ram_rodata_start
000540fc g     O .bss	00000028 __malloc_current_mallinfo
00047370 g     F .text	0000013c __d2b
0004de28 g     F .text	00000060 altera_avalon_jtag_uart_read_fd
00050108 g     F .text	000000d4 alt_get_fd
0004f3a0 g     F .text	00000158 alt_busy_sleep
000494c8 g     F .text	00000054 _close_r
000502c4 g     F .text	0000007c memcmp
0004dee8 g     F .text	00000050 altera_avalon_jtag_uart_close_fd
000543fc g       *ABS*	00000000 __alt_stack_base
0004df38 g     F .text	00000054 altera_avalon_jtag_uart_ioctl_fd
00042cec g     F .text	00000130 __swsetup_r
0004b3bc g     F .text	00000980 .hidden __divdf3
00044bf8 g     F .text	00000118 __sfp
000475c4 g     F .text	00000078 __copybits
00050e00 g     O .rwdata	00000408 __malloc_av_
00044d44 g     F .text	00000004 __sinit_lock_release
0004bf80 g     F .text	0000086c .hidden __muldf3
00047d30 g     F .text	00000054 __sread
0004fff4 g     F .text	00000114 alt_find_file
0004f564 g     F .text	000000a4 alt_dev_llist_insert
0004d8fc g     F .text	00000020 __malloc_lock
0004db10 g     F .text	000000b0 sbrk
0004476c g     F .text	00000228 _fflush_r
0004951c g     F .text	000000d8 _calloc_r
000540c4 g       *ABS*	00000000 __bss_start
0004655c g     F .text	00000124 memset
00040268 g     F .text	000005c8 main
000540e8 g     O .bss	00000004 alt_envp
000540d0 g     O .bss	00000004 __malloc_max_total_mem
0004de88 g     F .text	00000060 altera_avalon_jtag_uart_write_fd
00049b9c g     F .text	0000001c __swbuf
00040ab8 g     F .text	00000018 srand
00040000 g       *ABS*	00000000 __alt_mem_RAM_jesus
00047e64 g     F .text	00000008 __sclose
00075b60 g       *ABS*	00000000 __alt_heap_limit
000496f4 g     F .text	00000014 fclose
00043044 g     F .text	00001728 _dtoa_r
00045a38 g     F .text	000007a8 _malloc_r
00049d2c g     F .text	00000030 __ascii_wctomb
00052500 g     O .rwdata	00000004 alt_errno
00045630 g     F .text	000000b8 _fwalk
0004089c g     F .text	00000054 .hidden __divsi3
00044d78 g     F .text	00000124 _malloc_trim_r
0005061c g       *ABS*	00000000 __CTOR_END__
00047e6c g     F .text	000000a4 strcmp
0005061c g       *ABS*	00000000 __flash_rodata_start
0005061c g       *ABS*	00000000 __DTOR_LIST__
0004bd3c g     F .text	00000084 .hidden __nedf2
0004dd78 g     F .text	00000034 alt_irq_init
0004da90 g     F .text	00000080 alt_release_fd
0005082c g     O .rodata	00000100 .hidden __clz_tab
000540c4 g     O .bss	00000004 _PathLocale
00050278 g     F .text	00000014 atexit
0004946c g     F .text	0000005c _write_r
00045858 g     F .text	0000001c setlocale
000524d8 g     O .rwdata	00000004 _impure_ptr
000540e0 g     O .bss	00000004 alt_argc
0004f664 g     F .text	0000005c _do_dtors
00045844 g     F .text	00000008 __locale_cjk_lang
00040020 g       .exceptions	00000000 alt_irq_entry
000471f4 g     F .text	00000060 __ulp
00044d60 g     F .text	00000018 __fp_unlock_all
000524ec g     O .rwdata	00000008 alt_fs_list
00040020 g       *ABS*	00000000 __ram_exceptions_start
00045874 g     F .text	0000000c localeconv
0004f6dc g     F .text	00000050 alt_ic_isr_register
00052514 g       *ABS*	00000000 _edata
0004e970 g     F .text	00000060 altera_avalon_uart_read_fd
000543fc g       *ABS*	00000000 _end
0004022c g       *ABS*	00000000 __ram_exceptions_end
0004e364 g     F .text	000000ec altera_avalon_jtag_uart_ioctl
0004f7cc g     F .text	000000a4 alt_ic_irq_disable
00047d8c g     F .text	0000007c __swrite
000524e4 g     O .rwdata	00000004 __malloc_trim_threshold
00045838 g     F .text	0000000c __locale_msgcharset
0005028c g     F .text	00000038 exit
000456e8 g     F .text	000000b8 _fwalk_reent
0004705c g     F .text	00000198 __mdiff
000408f0 g     F .text	0000005c .hidden __modsi3
00075b60 g       *ABS*	00000000 __alt_data_end
00040020 g     F .exceptions	00000000 alt_exception
00044d3c g     F .text	00000004 __sfp_lock_release
0004ede4 g     F .text	00000054 altera_avalon_uart_close
000505e8 g     F .text	00000034 _exit
0004f260 g     F .text	00000140 alt_alarm_start
00049db8 g     F .text	0000010c .hidden __muldi3
00045880 g     F .text	000001b8 __smakebuf_r
00040b34 g     F .text	00000098 strlen
0004fc48 g     F .text	00000160 open
0004bdc0 g     F .text	000000e0 .hidden __gedf2
000524e8 g     O .rwdata	00000004 __wctomb
0004800c g     F .text	00000018 __sprint_r
0004f6c0 g     F .text	0000001c alt_icache_flush_all
00054124 g     O .bss	000001d5 sr
00052508 g     O .rwdata	00000004 alt_priority_mask
0004f72c g     F .text	000000a0 alt_ic_irq_enable
00042cc8 g     F .text	00000024 __vfprintf_internal
0004ee88 g     F .text	000001dc altera_avalon_uart_read
00049d5c g     F .text	0000005c _wctomb_r
0004c7ec g     F .text	000008d0 .hidden __subdf3
000469f8 g     F .text	000000b0 __lo0bits
0005250c g     O .rwdata	00000008 alt_alarm_list
0004f608 g     F .text	0000005c _do_ctors
00049c54 g     F .text	000000d8 wcrtomb
0004d36c g     F .text	000000d8 close
0004d6d8 g     F .text	00000080 alt_load
0004988c g     F .text	00000058 fputwc
00000000  w      *UND*	00000000 free
00044d40 g     F .text	00000004 __sinit_lock_acquire
00046750 g     F .text	0000013c __multadd
00046728 g     F .text	00000028 _Bfree



Disassembly of section .entry:

00040000 <__reset>:
 * Jump to the _start entry point in the .text section if reset code
 * is allowed or if optimizing for RTL simulation.
 */
#if defined(ALT_ALLOW_CODE_AT_RESET) || defined(ALT_SIM_OPTIMIZE)
    /* Jump to the _start entry point in the .text section. */
    movhi r1, %hi(_start)
   40000:	00400134 	movhi	at,4
    ori r1, r1, %lo(_start)
   40004:	08408b14 	ori	at,at,556
    jmp r1
   40008:	0800683a 	jmp	at
	...

Disassembly of section .exceptions:

00040020 <alt_exception>:

#else /* ALT_EXCEPTION_STACK disabled */
        /* 
         * Reserve space on normal stack for registers about to be pushed.
         */
        addi  sp, sp, -76
   40020:	deffed04 	addi	sp,sp,-76
         * documentation for details).
         *
         * Leave a gap in the stack frame at 4(sp) for the muldiv handler to
         * store zero into.
         */
        stw   ra,  0(sp)
   40024:	dfc00015 	stw	ra,0(sp)
        stw   r1,   8(sp)
   40028:	d8400215 	stw	at,8(sp)
        stw   r2,  12(sp)
   4002c:	d8800315 	stw	r2,12(sp)
        stw   r3,  16(sp)
   40030:	d8c00415 	stw	r3,16(sp)
        stw   r4,  20(sp)
   40034:	d9000515 	stw	r4,20(sp)
        stw   r5,  24(sp)
   40038:	d9400615 	stw	r5,24(sp)
        stw   r6,  28(sp)
   4003c:	d9800715 	stw	r6,28(sp)
        stw   r7,  32(sp)
   40040:	d9c00815 	stw	r7,32(sp)
        rdctl r5, estatus   /* Read early to avoid usage stall */
   40044:	000b307a 	rdctl	r5,estatus
        stw   r8,  36(sp)
   40048:	da000915 	stw	r8,36(sp)
        stw   r9,  40(sp)
   4004c:	da400a15 	stw	r9,40(sp)
        stw   r10, 44(sp)
   40050:	da800b15 	stw	r10,44(sp)
        stw   r11, 48(sp)
   40054:	dac00c15 	stw	r11,48(sp)
        stw   r12, 52(sp)
   40058:	db000d15 	stw	r12,52(sp)
        stw   r13, 56(sp)
   4005c:	db400e15 	stw	r13,56(sp)
        stw   r14, 60(sp)
   40060:	db800f15 	stw	r14,60(sp)
        stw   r15, 64(sp)
   40064:	dbc01015 	stw	r15,64(sp)
        /*
         * ea-4 contains the address of the instruction being executed
         * when the exception occured. For interrupt exceptions, we will
         * will be re-issue the isntruction. Store it in 72(sp)
         */
        stw   r5,  68(sp)  /* estatus */
   40068:	d9401115 	stw	r5,68(sp)
        addi  r15, ea, -4  /* instruction that caused exception */
   4006c:	ebffff04 	addi	r15,ea,-4
        stw   r15,  72(sp)
   40070:	dbc01215 	stw	r15,72(sp)
#else
        /*
         * Test to see if the exception was a software exception or caused 
         * by an external interrupt, and vector accordingly.
         */
        rdctl r4, ipending
   40074:	0009313a 	rdctl	r4,ipending
        andi  r2, r5, 1
   40078:	2880004c 	andi	r2,r5,1
        beq   r2, zero, .Lnot_irq
   4007c:	10000326 	beq	r2,zero,4008c <alt_exception+0x6c>
        beq   r4, zero, .Lnot_irq
   40080:	20000226 	beq	r4,zero,4008c <alt_exception+0x6c>
        /*
         * Now that all necessary registers have been preserved, call 
         * alt_irq_handler() to process the interrupts.
         */

        call alt_irq_handler
   40084:	00400fc0 	call	400fc <alt_irq_handler>

        .section .exceptions.irqreturn, "xa"

        br    .Lexception_exit
   40088:	00000706 	br	400a8 <alt_exception+0x88>
         * upon completion, so we write ea (address of instruction *after*
         * the one where the exception occured) into 72(sp). The actual
         * instruction that caused the exception is written in r2, which these
         * handlers will utilize.
         */
        stw   ea,  72(sp)  /* Don't re-issue */
   4008c:	df401215 	stw	ea,72(sp)
        ldhu.n  r2, 0(r4)
        ldhu.n  r3, 2(r4)
        slli.n  r3, r3, 16
        or.n    r2, r2, r3 /* Instruction that caused exception */
#else
        ldw   r2, -4(ea)   /* Instruction that caused exception */
   40090:	e8bfff17 	ldw	r2,-4(ea)
         * debugger is present) or go into an infinite loop since the
         * handling behavior is undefined; in that case we will not return here.
         */

        /* Load exception-causing address as first argument (r4) */
        addi   r4, ea, -4
   40094:	e93fff04 	addi	r4,ea,-4

        /* Call the instruction-exception entry */
        call   alt_instruction_exception_entry
   40098:	00401cc0 	call	401cc <alt_instruction_exception_entry>
         * instruction
         *
         * Return code was 0: Skip. The instruction after the exception is
         * already stored in 72(sp).
         */
        bne   r2, r0, .Lexception_exit
   4009c:	1000021e 	bne	r2,zero,400a8 <alt_exception+0x88>

        /*
         * Otherwise, modify 72(sp) to re-issue the instruction that caused the
         * exception.
         */
        addi  r15, ea, -4  /* instruction that caused exception */
   400a0:	ebffff04 	addi	r15,ea,-4
        stw   r15,  72(sp)
   400a4:	dbc01215 	stw	r15,72(sp)
        /* 
         * Restore the saved registers, so that all general purpose registers 
         * have been restored to their state at the time the interrupt occured.
         */

        ldw   r5,  68(sp)
   400a8:	d9401117 	ldw	r5,68(sp)
        ldw   ea,  72(sp)  /* This becomes the PC once eret is executed */
   400ac:	df401217 	ldw	ea,72(sp)
        ldw   ra,   0(sp)
   400b0:	dfc00017 	ldw	ra,0(sp)

        wrctl estatus, r5
   400b4:	2801707a 	wrctl	estatus,r5

        ldw   r1,   8(sp)
   400b8:	d8400217 	ldw	at,8(sp)
        ldw   r2,  12(sp)
   400bc:	d8800317 	ldw	r2,12(sp)
        ldw   r3,  16(sp)
   400c0:	d8c00417 	ldw	r3,16(sp)
        ldw   r4,  20(sp)
   400c4:	d9000517 	ldw	r4,20(sp)
        ldw   r5,  24(sp)
   400c8:	d9400617 	ldw	r5,24(sp)
        ldw   r6,  28(sp)
   400cc:	d9800717 	ldw	r6,28(sp)
        ldw   r7,  32(sp)
   400d0:	d9c00817 	ldw	r7,32(sp)

#if defined(ALT_EXCEPTION_STACK) && defined(ALT_STACK_CHECK)
        ldw   et, %gprel(alt_exception_old_stack_limit)(gp)
#endif

        ldw   r8,  36(sp)
   400d4:	da000917 	ldw	r8,36(sp)
        ldw   r9,  40(sp)
   400d8:	da400a17 	ldw	r9,40(sp)
        ldw   r10, 44(sp)
   400dc:	da800b17 	ldw	r10,44(sp)
        ldw   r11, 48(sp)
   400e0:	dac00c17 	ldw	r11,48(sp)
        ldw   r12, 52(sp)
   400e4:	db000d17 	ldw	r12,52(sp)
        ldw   r13, 56(sp)
   400e8:	db400e17 	ldw	r13,56(sp)
        ldw   r14, 60(sp)
   400ec:	db800f17 	ldw	r14,60(sp)
        ldw   r15, 64(sp)
   400f0:	dbc01017 	ldw	r15,64(sp)
        stw   et, %gprel(alt_stack_limit_value)(gp)
        stw   zero, %gprel(alt_exception_old_stack_limit)(gp)
#endif /* ALT_STACK_CHECK */
        ldw   sp,  76(sp)
#else /* ALT_EXCEPTION_STACK disabled */
        addi  sp, sp, 76
   400f4:	dec01304 	addi	sp,sp,76

        /*
         * Return to the interrupted instruction.
         */

        eret
   400f8:	ef80083a 	eret

000400fc <alt_irq_handler>:
 * instruction is present if the macro ALT_CI_INTERRUPT_VECTOR defined.
 */

void alt_irq_handler (void) __attribute__ ((section (".exceptions")));
void alt_irq_handler (void)
{
   400fc:	defff904 	addi	sp,sp,-28
   40100:	dfc00615 	stw	ra,24(sp)
   40104:	df000515 	stw	fp,20(sp)
   40108:	df000504 	addi	fp,sp,20
  
  /*
   * Notify the operating system that we are at interrupt level.
   */ 
  
  ALT_OS_INT_ENTER();
   4010c:	0001883a 	nop
#ifndef NIOS2_EIC_PRESENT
static ALT_INLINE alt_u32 ALT_ALWAYS_INLINE alt_irq_pending (void)
{
  alt_u32 active;

  NIOS2_READ_IPENDING (active);
   40110:	0005313a 	rdctl	r2,ipending
   40114:	e0bffe15 	stw	r2,-8(fp)

  return active;
   40118:	e0bffe17 	ldw	r2,-8(fp)
   * Consider the case where the high priority interupt is asserted during
   * the interrupt entry sequence for a lower priority interrupt to see why
   * this is the case.
   */

  active = alt_irq_pending ();
   4011c:	e0bffb15 	stw	r2,-20(fp)

  do
  {
    i = 0;
   40120:	e03ffd15 	stw	zero,-12(fp)
    mask = 1;
   40124:	00800044 	movi	r2,1
   40128:	e0bffc15 	stw	r2,-16(fp)
     * called to clear the interrupt condition.
     */

    do
    {
      if (active & mask)
   4012c:	e0fffb17 	ldw	r3,-20(fp)
   40130:	e0bffc17 	ldw	r2,-16(fp)
   40134:	1884703a 	and	r2,r3,r2
   40138:	10001426 	beq	r2,zero,4018c <alt_irq_handler+0x90>
      { 
#ifdef ALT_ENHANCED_INTERRUPT_API_PRESENT
        alt_irq[i].handler(alt_irq[i].context); 
   4013c:	00800174 	movhi	r2,5
   40140:	1090bf04 	addi	r2,r2,17148
   40144:	e0fffd17 	ldw	r3,-12(fp)
   40148:	180690fa 	slli	r3,r3,3
   4014c:	10c5883a 	add	r2,r2,r3
   40150:	10c00017 	ldw	r3,0(r2)
   40154:	00800174 	movhi	r2,5
   40158:	1090bf04 	addi	r2,r2,17148
   4015c:	e13ffd17 	ldw	r4,-12(fp)
   40160:	200890fa 	slli	r4,r4,3
   40164:	1105883a 	add	r2,r2,r4
   40168:	10800104 	addi	r2,r2,4
   4016c:	10800017 	ldw	r2,0(r2)
   40170:	1009883a 	mov	r4,r2
   40174:	183ee83a 	callr	r3
#else
        alt_irq[i].handler(alt_irq[i].context, i); 
#endif
        break;
   40178:	0001883a 	nop
#ifndef NIOS2_EIC_PRESENT
static ALT_INLINE alt_u32 ALT_ALWAYS_INLINE alt_irq_pending (void)
{
  alt_u32 active;

  NIOS2_READ_IPENDING (active);
   4017c:	0005313a 	rdctl	r2,ipending
   40180:	e0bfff15 	stw	r2,-4(fp)

  return active;
   40184:	e0bfff17 	ldw	r2,-4(fp)
   40188:	00000706 	br	401a8 <alt_irq_handler+0xac>
      }
      mask <<= 1;
   4018c:	e0bffc17 	ldw	r2,-16(fp)
   40190:	1085883a 	add	r2,r2,r2
   40194:	e0bffc15 	stw	r2,-16(fp)
      i++;
   40198:	e0bffd17 	ldw	r2,-12(fp)
   4019c:	10800044 	addi	r2,r2,1
   401a0:	e0bffd15 	stw	r2,-12(fp)

    } while (1);
   401a4:	003fe106 	br	4012c <__alt_data_end+0xfffca5cc>

    active = alt_irq_pending ();
   401a8:	e0bffb15 	stw	r2,-20(fp)
    
  } while (active);
   401ac:	e0bffb17 	ldw	r2,-20(fp)
   401b0:	103fdb1e 	bne	r2,zero,40120 <__alt_data_end+0xfffca5c0>

  /*
   * Notify the operating system that interrupt processing is complete.
   */ 

  ALT_OS_INT_EXIT();
   401b4:	0001883a 	nop
}
   401b8:	e037883a 	mov	sp,fp
   401bc:	dfc00117 	ldw	ra,4(sp)
   401c0:	df000017 	ldw	fp,0(sp)
   401c4:	dec00204 	addi	sp,sp,8
   401c8:	f800283a 	ret

000401cc <alt_instruction_exception_entry>:
 * that handler if it has been registered. Absent a handler, it will
 * break break or hang as discussed below.
 */
int 
alt_instruction_exception_entry (alt_u32 exception_pc)
{
   401cc:	defffb04 	addi	sp,sp,-20
   401d0:	dfc00415 	stw	ra,16(sp)
   401d4:	df000315 	stw	fp,12(sp)
   401d8:	df000304 	addi	fp,sp,12
   401dc:	e13fff15 	stw	r4,-4(fp)
  cause = ( (cause & NIOS2_EXCEPTION_REG_CAUSE_MASK) >>
              NIOS2_EXCEPTION_REG_CAUSE_OFST );

  NIOS2_READ_BADADDR(badaddr);
#else
  cause = NIOS2_EXCEPTION_CAUSE_NOT_PRESENT;
   401e0:	00bfffc4 	movi	r2,-1
   401e4:	e0bffd15 	stw	r2,-12(fp)
  badaddr = 0;
   401e8:	e03ffe15 	stw	zero,-8(fp)
#endif /* NIOS2_HAS_EXTRA_EXCEPTION_INFO */

  if(alt_instruction_exception_handler) {
   401ec:	d0a70917 	ldw	r2,-25564(gp)
   401f0:	10000726 	beq	r2,zero,40210 <alt_instruction_exception_entry+0x44>
     * Call handler. Its return value indicates whether the exception-causing
     * instruction should be re-issued. The code that called us,
     * alt_eceptions_entry.S, will look at this value and adjust the ea
     * register as necessary
     */
    return alt_instruction_exception_handler(cause, exception_pc, badaddr);
   401f4:	d0a70917 	ldw	r2,-25564(gp)
   401f8:	e0fffd17 	ldw	r3,-12(fp)
   401fc:	1809883a 	mov	r4,r3
   40200:	e17fff17 	ldw	r5,-4(fp)
   40204:	e1bffe17 	ldw	r6,-8(fp)
   40208:	103ee83a 	callr	r2
   4020c:	00000206 	br	40218 <alt_instruction_exception_entry+0x4c>
   *    (a peripheral which negates its interrupt output before its
   *    interrupt handler has been executed will cause spurious interrupts)
   */
  else {
#ifdef NIOS2_HAS_DEBUG_STUB
    NIOS2_BREAK();
   40210:	003da03a 	break	0
      ;
#endif /* NIOS2_HAS_DEBUG_STUB */
  }

  /* We should not get here. Remove compiler warning. */
  return NIOS2_EXCEPTION_RETURN_REISSUE_INST;
   40214:	0005883a 	mov	r2,zero
}
   40218:	e037883a 	mov	sp,fp
   4021c:	dfc00117 	ldw	ra,4(sp)
   40220:	df000017 	ldw	fp,0(sp)
   40224:	dec00204 	addi	sp,sp,8
   40228:	f800283a 	ret

Disassembly of section .text:

0004022c <_start>:

    /*
     * Now that the caches are initialized, set up the stack pointer and global pointer.
     * The values provided by the linker are assumed to be correctly aligned.
     */
    movhi sp, %hi(__alt_stack_pointer)
   4022c:	06c001f4 	movhi	sp,7
    ori sp, sp, %lo(__alt_stack_pointer)
   40230:	ded6d814 	ori	sp,sp,23392
    movhi gp, %hi(_gp)
   40234:	06800174 	movhi	gp,5
    ori gp, gp, %lo(_gp)
   40238:	d6a93514 	ori	gp,gp,42196
 */
#ifndef ALT_SIM_OPTIMIZE
    /* Log that the BSS is about to be cleared. */
    ALT_LOG_PUTS(alt_log_msg_bss)

    movhi r2, %hi(__bss_start)
   4023c:	00800174 	movhi	r2,5
    ori r2, r2, %lo(__bss_start)
   40240:	10903114 	ori	r2,r2,16580

    movhi r3, %hi(__bss_end)
   40244:	00c00174 	movhi	r3,5
    ori r3, r3, %lo(__bss_end)
   40248:	18d0ff14 	ori	r3,r3,17404

    beq r2, r3, 1f
   4024c:	10c00326 	beq	r2,r3,4025c <_start+0x30>

0:
    stw zero, (r2)
   40250:	10000015 	stw	zero,0(r2)
    addi r2, r2, 4
   40254:	10800104 	addi	r2,r2,4
    bltu r2, r3, 0b
   40258:	10fffd36 	bltu	r2,r3,40250 <__alt_data_end+0xfffca6f0>
     * section aren't defined until alt_load() has been called).
     */
    mov   et, zero
#endif

    call alt_load
   4025c:	004d6d80 	call	4d6d8 <alt_load>

    /* Log that alt_main is about to be called. */
    ALT_LOG_PUTS(alt_log_msg_alt_main)

    /* Call the C entry point. It should never return. */
    call alt_main
   40260:	004d8840 	call	4d884 <alt_main>

00040264 <alt_after_alt_main>:

    /* Wait in infinite loop in case alt_main does return. */
alt_after_alt_main:
    br alt_after_alt_main
   40264:	003fff06 	br	40264 <__alt_data_end+0xfffca704>

00040268 <main>:

unsigned char sr[469];
#define TIME 3

int main()
{//                 Mi  Si  Sol Do  La  Mi
   40268:	defffe04 	addi	sp,sp,-8
   4026c:	dfc00115 	stw	ra,4(sp)
   40270:	df000015 	stw	fp,0(sp)
   40274:	d839883a 	mov	fp,sp
   40278:	023ffff4 	movhi	r8,65535
   4027c:	42214a04 	addi	r8,r8,-31448
   40280:	da37883a 	add	sp,sp,r8
	int p_notas[6]={143,156,197,263,351,469};
   40284:	008023c4 	movi	r2,143
   40288:	00fffff4 	movhi	r3,65535
   4028c:	18e14f04 	addi	r3,r3,-31428
   40290:	1f07883a 	add	r3,r3,fp
   40294:	18800015 	stw	r2,0(r3)
   40298:	00802704 	movi	r2,156
   4029c:	013ffff4 	movhi	r4,65535
   402a0:	21215004 	addi	r4,r4,-31424
   402a4:	2709883a 	add	r4,r4,fp
   402a8:	20800015 	stw	r2,0(r4)
   402ac:	00803144 	movi	r2,197
   402b0:	00fffff4 	movhi	r3,65535
   402b4:	18e15104 	addi	r3,r3,-31420
   402b8:	1f07883a 	add	r3,r3,fp
   402bc:	18800015 	stw	r2,0(r3)
   402c0:	008041c4 	movi	r2,263
   402c4:	013ffff4 	movhi	r4,65535
   402c8:	21215204 	addi	r4,r4,-31416
   402cc:	2709883a 	add	r4,r4,fp
   402d0:	20800015 	stw	r2,0(r4)
   402d4:	008057c4 	movi	r2,351
   402d8:	00fffff4 	movhi	r3,65535
   402dc:	18e15304 	addi	r3,r3,-31412
   402e0:	1f07883a 	add	r3,r3,fp
   402e4:	18800015 	stw	r2,0(r3)
   402e8:	00807544 	movi	r2,469
   402ec:	013ffff4 	movhi	r4,65535
   402f0:	21215404 	addi	r4,r4,-31408
   402f4:	2709883a 	add	r4,r4,fp
   402f8:	20800015 	stw	r2,0(r4)
	int Fs = 16000;
   402fc:	008fa004 	movi	r2,16000
   40300:	00fffff4 	movhi	r3,65535
   40304:	18e14d04 	addi	r3,r3,-31436
   40308:	1f07883a 	add	r3,r3,fp
   4030c:	18800015 	stw	r2,0(r3)
	int ptrout = 2;
   40310:	00800084 	movi	r2,2
   40314:	013ffff4 	movhi	r4,65535
   40318:	21214a04 	addi	r4,r4,-31448
   4031c:	2709883a 	add	r4,r4,fp
   40320:	20800015 	stw	r2,0(r4)
	int ptrin = 1;
   40324:	00800044 	movi	r2,1
   40328:	00fffff4 	movhi	r3,65535
   4032c:	18e14b04 	addi	r3,r3,-31444
   40330:	1f07883a 	add	r3,r3,fp
   40334:	18800015 	stw	r2,0(r3)
	short sr[469];

	short out[16000*TIME];
	unsigned char sw_val=0;
   40338:	013ffff4 	movhi	r4,65535
   4033c:	21214e04 	addi	r4,r4,-31432
   40340:	2709883a 	add	r4,r4,fp
   40344:	20000005 	stb	zero,0(r4)
	int i=0;
   40348:	00bffff4 	movhi	r2,65535
   4034c:	10a14c04 	addi	r2,r2,-31440
   40350:	1705883a 	add	r2,r2,fp
   40354:	10000015 	stw	zero,0(r2)
	char sw3=0;
   40358:	00fffff4 	movhi	r3,65535
   4035c:	18e14e44 	addi	r3,r3,-31431
   40360:	1f07883a 	add	r3,r3,fp
   40364:	18000005 	stb	zero,0(r3)
	printf("Hello from Nios II!\n");
   40368:	01000174 	movhi	r4,5
   4036c:	21018704 	addi	r4,r4,1564
   40370:	0040aa40 	call	40aa4 <puts>
	while(1)
	{
		sw_val=IORD(SW_BASE,0);
   40374:	00800234 	movhi	r2,8
   40378:	10841804 	addi	r2,r2,4192
   4037c:	10800037 	ldwio	r2,0(r2)
   40380:	013ffff4 	movhi	r4,65535
   40384:	21214e04 	addi	r4,r4,-31432
   40388:	2709883a 	add	r4,r4,fp
   4038c:	20800005 	stb	r2,0(r4)
		sw3=(sw_val>>3) &1;
   40390:	00fffff4 	movhi	r3,65535
   40394:	18e14e04 	addi	r3,r3,-31432
   40398:	1f07883a 	add	r3,r3,fp
   4039c:	18800003 	ldbu	r2,0(r3)
   403a0:	1004d0fa 	srli	r2,r2,3
   403a4:	1080004c 	andi	r2,r2,1
   403a8:	013ffff4 	movhi	r4,65535
   403ac:	21214e44 	addi	r4,r4,-31431
   403b0:	2709883a 	add	r4,r4,fp
   403b4:	20800005 	stb	r2,0(r4)
		sw_val=sw_val & 7;
   403b8:	00fffff4 	movhi	r3,65535
   403bc:	18e14e04 	addi	r3,r3,-31432
   403c0:	1f07883a 	add	r3,r3,fp
   403c4:	18800003 	ldbu	r2,0(r3)
   403c8:	108001cc 	andi	r2,r2,7
   403cc:	013ffff4 	movhi	r4,65535
   403d0:	21214e04 	addi	r4,r4,-31432
   403d4:	2709883a 	add	r4,r4,fp
   403d8:	20800005 	stb	r2,0(r4)
		sw_val=(sw_val%6);
   403dc:	00fffff4 	movhi	r3,65535
   403e0:	18e14e04 	addi	r3,r3,-31432
   403e4:	1f07883a 	add	r3,r3,fp
   403e8:	18800003 	ldbu	r2,0(r3)
   403ec:	1009883a 	mov	r4,r2
   403f0:	01400184 	movi	r5,6
   403f4:	00409540 	call	40954 <__umodsi3>
   403f8:	013ffff4 	movhi	r4,65535
   403fc:	21214e04 	addi	r4,r4,-31432
   40400:	2709883a 	add	r4,r4,fp
   40404:	20800005 	stb	r2,0(r4)

		if(sw3){
   40408:	00fffff4 	movhi	r3,65535
   4040c:	18e14e44 	addi	r3,r3,-31431
   40410:	1f07883a 	add	r3,r3,fp
   40414:	18800007 	ldb	r2,0(r3)
   40418:	10010426 	beq	r2,zero,4082c <main+0x5c4>
			// Inicializacion Vector sr
			printf("init\n");
   4041c:	01000174 	movhi	r4,5
   40420:	21018c04 	addi	r4,r4,1584
   40424:	0040aa40 	call	40aa4 <puts>
			for(i=0;i<p_notas[sw_val];i++)
   40428:	013ffff4 	movhi	r4,65535
   4042c:	21214c04 	addi	r4,r4,-31440
   40430:	2709883a 	add	r4,r4,fp
   40434:	20000015 	stw	zero,0(r4)
   40438:	00001906 	br	404a0 <main+0x238>
			{

				sr[i]=rand()*255;
   4043c:	0040ad00 	call	40ad0 <rand>
   40440:	1009883a 	mov	r4,r2
   40444:	01403fc4 	movi	r5,255
   40448:	004095c0 	call	4095c <__mulsi3>
   4044c:	1007883a 	mov	r3,r2
   40450:	013ffff4 	movhi	r4,65535
   40454:	21214c04 	addi	r4,r4,-31440
   40458:	2709883a 	add	r4,r4,fp
   4045c:	20800017 	ldw	r2,0(r4)
   40460:	1085883a 	add	r2,r2,r2
   40464:	013ffff4 	movhi	r4,65535
   40468:	21214a04 	addi	r4,r4,-31448
   4046c:	2709883a 	add	r4,r4,fp
   40470:	2085883a 	add	r2,r4,r2
   40474:	10800b04 	addi	r2,r2,44
   40478:	10c0000d 	sth	r3,0(r2)
		sw_val=(sw_val%6);

		if(sw3){
			// Inicializacion Vector sr
			printf("init\n");
			for(i=0;i<p_notas[sw_val];i++)
   4047c:	00fffff4 	movhi	r3,65535
   40480:	18e14c04 	addi	r3,r3,-31440
   40484:	1f07883a 	add	r3,r3,fp
   40488:	18800017 	ldw	r2,0(r3)
   4048c:	10800044 	addi	r2,r2,1
   40490:	013ffff4 	movhi	r4,65535
   40494:	21214c04 	addi	r4,r4,-31440
   40498:	2709883a 	add	r4,r4,fp
   4049c:	20800015 	stw	r2,0(r4)
   404a0:	00fffff4 	movhi	r3,65535
   404a4:	18e14e04 	addi	r3,r3,-31432
   404a8:	1f07883a 	add	r3,r3,fp
   404ac:	18800003 	ldbu	r2,0(r3)
   404b0:	1085883a 	add	r2,r2,r2
   404b4:	1085883a 	add	r2,r2,r2
   404b8:	013ffff4 	movhi	r4,65535
   404bc:	21214a04 	addi	r4,r4,-31448
   404c0:	2709883a 	add	r4,r4,fp
   404c4:	2085883a 	add	r2,r4,r2
   404c8:	10800504 	addi	r2,r2,20
   404cc:	10800017 	ldw	r2,0(r2)
   404d0:	013ffff4 	movhi	r4,65535
   404d4:	21214c04 	addi	r4,r4,-31440
   404d8:	2709883a 	add	r4,r4,fp
   404dc:	20c00017 	ldw	r3,0(r4)
   404e0:	18bfd616 	blt	r3,r2,4043c <__alt_data_end+0xfffca8dc>
			{

				sr[i]=rand()*255;
			}
			printf("generando muestras para %d\n",sw_val);
   404e4:	00fffff4 	movhi	r3,65535
   404e8:	18e14e04 	addi	r3,r3,-31432
   404ec:	1f07883a 	add	r3,r3,fp
   404f0:	18800003 	ldbu	r2,0(r3)
   404f4:	01000174 	movhi	r4,5
   404f8:	21018e04 	addi	r4,r4,1592
   404fc:	100b883a 	mov	r5,r2
   40500:	00409b00 	call	409b0 <printf>
			for (i=0;i<Fs*TIME;i++)
   40504:	013ffff4 	movhi	r4,65535
   40508:	21214c04 	addi	r4,r4,-31440
   4050c:	2709883a 	add	r4,r4,fp
   40510:	20000015 	stw	zero,0(r4)
   40514:	00008906 	br	4073c <main+0x4d4>
			{

				out[i]=sr[ptrin];
   40518:	00fffff4 	movhi	r3,65535
   4051c:	18e14b04 	addi	r3,r3,-31444
   40520:	1f07883a 	add	r3,r3,fp
   40524:	18800017 	ldw	r2,0(r3)
   40528:	1085883a 	add	r2,r2,r2
   4052c:	013ffff4 	movhi	r4,65535
   40530:	21214a04 	addi	r4,r4,-31448
   40534:	2709883a 	add	r4,r4,fp
   40538:	2085883a 	add	r2,r4,r2
   4053c:	10800b04 	addi	r2,r2,44
   40540:	10c0000b 	ldhu	r3,0(r2)
   40544:	013ffff4 	movhi	r4,65535
   40548:	21214c04 	addi	r4,r4,-31440
   4054c:	2709883a 	add	r4,r4,fp
   40550:	20800017 	ldw	r2,0(r4)
   40554:	1085883a 	add	r2,r2,r2
   40558:	013ffff4 	movhi	r4,65535
   4055c:	21214a04 	addi	r4,r4,-31448
   40560:	2709883a 	add	r4,r4,fp
   40564:	2085883a 	add	r2,r4,r2
   40568:	1080f584 	addi	r2,r2,982
   4056c:	10c0000d 	sth	r3,0(r2)
				sr[ptrin] = (sr[ptrin]+sr[ptrout])/2;
   40570:	00fffff4 	movhi	r3,65535
   40574:	18e14b04 	addi	r3,r3,-31444
   40578:	1f07883a 	add	r3,r3,fp
   4057c:	18800017 	ldw	r2,0(r3)
   40580:	1085883a 	add	r2,r2,r2
   40584:	013ffff4 	movhi	r4,65535
   40588:	21214a04 	addi	r4,r4,-31448
   4058c:	2709883a 	add	r4,r4,fp
   40590:	2085883a 	add	r2,r4,r2
   40594:	10800b04 	addi	r2,r2,44
   40598:	1080000b 	ldhu	r2,0(r2)
   4059c:	10ffffcc 	andi	r3,r2,65535
   405a0:	18e0001c 	xori	r3,r3,32768
   405a4:	18e00004 	addi	r3,r3,-32768
   405a8:	013ffff4 	movhi	r4,65535
   405ac:	21214a04 	addi	r4,r4,-31448
   405b0:	2709883a 	add	r4,r4,fp
   405b4:	20800017 	ldw	r2,0(r4)
   405b8:	1085883a 	add	r2,r2,r2
   405bc:	013ffff4 	movhi	r4,65535
   405c0:	21214a04 	addi	r4,r4,-31448
   405c4:	2709883a 	add	r4,r4,fp
   405c8:	2085883a 	add	r2,r4,r2
   405cc:	10800b04 	addi	r2,r2,44
   405d0:	1080000b 	ldhu	r2,0(r2)
   405d4:	10bfffcc 	andi	r2,r2,65535
   405d8:	10a0001c 	xori	r2,r2,32768
   405dc:	10a00004 	addi	r2,r2,-32768
   405e0:	1885883a 	add	r2,r3,r2
   405e4:	1006d7fa 	srli	r3,r2,31
   405e8:	1885883a 	add	r2,r3,r2
   405ec:	1005d07a 	srai	r2,r2,1
   405f0:	1007883a 	mov	r3,r2
   405f4:	013ffff4 	movhi	r4,65535
   405f8:	21214b04 	addi	r4,r4,-31444
   405fc:	2709883a 	add	r4,r4,fp
   40600:	20800017 	ldw	r2,0(r4)
   40604:	1085883a 	add	r2,r2,r2
   40608:	013ffff4 	movhi	r4,65535
   4060c:	21214a04 	addi	r4,r4,-31448
   40610:	2709883a 	add	r4,r4,fp
   40614:	2085883a 	add	r2,r4,r2
   40618:	10800b04 	addi	r2,r2,44
   4061c:	10c0000d 	sth	r3,0(r2)
				if (ptrin==p_notas[sw_val])
   40620:	00fffff4 	movhi	r3,65535
   40624:	18e14e04 	addi	r3,r3,-31432
   40628:	1f07883a 	add	r3,r3,fp
   4062c:	18800003 	ldbu	r2,0(r3)
   40630:	1085883a 	add	r2,r2,r2
   40634:	1085883a 	add	r2,r2,r2
   40638:	013ffff4 	movhi	r4,65535
   4063c:	21214a04 	addi	r4,r4,-31448
   40640:	2709883a 	add	r4,r4,fp
   40644:	2085883a 	add	r2,r4,r2
   40648:	10800504 	addi	r2,r2,20
   4064c:	10c00017 	ldw	r3,0(r2)
   40650:	013ffff4 	movhi	r4,65535
   40654:	21214b04 	addi	r4,r4,-31444
   40658:	2709883a 	add	r4,r4,fp
   4065c:	20800017 	ldw	r2,0(r4)
   40660:	1880051e 	bne	r3,r2,40678 <main+0x410>
				{
					ptrin=0;
   40664:	00bffff4 	movhi	r2,65535
   40668:	10a14b04 	addi	r2,r2,-31444
   4066c:	1705883a 	add	r2,r2,fp
   40670:	10000015 	stw	zero,0(r2)
   40674:	00000906 	br	4069c <main+0x434>
				}
				else
				{
					ptrin=ptrin+1;
   40678:	00fffff4 	movhi	r3,65535
   4067c:	18e14b04 	addi	r3,r3,-31444
   40680:	1f07883a 	add	r3,r3,fp
   40684:	18800017 	ldw	r2,0(r3)
   40688:	10800044 	addi	r2,r2,1
   4068c:	013ffff4 	movhi	r4,65535
   40690:	21214b04 	addi	r4,r4,-31444
   40694:	2709883a 	add	r4,r4,fp
   40698:	20800015 	stw	r2,0(r4)
				}
				if (ptrout==p_notas[sw_val])
   4069c:	00fffff4 	movhi	r3,65535
   406a0:	18e14e04 	addi	r3,r3,-31432
   406a4:	1f07883a 	add	r3,r3,fp
   406a8:	18800003 	ldbu	r2,0(r3)
   406ac:	1085883a 	add	r2,r2,r2
   406b0:	1085883a 	add	r2,r2,r2
   406b4:	013ffff4 	movhi	r4,65535
   406b8:	21214a04 	addi	r4,r4,-31448
   406bc:	2709883a 	add	r4,r4,fp
   406c0:	2085883a 	add	r2,r4,r2
   406c4:	10800504 	addi	r2,r2,20
   406c8:	10c00017 	ldw	r3,0(r2)
   406cc:	013ffff4 	movhi	r4,65535
   406d0:	21214a04 	addi	r4,r4,-31448
   406d4:	2709883a 	add	r4,r4,fp
   406d8:	20800017 	ldw	r2,0(r4)
   406dc:	1880051e 	bne	r3,r2,406f4 <main+0x48c>
				{
					ptrout=0;
   406e0:	00bffff4 	movhi	r2,65535
   406e4:	10a14a04 	addi	r2,r2,-31448
   406e8:	1705883a 	add	r2,r2,fp
   406ec:	10000015 	stw	zero,0(r2)
   406f0:	00000906 	br	40718 <main+0x4b0>
				}
				else
					{
					ptrout=ptrout+1;
   406f4:	00fffff4 	movhi	r3,65535
   406f8:	18e14a04 	addi	r3,r3,-31448
   406fc:	1f07883a 	add	r3,r3,fp
   40700:	18800017 	ldw	r2,0(r3)
   40704:	10800044 	addi	r2,r2,1
   40708:	013ffff4 	movhi	r4,65535
   4070c:	21214a04 	addi	r4,r4,-31448
   40710:	2709883a 	add	r4,r4,fp
   40714:	20800015 	stw	r2,0(r4)
			{

				sr[i]=rand()*255;
			}
			printf("generando muestras para %d\n",sw_val);
			for (i=0;i<Fs*TIME;i++)
   40718:	00fffff4 	movhi	r3,65535
   4071c:	18e14c04 	addi	r3,r3,-31440
   40720:	1f07883a 	add	r3,r3,fp
   40724:	18800017 	ldw	r2,0(r3)
   40728:	10800044 	addi	r2,r2,1
   4072c:	013ffff4 	movhi	r4,65535
   40730:	21214c04 	addi	r4,r4,-31440
   40734:	2709883a 	add	r4,r4,fp
   40738:	20800015 	stw	r2,0(r4)
   4073c:	00bffff4 	movhi	r2,65535
   40740:	10a14d04 	addi	r2,r2,-31436
   40744:	1705883a 	add	r2,r2,fp
   40748:	10c00017 	ldw	r3,0(r2)
   4074c:	1805883a 	mov	r2,r3
   40750:	1085883a 	add	r2,r2,r2
   40754:	10c5883a 	add	r2,r2,r3
   40758:	013ffff4 	movhi	r4,65535
   4075c:	21214c04 	addi	r4,r4,-31440
   40760:	2709883a 	add	r4,r4,fp
   40764:	20c00017 	ldw	r3,0(r4)
   40768:	18bf6b16 	blt	r3,r2,40518 <__alt_data_end+0xfffca9b8>
					ptrout=ptrout+1;
					}
				//printf("%d,",sr[ptrin]);

			}
			 printf("escuchando\n");
   4076c:	01000174 	movhi	r4,5
   40770:	21019504 	addi	r4,r4,1620
   40774:	0040aa40 	call	40aa4 <puts>
			 int delay;
			 for(i=0; i<Fs*TIME;i++){
   40778:	00bffff4 	movhi	r2,65535
   4077c:	10a14c04 	addi	r2,r2,-31440
   40780:	1705883a 	add	r2,r2,fp
   40784:	10000015 	stw	zero,0(r2)
   40788:	00001c06 	br	407fc <main+0x594>
				 IOWR(DIV_FREQ_BASE,0, out[i]);
   4078c:	00fffff4 	movhi	r3,65535
   40790:	18e14c04 	addi	r3,r3,-31440
   40794:	1f07883a 	add	r3,r3,fp
   40798:	18800017 	ldw	r2,0(r3)
   4079c:	1085883a 	add	r2,r2,r2
   407a0:	013ffff4 	movhi	r4,65535
   407a4:	21214a04 	addi	r4,r4,-31448
   407a8:	2709883a 	add	r4,r4,fp
   407ac:	2085883a 	add	r2,r4,r2
   407b0:	1080f584 	addi	r2,r2,982
   407b4:	1080000b 	ldhu	r2,0(r2)
   407b8:	10ffffcc 	andi	r3,r2,65535
   407bc:	18e0001c 	xori	r3,r3,32768
   407c0:	18e00004 	addi	r3,r3,-32768
   407c4:	00800234 	movhi	r2,8
   407c8:	10841004 	addi	r2,r2,4160
   407cc:	10c00035 	stwio	r3,0(r2)
				 usleep(10);
   407d0:	01000284 	movi	r4,10
   407d4:	004dbc00 	call	4dbc0 <usleep>
				//printf("%d,",sr[ptrin]);

			}
			 printf("escuchando\n");
			 int delay;
			 for(i=0; i<Fs*TIME;i++){
   407d8:	00fffff4 	movhi	r3,65535
   407dc:	18e14c04 	addi	r3,r3,-31440
   407e0:	1f07883a 	add	r3,r3,fp
   407e4:	18800017 	ldw	r2,0(r3)
   407e8:	10800044 	addi	r2,r2,1
   407ec:	013ffff4 	movhi	r4,65535
   407f0:	21214c04 	addi	r4,r4,-31440
   407f4:	2709883a 	add	r4,r4,fp
   407f8:	20800015 	stw	r2,0(r4)
   407fc:	00bffff4 	movhi	r2,65535
   40800:	10a14d04 	addi	r2,r2,-31436
   40804:	1705883a 	add	r2,r2,fp
   40808:	10c00017 	ldw	r3,0(r2)
   4080c:	1805883a 	mov	r2,r3
   40810:	1085883a 	add	r2,r2,r2
   40814:	10c5883a 	add	r2,r2,r3
   40818:	013ffff4 	movhi	r4,65535
   4081c:	21214c04 	addi	r4,r4,-31440
   40820:	2709883a 	add	r4,r4,fp
   40824:	20c00017 	ldw	r3,0(r4)
   40828:	18bfd816 	blt	r3,r2,4078c <__alt_data_end+0xfffcac2c>
				// for(delay=0;delay<15;delay++);
			 }
		}

	//	IOWR(DIV_FREQ_BASE,0,DIV_FREQ_val);	//	usleep(100000);
	}
   4082c:	003ed106 	br	40374 <__alt_data_end+0xfffca814>

00040830 <udivmodsi4>:
   40830:	2900182e 	bgeu	r5,r4,40894 <udivmodsi4+0x64>
   40834:	28001716 	blt	r5,zero,40894 <udivmodsi4+0x64>
   40838:	00800804 	movi	r2,32
   4083c:	00c00044 	movi	r3,1
   40840:	00000206 	br	4084c <udivmodsi4+0x1c>
   40844:	10001126 	beq	r2,zero,4088c <udivmodsi4+0x5c>
   40848:	28000516 	blt	r5,zero,40860 <udivmodsi4+0x30>
   4084c:	294b883a 	add	r5,r5,r5
   40850:	10bfffc4 	addi	r2,r2,-1
   40854:	18c7883a 	add	r3,r3,r3
   40858:	293ffa36 	bltu	r5,r4,40844 <__alt_data_end+0xfffcace4>
   4085c:	18000b26 	beq	r3,zero,4088c <udivmodsi4+0x5c>
   40860:	0005883a 	mov	r2,zero
   40864:	21400236 	bltu	r4,r5,40870 <udivmodsi4+0x40>
   40868:	2149c83a 	sub	r4,r4,r5
   4086c:	10c4b03a 	or	r2,r2,r3
   40870:	1806d07a 	srli	r3,r3,1
   40874:	280ad07a 	srli	r5,r5,1
   40878:	183ffa1e 	bne	r3,zero,40864 <__alt_data_end+0xfffcad04>
   4087c:	3000011e 	bne	r6,zero,40884 <udivmodsi4+0x54>
   40880:	f800283a 	ret
   40884:	2005883a 	mov	r2,r4
   40888:	f800283a 	ret
   4088c:	0005883a 	mov	r2,zero
   40890:	003ffa06 	br	4087c <__alt_data_end+0xfffcad1c>
   40894:	00c00044 	movi	r3,1
   40898:	003ff106 	br	40860 <__alt_data_end+0xfffcad00>

0004089c <__divsi3>:
   4089c:	defffe04 	addi	sp,sp,-8
   408a0:	dfc00115 	stw	ra,4(sp)
   408a4:	dc000015 	stw	r16,0(sp)
   408a8:	20000b16 	blt	r4,zero,408d8 <__divsi3+0x3c>
   408ac:	0021883a 	mov	r16,zero
   408b0:	28000c16 	blt	r5,zero,408e4 <__divsi3+0x48>
   408b4:	000d883a 	mov	r6,zero
   408b8:	00408300 	call	40830 <udivmodsi4>
   408bc:	0407c83a 	sub	r3,zero,r16
   408c0:	1884f03a 	xor	r2,r3,r2
   408c4:	1405883a 	add	r2,r2,r16
   408c8:	dfc00117 	ldw	ra,4(sp)
   408cc:	dc000017 	ldw	r16,0(sp)
   408d0:	dec00204 	addi	sp,sp,8
   408d4:	f800283a 	ret
   408d8:	0109c83a 	sub	r4,zero,r4
   408dc:	04000044 	movi	r16,1
   408e0:	283ff40e 	bge	r5,zero,408b4 <__alt_data_end+0xfffcad54>
   408e4:	014bc83a 	sub	r5,zero,r5
   408e8:	8400005c 	xori	r16,r16,1
   408ec:	003ff106 	br	408b4 <__alt_data_end+0xfffcad54>

000408f0 <__modsi3>:
   408f0:	defffd04 	addi	sp,sp,-12
   408f4:	dfc00215 	stw	ra,8(sp)
   408f8:	dc400115 	stw	r17,4(sp)
   408fc:	dc000015 	stw	r16,0(sp)
   40900:	20000c16 	blt	r4,zero,40934 <__modsi3+0x44>
   40904:	0023883a 	mov	r17,zero
   40908:	0021883a 	mov	r16,zero
   4090c:	28000d16 	blt	r5,zero,40944 <__modsi3+0x54>
   40910:	01800044 	movi	r6,1
   40914:	00408300 	call	40830 <udivmodsi4>
   40918:	1404f03a 	xor	r2,r2,r16
   4091c:	8885883a 	add	r2,r17,r2
   40920:	dfc00217 	ldw	ra,8(sp)
   40924:	dc400117 	ldw	r17,4(sp)
   40928:	dc000017 	ldw	r16,0(sp)
   4092c:	dec00304 	addi	sp,sp,12
   40930:	f800283a 	ret
   40934:	0109c83a 	sub	r4,zero,r4
   40938:	04400044 	movi	r17,1
   4093c:	043fffc4 	movi	r16,-1
   40940:	283ff30e 	bge	r5,zero,40910 <__alt_data_end+0xfffcadb0>
   40944:	014bc83a 	sub	r5,zero,r5
   40948:	003ff106 	br	40910 <__alt_data_end+0xfffcadb0>

0004094c <__udivsi3>:
   4094c:	000d883a 	mov	r6,zero
   40950:	00408301 	jmpi	40830 <udivmodsi4>

00040954 <__umodsi3>:
   40954:	01800044 	movi	r6,1
   40958:	00408301 	jmpi	40830 <udivmodsi4>

0004095c <__mulsi3>:
   4095c:	0005883a 	mov	r2,zero
   40960:	20000726 	beq	r4,zero,40980 <__mulsi3+0x24>
   40964:	20c0004c 	andi	r3,r4,1
   40968:	2008d07a 	srli	r4,r4,1
   4096c:	18000126 	beq	r3,zero,40974 <__mulsi3+0x18>
   40970:	1145883a 	add	r2,r2,r5
   40974:	294b883a 	add	r5,r5,r5
   40978:	203ffa1e 	bne	r4,zero,40964 <__alt_data_end+0xfffcae04>
   4097c:	f800283a 	ret
   40980:	f800283a 	ret

00040984 <_printf_r>:
   40984:	defffd04 	addi	sp,sp,-12
   40988:	dfc00015 	stw	ra,0(sp)
   4098c:	d9800115 	stw	r6,4(sp)
   40990:	d9c00215 	stw	r7,8(sp)
   40994:	280d883a 	mov	r6,r5
   40998:	21400217 	ldw	r5,8(r4)
   4099c:	d9c00104 	addi	r7,sp,4
   409a0:	0040bcc0 	call	40bcc <___vfprintf_internal_r>
   409a4:	dfc00017 	ldw	ra,0(sp)
   409a8:	dec00304 	addi	sp,sp,12
   409ac:	f800283a 	ret

000409b0 <printf>:
   409b0:	defffc04 	addi	sp,sp,-16
   409b4:	dfc00015 	stw	ra,0(sp)
   409b8:	d9400115 	stw	r5,4(sp)
   409bc:	d9800215 	stw	r6,8(sp)
   409c0:	d9c00315 	stw	r7,12(sp)
   409c4:	00800174 	movhi	r2,5
   409c8:	10893604 	addi	r2,r2,9432
   409cc:	10800017 	ldw	r2,0(r2)
   409d0:	200b883a 	mov	r5,r4
   409d4:	d9800104 	addi	r6,sp,4
   409d8:	11000217 	ldw	r4,8(r2)
   409dc:	0042cc80 	call	42cc8 <__vfprintf_internal>
   409e0:	dfc00017 	ldw	ra,0(sp)
   409e4:	dec00404 	addi	sp,sp,16
   409e8:	f800283a 	ret

000409ec <_puts_r>:
   409ec:	defff604 	addi	sp,sp,-40
   409f0:	dc000715 	stw	r16,28(sp)
   409f4:	2021883a 	mov	r16,r4
   409f8:	2809883a 	mov	r4,r5
   409fc:	dc400815 	stw	r17,32(sp)
   40a00:	dfc00915 	stw	ra,36(sp)
   40a04:	2823883a 	mov	r17,r5
   40a08:	0040b340 	call	40b34 <strlen>
   40a0c:	00c00174 	movhi	r3,5
   40a10:	18c93604 	addi	r3,r3,9432
   40a14:	18c00017 	ldw	r3,0(r3)
   40a18:	11000044 	addi	r4,r2,1
   40a1c:	d8800115 	stw	r2,4(sp)
   40a20:	18c00217 	ldw	r3,8(r3)
   40a24:	01400174 	movhi	r5,5
   40a28:	29419804 	addi	r5,r5,1632
   40a2c:	1880030b 	ldhu	r2,12(r3)
   40a30:	d9400215 	stw	r5,8(sp)
   40a34:	d9000615 	stw	r4,24(sp)
   40a38:	01400044 	movi	r5,1
   40a3c:	01000084 	movi	r4,2
   40a40:	d9000515 	stw	r4,20(sp)
   40a44:	dc400015 	stw	r17,0(sp)
   40a48:	d9400315 	stw	r5,12(sp)
   40a4c:	dec00415 	stw	sp,16(sp)
   40a50:	1108000c 	andi	r4,r2,8192
   40a54:	2000061e 	bne	r4,zero,40a70 <_puts_r+0x84>
   40a58:	19401917 	ldw	r5,100(r3)
   40a5c:	0137ffc4 	movi	r4,-8193
   40a60:	10880014 	ori	r2,r2,8192
   40a64:	2908703a 	and	r4,r5,r4
   40a68:	1880030d 	sth	r2,12(r3)
   40a6c:	19001915 	stw	r4,100(r3)
   40a70:	81400217 	ldw	r5,8(r16)
   40a74:	8009883a 	mov	r4,r16
   40a78:	d9800404 	addi	r6,sp,16
   40a7c:	004518c0 	call	4518c <__sfvwrite_r>
   40a80:	1000061e 	bne	r2,zero,40a9c <_puts_r+0xb0>
   40a84:	00800284 	movi	r2,10
   40a88:	dfc00917 	ldw	ra,36(sp)
   40a8c:	dc400817 	ldw	r17,32(sp)
   40a90:	dc000717 	ldw	r16,28(sp)
   40a94:	dec00a04 	addi	sp,sp,40
   40a98:	f800283a 	ret
   40a9c:	00bfffc4 	movi	r2,-1
   40aa0:	003ff906 	br	40a88 <__alt_data_end+0xfffcaf28>

00040aa4 <puts>:
   40aa4:	00800174 	movhi	r2,5
   40aa8:	10893604 	addi	r2,r2,9432
   40aac:	200b883a 	mov	r5,r4
   40ab0:	11000017 	ldw	r4,0(r2)
   40ab4:	00409ec1 	jmpi	409ec <_puts_r>

00040ab8 <srand>:
   40ab8:	00800174 	movhi	r2,5
   40abc:	10893604 	addi	r2,r2,9432
   40ac0:	10800017 	ldw	r2,0(r2)
   40ac4:	11002915 	stw	r4,164(r2)
   40ac8:	10002a15 	stw	zero,168(r2)
   40acc:	f800283a 	ret

00040ad0 <rand>:
   40ad0:	00800174 	movhi	r2,5
   40ad4:	defffe04 	addi	sp,sp,-8
   40ad8:	10893604 	addi	r2,r2,9432
   40adc:	dc000015 	stw	r16,0(sp)
   40ae0:	14000017 	ldw	r16,0(r2)
   40ae4:	dfc00115 	stw	ra,4(sp)
   40ae8:	01932574 	movhi	r6,19605
   40aec:	81002917 	ldw	r4,164(r16)
   40af0:	81402a17 	ldw	r5,168(r16)
   40af4:	01d614b4 	movhi	r7,22610
   40af8:	319fcb44 	addi	r6,r6,32557
   40afc:	39fd0b44 	addi	r7,r7,-3027
   40b00:	0049db80 	call	49db8 <__muldi3>
   40b04:	11000044 	addi	r4,r2,1
   40b08:	2085803a 	cmpltu	r2,r4,r2
   40b0c:	10c7883a 	add	r3,r2,r3
   40b10:	00a00034 	movhi	r2,32768
   40b14:	10bfffc4 	addi	r2,r2,-1
   40b18:	1884703a 	and	r2,r3,r2
   40b1c:	81002915 	stw	r4,164(r16)
   40b20:	80c02a15 	stw	r3,168(r16)
   40b24:	dfc00117 	ldw	ra,4(sp)
   40b28:	dc000017 	ldw	r16,0(sp)
   40b2c:	dec00204 	addi	sp,sp,8
   40b30:	f800283a 	ret

00040b34 <strlen>:
   40b34:	208000cc 	andi	r2,r4,3
   40b38:	10002026 	beq	r2,zero,40bbc <strlen+0x88>
   40b3c:	20800007 	ldb	r2,0(r4)
   40b40:	10002026 	beq	r2,zero,40bc4 <strlen+0x90>
   40b44:	2005883a 	mov	r2,r4
   40b48:	00000206 	br	40b54 <strlen+0x20>
   40b4c:	10c00007 	ldb	r3,0(r2)
   40b50:	18001826 	beq	r3,zero,40bb4 <strlen+0x80>
   40b54:	10800044 	addi	r2,r2,1
   40b58:	10c000cc 	andi	r3,r2,3
   40b5c:	183ffb1e 	bne	r3,zero,40b4c <__alt_data_end+0xfffcafec>
   40b60:	10c00017 	ldw	r3,0(r2)
   40b64:	01ffbff4 	movhi	r7,65279
   40b68:	39ffbfc4 	addi	r7,r7,-257
   40b6c:	00ca303a 	nor	r5,zero,r3
   40b70:	01a02074 	movhi	r6,32897
   40b74:	19c7883a 	add	r3,r3,r7
   40b78:	31a02004 	addi	r6,r6,-32640
   40b7c:	1946703a 	and	r3,r3,r5
   40b80:	1986703a 	and	r3,r3,r6
   40b84:	1800091e 	bne	r3,zero,40bac <strlen+0x78>
   40b88:	10800104 	addi	r2,r2,4
   40b8c:	10c00017 	ldw	r3,0(r2)
   40b90:	19cb883a 	add	r5,r3,r7
   40b94:	00c6303a 	nor	r3,zero,r3
   40b98:	28c6703a 	and	r3,r5,r3
   40b9c:	1986703a 	and	r3,r3,r6
   40ba0:	183ff926 	beq	r3,zero,40b88 <__alt_data_end+0xfffcb028>
   40ba4:	00000106 	br	40bac <strlen+0x78>
   40ba8:	10800044 	addi	r2,r2,1
   40bac:	10c00007 	ldb	r3,0(r2)
   40bb0:	183ffd1e 	bne	r3,zero,40ba8 <__alt_data_end+0xfffcb048>
   40bb4:	1105c83a 	sub	r2,r2,r4
   40bb8:	f800283a 	ret
   40bbc:	2005883a 	mov	r2,r4
   40bc0:	003fe706 	br	40b60 <__alt_data_end+0xfffcb000>
   40bc4:	0005883a 	mov	r2,zero
   40bc8:	f800283a 	ret

00040bcc <___vfprintf_internal_r>:
   40bcc:	defeb604 	addi	sp,sp,-1320
   40bd0:	dfc14915 	stw	ra,1316(sp)
   40bd4:	ddc14715 	stw	r23,1308(sp)
   40bd8:	dd814615 	stw	r22,1304(sp)
   40bdc:	202f883a 	mov	r23,r4
   40be0:	282d883a 	mov	r22,r5
   40be4:	d9812a15 	stw	r6,1192(sp)
   40be8:	d9c12d15 	stw	r7,1204(sp)
   40bec:	df014815 	stw	fp,1312(sp)
   40bf0:	dd414515 	stw	r21,1300(sp)
   40bf4:	dd014415 	stw	r20,1296(sp)
   40bf8:	dcc14315 	stw	r19,1292(sp)
   40bfc:	dc814215 	stw	r18,1288(sp)
   40c00:	dc414115 	stw	r17,1284(sp)
   40c04:	dc014015 	stw	r16,1280(sp)
   40c08:	004584c0 	call	4584c <_localeconv_r>
   40c0c:	10800017 	ldw	r2,0(r2)
   40c10:	1009883a 	mov	r4,r2
   40c14:	d8813515 	stw	r2,1236(sp)
   40c18:	0040b340 	call	40b34 <strlen>
   40c1c:	d8813815 	stw	r2,1248(sp)
   40c20:	b8000226 	beq	r23,zero,40c2c <___vfprintf_internal_r+0x60>
   40c24:	b8800e17 	ldw	r2,56(r23)
   40c28:	10010526 	beq	r2,zero,41040 <___vfprintf_internal_r+0x474>
   40c2c:	b0c0030b 	ldhu	r3,12(r22)
   40c30:	1908000c 	andi	r4,r3,8192
   40c34:	1805883a 	mov	r2,r3
   40c38:	2000071e 	bne	r4,zero,40c58 <___vfprintf_internal_r+0x8c>
   40c3c:	b1001917 	ldw	r4,100(r22)
   40c40:	18880014 	ori	r2,r3,8192
   40c44:	00f7ffc4 	movi	r3,-8193
   40c48:	20c8703a 	and	r4,r4,r3
   40c4c:	b080030d 	sth	r2,12(r22)
   40c50:	1007883a 	mov	r3,r2
   40c54:	b1001915 	stw	r4,100(r22)
   40c58:	1100020c 	andi	r4,r2,8
   40c5c:	2000a826 	beq	r4,zero,40f00 <___vfprintf_internal_r+0x334>
   40c60:	b1000417 	ldw	r4,16(r22)
   40c64:	2000a626 	beq	r4,zero,40f00 <___vfprintf_internal_r+0x334>
   40c68:	1080068c 	andi	r2,r2,26
   40c6c:	01000284 	movi	r4,10
   40c70:	1100ac26 	beq	r2,r4,40f24 <___vfprintf_internal_r+0x358>
   40c74:	d8c10e04 	addi	r3,sp,1080
   40c78:	d9010dc4 	addi	r4,sp,1079
   40c7c:	d9400404 	addi	r5,sp,16
   40c80:	05000174 	movhi	r20,5
   40c84:	1905c83a 	sub	r2,r3,r4
   40c88:	a501a984 	addi	r20,r20,1702
   40c8c:	d8c12815 	stw	r3,1184(sp)
   40c90:	d9012915 	stw	r4,1188(sp)
   40c94:	d9411e15 	stw	r5,1144(sp)
   40c98:	d8012015 	stw	zero,1152(sp)
   40c9c:	d8011f15 	stw	zero,1148(sp)
   40ca0:	d8013315 	stw	zero,1228(sp)
   40ca4:	d8013715 	stw	zero,1244(sp)
   40ca8:	d8013915 	stw	zero,1252(sp)
   40cac:	d8013b15 	stw	zero,1260(sp)
   40cb0:	d8013a15 	stw	zero,1256(sp)
   40cb4:	d8012f15 	stw	zero,1212(sp)
   40cb8:	2811883a 	mov	r8,r5
   40cbc:	d8813c15 	stw	r2,1264(sp)
   40cc0:	d8c12a17 	ldw	r3,1192(sp)
   40cc4:	18800007 	ldb	r2,0(r3)
   40cc8:	10021326 	beq	r2,zero,41518 <___vfprintf_internal_r+0x94c>
   40ccc:	00c00944 	movi	r3,37
   40cd0:	dc012a17 	ldw	r16,1192(sp)
   40cd4:	10c0021e 	bne	r2,r3,40ce0 <___vfprintf_internal_r+0x114>
   40cd8:	00001606 	br	40d34 <___vfprintf_internal_r+0x168>
   40cdc:	10c08526 	beq	r2,r3,40ef4 <___vfprintf_internal_r+0x328>
   40ce0:	84000044 	addi	r16,r16,1
   40ce4:	80800007 	ldb	r2,0(r16)
   40ce8:	103ffc1e 	bne	r2,zero,40cdc <__alt_data_end+0xfffcb17c>
   40cec:	d9012a17 	ldw	r4,1192(sp)
   40cf0:	8123c83a 	sub	r17,r16,r4
   40cf4:	88000f26 	beq	r17,zero,40d34 <___vfprintf_internal_r+0x168>
   40cf8:	d8812a17 	ldw	r2,1192(sp)
   40cfc:	d8c12017 	ldw	r3,1152(sp)
   40d00:	44400115 	stw	r17,4(r8)
   40d04:	40800015 	stw	r2,0(r8)
   40d08:	d8811f17 	ldw	r2,1148(sp)
   40d0c:	1c47883a 	add	r3,r3,r17
   40d10:	d8c12015 	stw	r3,1152(sp)
   40d14:	10800044 	addi	r2,r2,1
   40d18:	d8811f15 	stw	r2,1148(sp)
   40d1c:	00c001c4 	movi	r3,7
   40d20:	1880b516 	blt	r3,r2,40ff8 <___vfprintf_internal_r+0x42c>
   40d24:	42000204 	addi	r8,r8,8
   40d28:	d8c12f17 	ldw	r3,1212(sp)
   40d2c:	1c47883a 	add	r3,r3,r17
   40d30:	d8c12f15 	stw	r3,1212(sp)
   40d34:	80800007 	ldb	r2,0(r16)
   40d38:	1000b626 	beq	r2,zero,41014 <___vfprintf_internal_r+0x448>
   40d3c:	80800044 	addi	r2,r16,1
   40d40:	84000047 	ldb	r16,1(r16)
   40d44:	0027883a 	mov	r19,zero
   40d48:	0039883a 	mov	fp,zero
   40d4c:	dcc12b05 	stb	r19,1196(sp)
   40d50:	d8012785 	stb	zero,1182(sp)
   40d54:	027fffc4 	movi	r9,-1
   40d58:	d8012e15 	stw	zero,1208(sp)
   40d5c:	04401604 	movi	r17,88
   40d60:	04800244 	movi	r18,9
   40d64:	da012a15 	stw	r8,1192(sp)
   40d68:	e027883a 	mov	r19,fp
   40d6c:	17000044 	addi	fp,r2,1
   40d70:	80bff804 	addi	r2,r16,-32
   40d74:	88831236 	bltu	r17,r2,419c0 <___vfprintf_internal_r+0xdf4>
   40d78:	100490ba 	slli	r2,r2,2
   40d7c:	01000134 	movhi	r4,4
   40d80:	21036404 	addi	r4,r4,3472
   40d84:	1105883a 	add	r2,r2,r4
   40d88:	10800017 	ldw	r2,0(r2)
   40d8c:	1000683a 	jmp	r2
   40d90:	000418dc 	xori	zero,zero,4195
   40d94:	000419c0 	call	419c <__alt_mem_RAM_jesus-0x3be64>
   40d98:	000419c0 	call	419c <__alt_mem_RAM_jesus-0x3be64>
   40d9c:	000418f8 	rdprs	zero,zero,4195
   40da0:	000419c0 	call	419c <__alt_mem_RAM_jesus-0x3be64>
   40da4:	000419c0 	call	419c <__alt_mem_RAM_jesus-0x3be64>
   40da8:	000419c0 	call	419c <__alt_mem_RAM_jesus-0x3be64>
   40dac:	000419c0 	call	419c <__alt_mem_RAM_jesus-0x3be64>
   40db0:	000419c0 	call	419c <__alt_mem_RAM_jesus-0x3be64>
   40db4:	000419c0 	call	419c <__alt_mem_RAM_jesus-0x3be64>
   40db8:	00041908 	cmpgei	zero,zero,4196
   40dbc:	00041930 	cmpltui	zero,zero,4196
   40dc0:	000419c0 	call	419c <__alt_mem_RAM_jesus-0x3be64>
   40dc4:	0004104c 	andi	zero,zero,4161
   40dc8:	0004105c 	xori	zero,zero,4161
   40dcc:	000419c0 	call	419c <__alt_mem_RAM_jesus-0x3be64>
   40dd0:	000410ac 	andhi	zero,zero,4162
   40dd4:	000410bc 	xorhi	zero,zero,4162
   40dd8:	000410bc 	xorhi	zero,zero,4162
   40ddc:	000410bc 	xorhi	zero,zero,4162
   40de0:	000410bc 	xorhi	zero,zero,4162
   40de4:	000410bc 	xorhi	zero,zero,4162
   40de8:	000410bc 	xorhi	zero,zero,4162
   40dec:	000410bc 	xorhi	zero,zero,4162
   40df0:	000410bc 	xorhi	zero,zero,4162
   40df4:	000410bc 	xorhi	zero,zero,4162
   40df8:	000419c0 	call	419c <__alt_mem_RAM_jesus-0x3be64>
   40dfc:	000419c0 	call	419c <__alt_mem_RAM_jesus-0x3be64>
   40e00:	000419c0 	call	419c <__alt_mem_RAM_jesus-0x3be64>
   40e04:	000419c0 	call	419c <__alt_mem_RAM_jesus-0x3be64>
   40e08:	000419c0 	call	419c <__alt_mem_RAM_jesus-0x3be64>
   40e0c:	000419c0 	call	419c <__alt_mem_RAM_jesus-0x3be64>
   40e10:	000419c0 	call	419c <__alt_mem_RAM_jesus-0x3be64>
   40e14:	000419c0 	call	419c <__alt_mem_RAM_jesus-0x3be64>
   40e18:	000419c0 	call	419c <__alt_mem_RAM_jesus-0x3be64>
   40e1c:	000419c0 	call	419c <__alt_mem_RAM_jesus-0x3be64>
   40e20:	00041100 	call	4110 <__alt_mem_RAM_jesus-0x3bef0>
   40e24:	00041520 	cmpeqi	zero,zero,4180
   40e28:	000419c0 	call	419c <__alt_mem_RAM_jesus-0x3be64>
   40e2c:	00041520 	cmpeqi	zero,zero,4180
   40e30:	000419c0 	call	419c <__alt_mem_RAM_jesus-0x3be64>
   40e34:	000419c0 	call	419c <__alt_mem_RAM_jesus-0x3be64>
   40e38:	000419c0 	call	419c <__alt_mem_RAM_jesus-0x3be64>
   40e3c:	000419c0 	call	419c <__alt_mem_RAM_jesus-0x3be64>
   40e40:	000415c8 	cmpgei	zero,zero,4183
   40e44:	000419c0 	call	419c <__alt_mem_RAM_jesus-0x3be64>
   40e48:	000419c0 	call	419c <__alt_mem_RAM_jesus-0x3be64>
   40e4c:	000415d8 	cmpnei	zero,zero,4183
   40e50:	000419c0 	call	419c <__alt_mem_RAM_jesus-0x3be64>
   40e54:	000419c0 	call	419c <__alt_mem_RAM_jesus-0x3be64>
   40e58:	000419c0 	call	419c <__alt_mem_RAM_jesus-0x3be64>
   40e5c:	000419c0 	call	419c <__alt_mem_RAM_jesus-0x3be64>
   40e60:	000419c0 	call	419c <__alt_mem_RAM_jesus-0x3be64>
   40e64:	0004161c 	xori	zero,zero,4184
   40e68:	000419c0 	call	419c <__alt_mem_RAM_jesus-0x3be64>
   40e6c:	000419c0 	call	419c <__alt_mem_RAM_jesus-0x3be64>
   40e70:	00041654 	movui	zero,4185
   40e74:	000419c0 	call	419c <__alt_mem_RAM_jesus-0x3be64>
   40e78:	000419c0 	call	419c <__alt_mem_RAM_jesus-0x3be64>
   40e7c:	000419c0 	call	419c <__alt_mem_RAM_jesus-0x3be64>
   40e80:	000419c0 	call	419c <__alt_mem_RAM_jesus-0x3be64>
   40e84:	000419c0 	call	419c <__alt_mem_RAM_jesus-0x3be64>
   40e88:	000419c0 	call	419c <__alt_mem_RAM_jesus-0x3be64>
   40e8c:	000419c0 	call	419c <__alt_mem_RAM_jesus-0x3be64>
   40e90:	000419c0 	call	419c <__alt_mem_RAM_jesus-0x3be64>
   40e94:	000419c0 	call	419c <__alt_mem_RAM_jesus-0x3be64>
   40e98:	000419c0 	call	419c <__alt_mem_RAM_jesus-0x3be64>
   40e9c:	00041890 	cmplti	zero,zero,4194
   40ea0:	0004183c 	xorhi	zero,zero,4192
   40ea4:	00041520 	cmpeqi	zero,zero,4180
   40ea8:	00041520 	cmpeqi	zero,zero,4180
   40eac:	00041520 	cmpeqi	zero,zero,4180
   40eb0:	00041880 	call	4188 <__alt_mem_RAM_jesus-0x3be78>
   40eb4:	0004183c 	xorhi	zero,zero,4192
   40eb8:	000419c0 	call	419c <__alt_mem_RAM_jesus-0x3be64>
   40ebc:	000419c0 	call	419c <__alt_mem_RAM_jesus-0x3be64>
   40ec0:	00041758 	cmpnei	zero,zero,4189
   40ec4:	000419c0 	call	419c <__alt_mem_RAM_jesus-0x3be64>
   40ec8:	00041770 	cmpltui	zero,zero,4189
   40ecc:	000417b0 	cmpltui	zero,zero,4190
   40ed0:	000417f0 	cmpltui	zero,zero,4191
   40ed4:	000416bc 	xorhi	zero,zero,4186
   40ed8:	000419c0 	call	419c <__alt_mem_RAM_jesus-0x3be64>
   40edc:	00041944 	movi	zero,4197
   40ee0:	000419c0 	call	419c <__alt_mem_RAM_jesus-0x3be64>
   40ee4:	000416cc 	andi	zero,zero,4187
   40ee8:	000419c0 	call	419c <__alt_mem_RAM_jesus-0x3be64>
   40eec:	000419c0 	call	419c <__alt_mem_RAM_jesus-0x3be64>
   40ef0:	0004170c 	andi	zero,zero,4188
   40ef4:	d9412a17 	ldw	r5,1192(sp)
   40ef8:	8163c83a 	sub	r17,r16,r5
   40efc:	003f7d06 	br	40cf4 <__alt_data_end+0xfffcb194>
   40f00:	b809883a 	mov	r4,r23
   40f04:	b00b883a 	mov	r5,r22
   40f08:	0042cec0 	call	42cec <__swsetup_r>
   40f0c:	10002d1e 	bne	r2,zero,40fc4 <___vfprintf_internal_r+0x3f8>
   40f10:	b0c0030b 	ldhu	r3,12(r22)
   40f14:	01000284 	movi	r4,10
   40f18:	1805883a 	mov	r2,r3
   40f1c:	1080068c 	andi	r2,r2,26
   40f20:	113f541e 	bne	r2,r4,40c74 <__alt_data_end+0xfffcb114>
   40f24:	b080038b 	ldhu	r2,14(r22)
   40f28:	113fffcc 	andi	r4,r2,65535
   40f2c:	2120001c 	xori	r4,r4,32768
   40f30:	21200004 	addi	r4,r4,-32768
   40f34:	203f4f16 	blt	r4,zero,40c74 <__alt_data_end+0xfffcb114>
   40f38:	b2c01917 	ldw	r11,100(r22)
   40f3c:	b2800717 	ldw	r10,28(r22)
   40f40:	b2400917 	ldw	r9,36(r22)
   40f44:	d9812a17 	ldw	r6,1192(sp)
   40f48:	d9c12d17 	ldw	r7,1204(sp)
   40f4c:	02010004 	movi	r8,1024
   40f50:	18ffff4c 	andi	r3,r3,65533
   40f54:	d881078d 	sth	r2,1054(sp)
   40f58:	b809883a 	mov	r4,r23
   40f5c:	d8800404 	addi	r2,sp,16
   40f60:	d9410404 	addi	r5,sp,1040
   40f64:	d8c1070d 	sth	r3,1052(sp)
   40f68:	dac11d15 	stw	r11,1140(sp)
   40f6c:	da810b15 	stw	r10,1068(sp)
   40f70:	da410d15 	stw	r9,1076(sp)
   40f74:	d8810415 	stw	r2,1040(sp)
   40f78:	d8810815 	stw	r2,1056(sp)
   40f7c:	da010615 	stw	r8,1048(sp)
   40f80:	da010915 	stw	r8,1060(sp)
   40f84:	d8010a15 	stw	zero,1064(sp)
   40f88:	0040bcc0 	call	40bcc <___vfprintf_internal_r>
   40f8c:	1021883a 	mov	r16,r2
   40f90:	10000416 	blt	r2,zero,40fa4 <___vfprintf_internal_r+0x3d8>
   40f94:	b809883a 	mov	r4,r23
   40f98:	d9410404 	addi	r5,sp,1040
   40f9c:	004476c0 	call	4476c <_fflush_r>
   40fa0:	1007301e 	bne	r2,zero,42c64 <___vfprintf_internal_r+0x2098>
   40fa4:	d881070b 	ldhu	r2,1052(sp)
   40fa8:	1080100c 	andi	r2,r2,64
   40fac:	10000326 	beq	r2,zero,40fbc <___vfprintf_internal_r+0x3f0>
   40fb0:	b080030b 	ldhu	r2,12(r22)
   40fb4:	10801014 	ori	r2,r2,64
   40fb8:	b080030d 	sth	r2,12(r22)
   40fbc:	8005883a 	mov	r2,r16
   40fc0:	00000106 	br	40fc8 <___vfprintf_internal_r+0x3fc>
   40fc4:	00bfffc4 	movi	r2,-1
   40fc8:	dfc14917 	ldw	ra,1316(sp)
   40fcc:	df014817 	ldw	fp,1312(sp)
   40fd0:	ddc14717 	ldw	r23,1308(sp)
   40fd4:	dd814617 	ldw	r22,1304(sp)
   40fd8:	dd414517 	ldw	r21,1300(sp)
   40fdc:	dd014417 	ldw	r20,1296(sp)
   40fe0:	dcc14317 	ldw	r19,1292(sp)
   40fe4:	dc814217 	ldw	r18,1288(sp)
   40fe8:	dc414117 	ldw	r17,1284(sp)
   40fec:	dc014017 	ldw	r16,1280(sp)
   40ff0:	dec14a04 	addi	sp,sp,1320
   40ff4:	f800283a 	ret
   40ff8:	b809883a 	mov	r4,r23
   40ffc:	b00b883a 	mov	r5,r22
   41000:	d9811e04 	addi	r6,sp,1144
   41004:	004800c0 	call	4800c <__sprint_r>
   41008:	1000081e 	bne	r2,zero,4102c <___vfprintf_internal_r+0x460>
   4100c:	da000404 	addi	r8,sp,16
   41010:	003f4506 	br	40d28 <__alt_data_end+0xfffcb1c8>
   41014:	d8812017 	ldw	r2,1152(sp)
   41018:	10000426 	beq	r2,zero,4102c <___vfprintf_internal_r+0x460>
   4101c:	b809883a 	mov	r4,r23
   41020:	b00b883a 	mov	r5,r22
   41024:	d9811e04 	addi	r6,sp,1144
   41028:	004800c0 	call	4800c <__sprint_r>
   4102c:	b080030b 	ldhu	r2,12(r22)
   41030:	1080100c 	andi	r2,r2,64
   41034:	103fe31e 	bne	r2,zero,40fc4 <__alt_data_end+0xfffcb464>
   41038:	d8812f17 	ldw	r2,1212(sp)
   4103c:	003fe206 	br	40fc8 <__alt_data_end+0xfffcb468>
   41040:	b809883a 	mov	r4,r23
   41044:	0044d280 	call	44d28 <__sinit>
   41048:	003ef806 	br	40c2c <__alt_data_end+0xfffcb0cc>
   4104c:	e005883a 	mov	r2,fp
   41050:	9cc00114 	ori	r19,r19,4
   41054:	e4000007 	ldb	r16,0(fp)
   41058:	003f4406 	br	40d6c <__alt_data_end+0xfffcb20c>
   4105c:	e4000007 	ldb	r16,0(fp)
   41060:	01000a84 	movi	r4,42
   41064:	e0800044 	addi	r2,fp,1
   41068:	8106f626 	beq	r16,r4,42c44 <___vfprintf_internal_r+0x2078>
   4106c:	857ff404 	addi	r21,r16,-48
   41070:	1039883a 	mov	fp,r2
   41074:	0013883a 	mov	r9,zero
   41078:	957f3d36 	bltu	r18,r21,40d70 <__alt_data_end+0xfffcb210>
   4107c:	0009883a 	mov	r4,zero
   41080:	01400284 	movi	r5,10
   41084:	004095c0 	call	4095c <__mulsi3>
   41088:	e4000007 	ldb	r16,0(fp)
   4108c:	a889883a 	add	r4,r21,r2
   41090:	e7000044 	addi	fp,fp,1
   41094:	857ff404 	addi	r21,r16,-48
   41098:	957ff92e 	bgeu	r18,r21,41080 <__alt_data_end+0xfffcb520>
   4109c:	2013883a 	mov	r9,r4
   410a0:	203f330e 	bge	r4,zero,40d70 <__alt_data_end+0xfffcb210>
   410a4:	027fffc4 	movi	r9,-1
   410a8:	003f3106 	br	40d70 <__alt_data_end+0xfffcb210>
   410ac:	9cc02014 	ori	r19,r19,128
   410b0:	e005883a 	mov	r2,fp
   410b4:	e4000007 	ldb	r16,0(fp)
   410b8:	003f2c06 	br	40d6c <__alt_data_end+0xfffcb20c>
   410bc:	857ff404 	addi	r21,r16,-48
   410c0:	d8012e15 	stw	zero,1208(sp)
   410c4:	e021883a 	mov	r16,fp
   410c8:	0009883a 	mov	r4,zero
   410cc:	da412c15 	stw	r9,1200(sp)
   410d0:	01400284 	movi	r5,10
   410d4:	004095c0 	call	4095c <__mulsi3>
   410d8:	81400007 	ldb	r5,0(r16)
   410dc:	1549883a 	add	r4,r2,r21
   410e0:	e7000044 	addi	fp,fp,1
   410e4:	2d7ff404 	addi	r21,r5,-48
   410e8:	e021883a 	mov	r16,fp
   410ec:	957ff82e 	bgeu	r18,r21,410d0 <__alt_data_end+0xfffcb570>
   410f0:	2821883a 	mov	r16,r5
   410f4:	d9012e15 	stw	r4,1208(sp)
   410f8:	da412c17 	ldw	r9,1200(sp)
   410fc:	003f1c06 	br	40d70 <__alt_data_end+0xfffcb210>
   41100:	da012a17 	ldw	r8,1192(sp)
   41104:	df012a15 	stw	fp,1192(sp)
   41108:	9839883a 	mov	fp,r19
   4110c:	dcc12b03 	ldbu	r19,1196(sp)
   41110:	e7000414 	ori	fp,fp,16
   41114:	e080080c 	andi	r2,fp,32
   41118:	dcc12785 	stb	r19,1182(sp)
   4111c:	d8c12d17 	ldw	r3,1204(sp)
   41120:	1001ce26 	beq	r2,zero,4185c <___vfprintf_internal_r+0xc90>
   41124:	d9012d17 	ldw	r4,1204(sp)
   41128:	18800117 	ldw	r2,4(r3)
   4112c:	1c800017 	ldw	r18,0(r3)
   41130:	21000204 	addi	r4,r4,8
   41134:	d9012d15 	stw	r4,1204(sp)
   41138:	102b883a 	mov	r21,r2
   4113c:	10044916 	blt	r2,zero,42264 <___vfprintf_internal_r+0x1698>
   41140:	dcc12783 	ldbu	r19,1182(sp)
   41144:	da413215 	stw	r9,1224(sp)
   41148:	00800044 	movi	r2,1
   4114c:	9546b03a 	or	r3,r18,r21
   41150:	48000216 	blt	r9,zero,4115c <___vfprintf_internal_r+0x590>
   41154:	013fdfc4 	movi	r4,-129
   41158:	e138703a 	and	fp,fp,r4
   4115c:	1802251e 	bne	r3,zero,419f4 <___vfprintf_internal_r+0xe28>
   41160:	48031726 	beq	r9,zero,41dc0 <___vfprintf_internal_r+0x11f4>
   41164:	10803fcc 	andi	r2,r2,255
   41168:	00c00044 	movi	r3,1
   4116c:	10c24526 	beq	r2,r3,41a84 <___vfprintf_internal_r+0xeb8>
   41170:	00c00084 	movi	r3,2
   41174:	10c33426 	beq	r2,r3,41e48 <___vfprintf_internal_r+0x127c>
   41178:	d8c10e04 	addi	r3,sp,1080
   4117c:	9008d0fa 	srli	r4,r18,3
   41180:	a80a977a 	slli	r5,r21,29
   41184:	a82ad0fa 	srli	r21,r21,3
   41188:	948001cc 	andi	r18,r18,7
   4118c:	90800c04 	addi	r2,r18,48
   41190:	18ffffc4 	addi	r3,r3,-1
   41194:	2924b03a 	or	r18,r5,r4
   41198:	18800005 	stb	r2,0(r3)
   4119c:	9548b03a 	or	r4,r18,r21
   411a0:	203ff61e 	bne	r4,zero,4117c <__alt_data_end+0xfffcb61c>
   411a4:	e100004c 	andi	r4,fp,1
   411a8:	d8c13115 	stw	r3,1220(sp)
   411ac:	20039a1e 	bne	r4,zero,42018 <___vfprintf_internal_r+0x144c>
   411b0:	d8812817 	ldw	r2,1184(sp)
   411b4:	10e3c83a 	sub	r17,r2,r3
   411b8:	8805883a 	mov	r2,r17
   411bc:	8a40010e 	bge	r17,r9,411c4 <___vfprintf_internal_r+0x5f8>
   411c0:	4805883a 	mov	r2,r9
   411c4:	d8812b15 	stw	r2,1196(sp)
   411c8:	d8013415 	stw	zero,1232(sp)
   411cc:	98803fcc 	andi	r2,r19,255
   411d0:	1080201c 	xori	r2,r2,128
   411d4:	10bfe004 	addi	r2,r2,-128
   411d8:	10000326 	beq	r2,zero,411e8 <___vfprintf_internal_r+0x61c>
   411dc:	d8c12b17 	ldw	r3,1196(sp)
   411e0:	18c00044 	addi	r3,r3,1
   411e4:	d8c12b15 	stw	r3,1196(sp)
   411e8:	e0c0008c 	andi	r3,fp,2
   411ec:	d8c12c15 	stw	r3,1200(sp)
   411f0:	18000326 	beq	r3,zero,41200 <___vfprintf_internal_r+0x634>
   411f4:	d8c12b17 	ldw	r3,1196(sp)
   411f8:	18c00084 	addi	r3,r3,2
   411fc:	d8c12b15 	stw	r3,1196(sp)
   41200:	e0c0210c 	andi	r3,fp,132
   41204:	d8c13015 	stw	r3,1216(sp)
   41208:	1801f81e 	bne	r3,zero,419ec <___vfprintf_internal_r+0xe20>
   4120c:	d9012e17 	ldw	r4,1208(sp)
   41210:	d8c12b17 	ldw	r3,1196(sp)
   41214:	20ebc83a 	sub	r21,r4,r3
   41218:	0541f40e 	bge	zero,r21,419ec <___vfprintf_internal_r+0xe20>
   4121c:	02400404 	movi	r9,16
   41220:	d8c12017 	ldw	r3,1152(sp)
   41224:	d8811f17 	ldw	r2,1148(sp)
   41228:	4d45750e 	bge	r9,r21,42800 <___vfprintf_internal_r+0x1c34>
   4122c:	01400174 	movhi	r5,5
   41230:	2941ad84 	addi	r5,r5,1718
   41234:	d9413615 	stw	r5,1240(sp)
   41238:	4827883a 	mov	r19,r9
   4123c:	048001c4 	movi	r18,7
   41240:	00000306 	br	41250 <___vfprintf_internal_r+0x684>
   41244:	ad7ffc04 	addi	r21,r21,-16
   41248:	42000204 	addi	r8,r8,8
   4124c:	9d40130e 	bge	r19,r21,4129c <___vfprintf_internal_r+0x6d0>
   41250:	01000174 	movhi	r4,5
   41254:	18c00404 	addi	r3,r3,16
   41258:	10800044 	addi	r2,r2,1
   4125c:	2101ad84 	addi	r4,r4,1718
   41260:	41000015 	stw	r4,0(r8)
   41264:	44c00115 	stw	r19,4(r8)
   41268:	d8c12015 	stw	r3,1152(sp)
   4126c:	d8811f15 	stw	r2,1148(sp)
   41270:	90bff40e 	bge	r18,r2,41244 <__alt_data_end+0xfffcb6e4>
   41274:	b809883a 	mov	r4,r23
   41278:	b00b883a 	mov	r5,r22
   4127c:	d9811e04 	addi	r6,sp,1144
   41280:	004800c0 	call	4800c <__sprint_r>
   41284:	103f691e 	bne	r2,zero,4102c <__alt_data_end+0xfffcb4cc>
   41288:	ad7ffc04 	addi	r21,r21,-16
   4128c:	d8c12017 	ldw	r3,1152(sp)
   41290:	d8811f17 	ldw	r2,1148(sp)
   41294:	da000404 	addi	r8,sp,16
   41298:	9d7fed16 	blt	r19,r21,41250 <__alt_data_end+0xfffcb6f0>
   4129c:	d9413617 	ldw	r5,1240(sp)
   412a0:	a8c7883a 	add	r3,r21,r3
   412a4:	10800044 	addi	r2,r2,1
   412a8:	41400015 	stw	r5,0(r8)
   412ac:	45400115 	stw	r21,4(r8)
   412b0:	d8c12015 	stw	r3,1152(sp)
   412b4:	d8811f15 	stw	r2,1148(sp)
   412b8:	010001c4 	movi	r4,7
   412bc:	20832b16 	blt	r4,r2,41f6c <___vfprintf_internal_r+0x13a0>
   412c0:	d8812787 	ldb	r2,1182(sp)
   412c4:	42000204 	addi	r8,r8,8
   412c8:	10000c26 	beq	r2,zero,412fc <___vfprintf_internal_r+0x730>
   412cc:	d8811f17 	ldw	r2,1148(sp)
   412d0:	d9012784 	addi	r4,sp,1182
   412d4:	18c00044 	addi	r3,r3,1
   412d8:	10800044 	addi	r2,r2,1
   412dc:	41000015 	stw	r4,0(r8)
   412e0:	01000044 	movi	r4,1
   412e4:	41000115 	stw	r4,4(r8)
   412e8:	d8c12015 	stw	r3,1152(sp)
   412ec:	d8811f15 	stw	r2,1148(sp)
   412f0:	010001c4 	movi	r4,7
   412f4:	2082c416 	blt	r4,r2,41e08 <___vfprintf_internal_r+0x123c>
   412f8:	42000204 	addi	r8,r8,8
   412fc:	d8812c17 	ldw	r2,1200(sp)
   41300:	10000c26 	beq	r2,zero,41334 <___vfprintf_internal_r+0x768>
   41304:	d8811f17 	ldw	r2,1148(sp)
   41308:	d9012704 	addi	r4,sp,1180
   4130c:	18c00084 	addi	r3,r3,2
   41310:	10800044 	addi	r2,r2,1
   41314:	41000015 	stw	r4,0(r8)
   41318:	01000084 	movi	r4,2
   4131c:	41000115 	stw	r4,4(r8)
   41320:	d8c12015 	stw	r3,1152(sp)
   41324:	d8811f15 	stw	r2,1148(sp)
   41328:	010001c4 	movi	r4,7
   4132c:	2082be16 	blt	r4,r2,41e28 <___vfprintf_internal_r+0x125c>
   41330:	42000204 	addi	r8,r8,8
   41334:	d9013017 	ldw	r4,1216(sp)
   41338:	00802004 	movi	r2,128
   4133c:	20822026 	beq	r4,r2,41bc0 <___vfprintf_internal_r+0xff4>
   41340:	d9413217 	ldw	r5,1224(sp)
   41344:	2c67c83a 	sub	r19,r5,r17
   41348:	04c0260e 	bge	zero,r19,413e4 <___vfprintf_internal_r+0x818>
   4134c:	05400404 	movi	r21,16
   41350:	d8811f17 	ldw	r2,1148(sp)
   41354:	acc4720e 	bge	r21,r19,42520 <___vfprintf_internal_r+0x1954>
   41358:	01400174 	movhi	r5,5
   4135c:	2941a984 	addi	r5,r5,1702
   41360:	d9412c15 	stw	r5,1200(sp)
   41364:	048001c4 	movi	r18,7
   41368:	00000306 	br	41378 <___vfprintf_internal_r+0x7ac>
   4136c:	9cfffc04 	addi	r19,r19,-16
   41370:	42000204 	addi	r8,r8,8
   41374:	acc0110e 	bge	r21,r19,413bc <___vfprintf_internal_r+0x7f0>
   41378:	18c00404 	addi	r3,r3,16
   4137c:	10800044 	addi	r2,r2,1
   41380:	45000015 	stw	r20,0(r8)
   41384:	45400115 	stw	r21,4(r8)
   41388:	d8c12015 	stw	r3,1152(sp)
   4138c:	d8811f15 	stw	r2,1148(sp)
   41390:	90bff60e 	bge	r18,r2,4136c <__alt_data_end+0xfffcb80c>
   41394:	b809883a 	mov	r4,r23
   41398:	b00b883a 	mov	r5,r22
   4139c:	d9811e04 	addi	r6,sp,1144
   413a0:	004800c0 	call	4800c <__sprint_r>
   413a4:	103f211e 	bne	r2,zero,4102c <__alt_data_end+0xfffcb4cc>
   413a8:	9cfffc04 	addi	r19,r19,-16
   413ac:	d8c12017 	ldw	r3,1152(sp)
   413b0:	d8811f17 	ldw	r2,1148(sp)
   413b4:	da000404 	addi	r8,sp,16
   413b8:	acffef16 	blt	r21,r19,41378 <__alt_data_end+0xfffcb818>
   413bc:	d9012c17 	ldw	r4,1200(sp)
   413c0:	1cc7883a 	add	r3,r3,r19
   413c4:	10800044 	addi	r2,r2,1
   413c8:	41000015 	stw	r4,0(r8)
   413cc:	44c00115 	stw	r19,4(r8)
   413d0:	d8c12015 	stw	r3,1152(sp)
   413d4:	d8811f15 	stw	r2,1148(sp)
   413d8:	010001c4 	movi	r4,7
   413dc:	20828216 	blt	r4,r2,41de8 <___vfprintf_internal_r+0x121c>
   413e0:	42000204 	addi	r8,r8,8
   413e4:	e080400c 	andi	r2,fp,256
   413e8:	1001ac1e 	bne	r2,zero,41a9c <___vfprintf_internal_r+0xed0>
   413ec:	d8811f17 	ldw	r2,1148(sp)
   413f0:	d9413117 	ldw	r5,1220(sp)
   413f4:	1c47883a 	add	r3,r3,r17
   413f8:	10800044 	addi	r2,r2,1
   413fc:	41400015 	stw	r5,0(r8)
   41400:	44400115 	stw	r17,4(r8)
   41404:	d8c12015 	stw	r3,1152(sp)
   41408:	d8811f15 	stw	r2,1148(sp)
   4140c:	010001c4 	movi	r4,7
   41410:	20825d16 	blt	r4,r2,41d88 <___vfprintf_internal_r+0x11bc>
   41414:	42000204 	addi	r8,r8,8
   41418:	e080010c 	andi	r2,fp,4
   4141c:	10003126 	beq	r2,zero,414e4 <___vfprintf_internal_r+0x918>
   41420:	d8812e17 	ldw	r2,1208(sp)
   41424:	d9012b17 	ldw	r4,1196(sp)
   41428:	1121c83a 	sub	r16,r2,r4
   4142c:	04002d0e 	bge	zero,r16,414e4 <___vfprintf_internal_r+0x918>
   41430:	04400404 	movi	r17,16
   41434:	d8811f17 	ldw	r2,1148(sp)
   41438:	8c05340e 	bge	r17,r16,4290c <___vfprintf_internal_r+0x1d40>
   4143c:	01000174 	movhi	r4,5
   41440:	2101ad84 	addi	r4,r4,1718
   41444:	d9013615 	stw	r4,1240(sp)
   41448:	048001c4 	movi	r18,7
   4144c:	00000306 	br	4145c <___vfprintf_internal_r+0x890>
   41450:	843ffc04 	addi	r16,r16,-16
   41454:	42000204 	addi	r8,r8,8
   41458:	8c00130e 	bge	r17,r16,414a8 <___vfprintf_internal_r+0x8dc>
   4145c:	01400174 	movhi	r5,5
   41460:	18c00404 	addi	r3,r3,16
   41464:	10800044 	addi	r2,r2,1
   41468:	2941ad84 	addi	r5,r5,1718
   4146c:	41400015 	stw	r5,0(r8)
   41470:	44400115 	stw	r17,4(r8)
   41474:	d8c12015 	stw	r3,1152(sp)
   41478:	d8811f15 	stw	r2,1148(sp)
   4147c:	90bff40e 	bge	r18,r2,41450 <__alt_data_end+0xfffcb8f0>
   41480:	b809883a 	mov	r4,r23
   41484:	b00b883a 	mov	r5,r22
   41488:	d9811e04 	addi	r6,sp,1144
   4148c:	004800c0 	call	4800c <__sprint_r>
   41490:	103ee61e 	bne	r2,zero,4102c <__alt_data_end+0xfffcb4cc>
   41494:	843ffc04 	addi	r16,r16,-16
   41498:	d8c12017 	ldw	r3,1152(sp)
   4149c:	d8811f17 	ldw	r2,1148(sp)
   414a0:	da000404 	addi	r8,sp,16
   414a4:	8c3fed16 	blt	r17,r16,4145c <__alt_data_end+0xfffcb8fc>
   414a8:	d9013617 	ldw	r4,1240(sp)
   414ac:	1c07883a 	add	r3,r3,r16
   414b0:	10800044 	addi	r2,r2,1
   414b4:	41000015 	stw	r4,0(r8)
   414b8:	44000115 	stw	r16,4(r8)
   414bc:	d8c12015 	stw	r3,1152(sp)
   414c0:	d8811f15 	stw	r2,1148(sp)
   414c4:	010001c4 	movi	r4,7
   414c8:	2080060e 	bge	r4,r2,414e4 <___vfprintf_internal_r+0x918>
   414cc:	b809883a 	mov	r4,r23
   414d0:	b00b883a 	mov	r5,r22
   414d4:	d9811e04 	addi	r6,sp,1144
   414d8:	004800c0 	call	4800c <__sprint_r>
   414dc:	103ed31e 	bne	r2,zero,4102c <__alt_data_end+0xfffcb4cc>
   414e0:	d8c12017 	ldw	r3,1152(sp)
   414e4:	df012b17 	ldw	fp,1196(sp)
   414e8:	d9412e17 	ldw	r5,1208(sp)
   414ec:	e140010e 	bge	fp,r5,414f4 <___vfprintf_internal_r+0x928>
   414f0:	2839883a 	mov	fp,r5
   414f4:	d8812f17 	ldw	r2,1212(sp)
   414f8:	1705883a 	add	r2,r2,fp
   414fc:	d8812f15 	stw	r2,1212(sp)
   41500:	1802291e 	bne	r3,zero,41da8 <___vfprintf_internal_r+0x11dc>
   41504:	d8c12a17 	ldw	r3,1192(sp)
   41508:	d8011f15 	stw	zero,1148(sp)
   4150c:	da000404 	addi	r8,sp,16
   41510:	18800007 	ldb	r2,0(r3)
   41514:	103ded1e 	bne	r2,zero,40ccc <__alt_data_end+0xfffcb16c>
   41518:	dc012a17 	ldw	r16,1192(sp)
   4151c:	003e0506 	br	40d34 <__alt_data_end+0xfffcb1d4>
   41520:	d9012d17 	ldw	r4,1204(sp)
   41524:	d9412d17 	ldw	r5,1204(sp)
   41528:	da012a17 	ldw	r8,1192(sp)
   4152c:	21000017 	ldw	r4,0(r4)
   41530:	29400117 	ldw	r5,4(r5)
   41534:	df012a15 	stw	fp,1192(sp)
   41538:	9839883a 	mov	fp,r19
   4153c:	dcc12b03 	ldbu	r19,1196(sp)
   41540:	d9013715 	stw	r4,1244(sp)
   41544:	d9413915 	stw	r5,1252(sp)
   41548:	da013f15 	stw	r8,1276(sp)
   4154c:	da413e15 	stw	r9,1272(sp)
   41550:	dcc12785 	stb	r19,1182(sp)
   41554:	0047c680 	call	47c68 <__fpclassifyd>
   41558:	d8c12d17 	ldw	r3,1204(sp)
   4155c:	04400044 	movi	r17,1
   41560:	da013f17 	ldw	r8,1276(sp)
   41564:	1c800204 	addi	r18,r3,8
   41568:	da413e17 	ldw	r9,1272(sp)
   4156c:	d9013717 	ldw	r4,1244(sp)
   41570:	d9413917 	ldw	r5,1252(sp)
   41574:	1443451e 	bne	r2,r17,4228c <___vfprintf_internal_r+0x16c0>
   41578:	000d883a 	mov	r6,zero
   4157c:	000f883a 	mov	r7,zero
   41580:	004bea00 	call	4bea0 <__ledf2>
   41584:	da013f17 	ldw	r8,1276(sp)
   41588:	1004fe16 	blt	r2,zero,42984 <___vfprintf_internal_r+0x1db8>
   4158c:	dcc12783 	ldbu	r19,1182(sp)
   41590:	008011c4 	movi	r2,71
   41594:	14045d0e 	bge	r2,r16,4270c <___vfprintf_internal_r+0x1b40>
   41598:	01400174 	movhi	r5,5
   4159c:	29419a04 	addi	r5,r5,1640
   415a0:	d9413115 	stw	r5,1220(sp)
   415a4:	00c000c4 	movi	r3,3
   415a8:	00bfdfc4 	movi	r2,-129
   415ac:	d8c12b15 	stw	r3,1196(sp)
   415b0:	e0b8703a 	and	fp,fp,r2
   415b4:	dc812d15 	stw	r18,1204(sp)
   415b8:	1823883a 	mov	r17,r3
   415bc:	d8013215 	stw	zero,1224(sp)
   415c0:	d8013415 	stw	zero,1232(sp)
   415c4:	003f0106 	br	411cc <__alt_data_end+0xfffcb66c>
   415c8:	9cc00214 	ori	r19,r19,8
   415cc:	e005883a 	mov	r2,fp
   415d0:	e4000007 	ldb	r16,0(fp)
   415d4:	003de506 	br	40d6c <__alt_data_end+0xfffcb20c>
   415d8:	da012a17 	ldw	r8,1192(sp)
   415dc:	df012a15 	stw	fp,1192(sp)
   415e0:	9f000414 	ori	fp,r19,16
   415e4:	e0c0080c 	andi	r3,fp,32
   415e8:	d8812d17 	ldw	r2,1204(sp)
   415ec:	18007626 	beq	r3,zero,417c8 <___vfprintf_internal_r+0xbfc>
   415f0:	d9412d17 	ldw	r5,1204(sp)
   415f4:	14800017 	ldw	r18,0(r2)
   415f8:	15400117 	ldw	r21,4(r2)
   415fc:	29400204 	addi	r5,r5,8
   41600:	d9412d15 	stw	r5,1204(sp)
   41604:	0005883a 	mov	r2,zero
   41608:	9546b03a 	or	r3,r18,r21
   4160c:	d8012785 	stb	zero,1182(sp)
   41610:	da413215 	stw	r9,1224(sp)
   41614:	0027883a 	mov	r19,zero
   41618:	003ecd06 	br	41150 <__alt_data_end+0xfffcb5f0>
   4161c:	da012a17 	ldw	r8,1192(sp)
   41620:	df012a15 	stw	fp,1192(sp)
   41624:	9f000414 	ori	fp,r19,16
   41628:	e0c0080c 	andi	r3,fp,32
   4162c:	d8812d17 	ldw	r2,1204(sp)
   41630:	18002c26 	beq	r3,zero,416e4 <___vfprintf_internal_r+0xb18>
   41634:	d9012d17 	ldw	r4,1204(sp)
   41638:	14800017 	ldw	r18,0(r2)
   4163c:	15400117 	ldw	r21,4(r2)
   41640:	21000204 	addi	r4,r4,8
   41644:	d9012d15 	stw	r4,1204(sp)
   41648:	00800044 	movi	r2,1
   4164c:	9546b03a 	or	r3,r18,r21
   41650:	003fee06 	br	4160c <__alt_data_end+0xfffcbaac>
   41654:	da012a17 	ldw	r8,1192(sp)
   41658:	df012a15 	stw	fp,1192(sp)
   4165c:	9839883a 	mov	fp,r19
   41660:	dcc12b03 	ldbu	r19,1196(sp)
   41664:	01400174 	movhi	r5,5
   41668:	29419d04 	addi	r5,r5,1652
   4166c:	dcc12785 	stb	r19,1182(sp)
   41670:	d9413b15 	stw	r5,1260(sp)
   41674:	e0c0080c 	andi	r3,fp,32
   41678:	d8812d17 	ldw	r2,1204(sp)
   4167c:	18002e26 	beq	r3,zero,41738 <___vfprintf_internal_r+0xb6c>
   41680:	d9412d17 	ldw	r5,1204(sp)
   41684:	14800017 	ldw	r18,0(r2)
   41688:	15400117 	ldw	r21,4(r2)
   4168c:	29400204 	addi	r5,r5,8
   41690:	d9412d15 	stw	r5,1204(sp)
   41694:	e080004c 	andi	r2,fp,1
   41698:	10025c26 	beq	r2,zero,4200c <___vfprintf_internal_r+0x1440>
   4169c:	9546b03a 	or	r3,r18,r21
   416a0:	18038f26 	beq	r3,zero,424e0 <___vfprintf_internal_r+0x1914>
   416a4:	00800c04 	movi	r2,48
   416a8:	d8812705 	stb	r2,1180(sp)
   416ac:	dc012745 	stb	r16,1181(sp)
   416b0:	e7000094 	ori	fp,fp,2
   416b4:	00800084 	movi	r2,2
   416b8:	003fd406 	br	4160c <__alt_data_end+0xfffcbaac>
   416bc:	9cc00814 	ori	r19,r19,32
   416c0:	e005883a 	mov	r2,fp
   416c4:	e4000007 	ldb	r16,0(fp)
   416c8:	003da806 	br	40d6c <__alt_data_end+0xfffcb20c>
   416cc:	da012a17 	ldw	r8,1192(sp)
   416d0:	df012a15 	stw	fp,1192(sp)
   416d4:	9839883a 	mov	fp,r19
   416d8:	e0c0080c 	andi	r3,fp,32
   416dc:	d8812d17 	ldw	r2,1204(sp)
   416e0:	183fd41e 	bne	r3,zero,41634 <__alt_data_end+0xfffcbad4>
   416e4:	e0c0040c 	andi	r3,fp,16
   416e8:	18035f26 	beq	r3,zero,42468 <___vfprintf_internal_r+0x189c>
   416ec:	d9412d17 	ldw	r5,1204(sp)
   416f0:	14800017 	ldw	r18,0(r2)
   416f4:	002b883a 	mov	r21,zero
   416f8:	29400104 	addi	r5,r5,4
   416fc:	d9412d15 	stw	r5,1204(sp)
   41700:	00800044 	movi	r2,1
   41704:	9007883a 	mov	r3,r18
   41708:	003fc006 	br	4160c <__alt_data_end+0xfffcbaac>
   4170c:	da012a17 	ldw	r8,1192(sp)
   41710:	df012a15 	stw	fp,1192(sp)
   41714:	9839883a 	mov	fp,r19
   41718:	dcc12b03 	ldbu	r19,1196(sp)
   4171c:	01000174 	movhi	r4,5
   41720:	2101a204 	addi	r4,r4,1672
   41724:	d9013b15 	stw	r4,1260(sp)
   41728:	dcc12785 	stb	r19,1182(sp)
   4172c:	e0c0080c 	andi	r3,fp,32
   41730:	d8812d17 	ldw	r2,1204(sp)
   41734:	183fd21e 	bne	r3,zero,41680 <__alt_data_end+0xfffcbb20>
   41738:	e0c0040c 	andi	r3,fp,16
   4173c:	18035426 	beq	r3,zero,42490 <___vfprintf_internal_r+0x18c4>
   41740:	d8c12d17 	ldw	r3,1204(sp)
   41744:	14800017 	ldw	r18,0(r2)
   41748:	002b883a 	mov	r21,zero
   4174c:	18c00104 	addi	r3,r3,4
   41750:	d8c12d15 	stw	r3,1204(sp)
   41754:	003fcf06 	br	41694 <__alt_data_end+0xfffcbb34>
   41758:	e4000007 	ldb	r16,0(fp)
   4175c:	00801b04 	movi	r2,108
   41760:	8083f726 	beq	r16,r2,42740 <___vfprintf_internal_r+0x1b74>
   41764:	9cc00414 	ori	r19,r19,16
   41768:	e005883a 	mov	r2,fp
   4176c:	003d7f06 	br	40d6c <__alt_data_end+0xfffcb20c>
   41770:	da012a17 	ldw	r8,1192(sp)
   41774:	df012a15 	stw	fp,1192(sp)
   41778:	9839883a 	mov	fp,r19
   4177c:	dcc12b03 	ldbu	r19,1196(sp)
   41780:	e080080c 	andi	r2,fp,32
   41784:	dcc12785 	stb	r19,1182(sp)
   41788:	10032226 	beq	r2,zero,42414 <___vfprintf_internal_r+0x1848>
   4178c:	d9412d17 	ldw	r5,1204(sp)
   41790:	d9012f17 	ldw	r4,1212(sp)
   41794:	28800017 	ldw	r2,0(r5)
   41798:	2007d7fa 	srai	r3,r4,31
   4179c:	29400104 	addi	r5,r5,4
   417a0:	d9412d15 	stw	r5,1204(sp)
   417a4:	11000015 	stw	r4,0(r2)
   417a8:	10c00115 	stw	r3,4(r2)
   417ac:	003d4406 	br	40cc0 <__alt_data_end+0xfffcb160>
   417b0:	da012a17 	ldw	r8,1192(sp)
   417b4:	df012a15 	stw	fp,1192(sp)
   417b8:	9839883a 	mov	fp,r19
   417bc:	e0c0080c 	andi	r3,fp,32
   417c0:	d8812d17 	ldw	r2,1204(sp)
   417c4:	183f8a1e 	bne	r3,zero,415f0 <__alt_data_end+0xfffcba90>
   417c8:	e0c0040c 	andi	r3,fp,16
   417cc:	18031c26 	beq	r3,zero,42440 <___vfprintf_internal_r+0x1874>
   417d0:	14800017 	ldw	r18,0(r2)
   417d4:	d8812d17 	ldw	r2,1204(sp)
   417d8:	002b883a 	mov	r21,zero
   417dc:	9007883a 	mov	r3,r18
   417e0:	10800104 	addi	r2,r2,4
   417e4:	d8812d15 	stw	r2,1204(sp)
   417e8:	0005883a 	mov	r2,zero
   417ec:	003f8706 	br	4160c <__alt_data_end+0xfffcbaac>
   417f0:	d9412d17 	ldw	r5,1204(sp)
   417f4:	00800c04 	movi	r2,48
   417f8:	d8812705 	stb	r2,1180(sp)
   417fc:	2c800017 	ldw	r18,0(r5)
   41800:	00801e04 	movi	r2,120
   41804:	d8812745 	stb	r2,1181(sp)
   41808:	00800174 	movhi	r2,5
   4180c:	1081a204 	addi	r2,r2,1672
   41810:	29400104 	addi	r5,r5,4
   41814:	da012a17 	ldw	r8,1192(sp)
   41818:	d8813b15 	stw	r2,1260(sp)
   4181c:	df012a15 	stw	fp,1192(sp)
   41820:	002b883a 	mov	r21,zero
   41824:	9f000094 	ori	fp,r19,2
   41828:	d9412d15 	stw	r5,1204(sp)
   4182c:	00800084 	movi	r2,2
   41830:	04001e04 	movi	r16,120
   41834:	9007883a 	mov	r3,r18
   41838:	003f7406 	br	4160c <__alt_data_end+0xfffcbaac>
   4183c:	da012a17 	ldw	r8,1192(sp)
   41840:	df012a15 	stw	fp,1192(sp)
   41844:	9839883a 	mov	fp,r19
   41848:	dcc12b03 	ldbu	r19,1196(sp)
   4184c:	e080080c 	andi	r2,fp,32
   41850:	d8c12d17 	ldw	r3,1204(sp)
   41854:	dcc12785 	stb	r19,1182(sp)
   41858:	103e321e 	bne	r2,zero,41124 <__alt_data_end+0xfffcb5c4>
   4185c:	e080040c 	andi	r2,fp,16
   41860:	10031326 	beq	r2,zero,424b0 <___vfprintf_internal_r+0x18e4>
   41864:	1c800017 	ldw	r18,0(r3)
   41868:	d9412d17 	ldw	r5,1204(sp)
   4186c:	902bd7fa 	srai	r21,r18,31
   41870:	29400104 	addi	r5,r5,4
   41874:	d9412d15 	stw	r5,1204(sp)
   41878:	a805883a 	mov	r2,r21
   4187c:	003e2f06 	br	4113c <__alt_data_end+0xfffcb5dc>
   41880:	9cc01014 	ori	r19,r19,64
   41884:	e005883a 	mov	r2,fp
   41888:	e4000007 	ldb	r16,0(fp)
   4188c:	003d3706 	br	40d6c <__alt_data_end+0xfffcb20c>
   41890:	d8c12d17 	ldw	r3,1204(sp)
   41894:	d9012d17 	ldw	r4,1204(sp)
   41898:	da012a17 	ldw	r8,1192(sp)
   4189c:	18800017 	ldw	r2,0(r3)
   418a0:	21000104 	addi	r4,r4,4
   418a4:	00c00044 	movi	r3,1
   418a8:	df012a15 	stw	fp,1192(sp)
   418ac:	d8c12b15 	stw	r3,1196(sp)
   418b0:	9839883a 	mov	fp,r19
   418b4:	d8012785 	stb	zero,1182(sp)
   418b8:	d8810405 	stb	r2,1040(sp)
   418bc:	d9012d15 	stw	r4,1204(sp)
   418c0:	1823883a 	mov	r17,r3
   418c4:	d8c10404 	addi	r3,sp,1040
   418c8:	d8013215 	stw	zero,1224(sp)
   418cc:	d8013415 	stw	zero,1232(sp)
   418d0:	d8c13115 	stw	r3,1220(sp)
   418d4:	0005883a 	mov	r2,zero
   418d8:	003e4306 	br	411e8 <__alt_data_end+0xfffcb688>
   418dc:	d8812b07 	ldb	r2,1196(sp)
   418e0:	1002fc1e 	bne	r2,zero,424d4 <___vfprintf_internal_r+0x1908>
   418e4:	00c00804 	movi	r3,32
   418e8:	d8c12b05 	stb	r3,1196(sp)
   418ec:	e005883a 	mov	r2,fp
   418f0:	e4000007 	ldb	r16,0(fp)
   418f4:	003d1d06 	br	40d6c <__alt_data_end+0xfffcb20c>
   418f8:	9cc00054 	ori	r19,r19,1
   418fc:	e005883a 	mov	r2,fp
   41900:	e4000007 	ldb	r16,0(fp)
   41904:	003d1906 	br	40d6c <__alt_data_end+0xfffcb20c>
   41908:	d9012d17 	ldw	r4,1204(sp)
   4190c:	d9412d17 	ldw	r5,1204(sp)
   41910:	21000017 	ldw	r4,0(r4)
   41914:	28c00104 	addi	r3,r5,4
   41918:	d9012e15 	stw	r4,1208(sp)
   4191c:	20038c16 	blt	r4,zero,42750 <___vfprintf_internal_r+0x1b84>
   41920:	d8c12d15 	stw	r3,1204(sp)
   41924:	e005883a 	mov	r2,fp
   41928:	e4000007 	ldb	r16,0(fp)
   4192c:	003d0f06 	br	40d6c <__alt_data_end+0xfffcb20c>
   41930:	00c00ac4 	movi	r3,43
   41934:	d8c12b05 	stb	r3,1196(sp)
   41938:	e005883a 	mov	r2,fp
   4193c:	e4000007 	ldb	r16,0(fp)
   41940:	003d0a06 	br	40d6c <__alt_data_end+0xfffcb20c>
   41944:	d8c12d17 	ldw	r3,1204(sp)
   41948:	d9012d17 	ldw	r4,1204(sp)
   4194c:	da012a17 	ldw	r8,1192(sp)
   41950:	18c00017 	ldw	r3,0(r3)
   41954:	df012a15 	stw	fp,1192(sp)
   41958:	d8012785 	stb	zero,1182(sp)
   4195c:	d8c13115 	stw	r3,1220(sp)
   41960:	9839883a 	mov	fp,r19
   41964:	24800104 	addi	r18,r4,4
   41968:	1803f726 	beq	r3,zero,42948 <___vfprintf_internal_r+0x1d7c>
   4196c:	d9013117 	ldw	r4,1220(sp)
   41970:	48038916 	blt	r9,zero,42798 <___vfprintf_internal_r+0x1bcc>
   41974:	480d883a 	mov	r6,r9
   41978:	000b883a 	mov	r5,zero
   4197c:	da013f15 	stw	r8,1276(sp)
   41980:	da413e15 	stw	r9,1272(sp)
   41984:	00461e00 	call	461e0 <memchr>
   41988:	da013f17 	ldw	r8,1276(sp)
   4198c:	da413e17 	ldw	r9,1272(sp)
   41990:	10045926 	beq	r2,zero,42af8 <___vfprintf_internal_r+0x1f2c>
   41994:	d8c13117 	ldw	r3,1220(sp)
   41998:	10e3c83a 	sub	r17,r2,r3
   4199c:	4c433516 	blt	r9,r17,42674 <___vfprintf_internal_r+0x1aa8>
   419a0:	8805883a 	mov	r2,r17
   419a4:	88038116 	blt	r17,zero,427ac <___vfprintf_internal_r+0x1be0>
   419a8:	dcc12783 	ldbu	r19,1182(sp)
   419ac:	d8812b15 	stw	r2,1196(sp)
   419b0:	dc812d15 	stw	r18,1204(sp)
   419b4:	d8013215 	stw	zero,1224(sp)
   419b8:	d8013415 	stw	zero,1232(sp)
   419bc:	003e0306 	br	411cc <__alt_data_end+0xfffcb66c>
   419c0:	da012a17 	ldw	r8,1192(sp)
   419c4:	df012a15 	stw	fp,1192(sp)
   419c8:	9839883a 	mov	fp,r19
   419cc:	dcc12b03 	ldbu	r19,1196(sp)
   419d0:	dcc12785 	stb	r19,1182(sp)
   419d4:	803d8f26 	beq	r16,zero,41014 <__alt_data_end+0xfffcb4b4>
   419d8:	00c00044 	movi	r3,1
   419dc:	d8c12b15 	stw	r3,1196(sp)
   419e0:	dc010405 	stb	r16,1040(sp)
   419e4:	d8012785 	stb	zero,1182(sp)
   419e8:	003fb506 	br	418c0 <__alt_data_end+0xfffcbd60>
   419ec:	d8c12017 	ldw	r3,1152(sp)
   419f0:	003e3506 	br	412c8 <__alt_data_end+0xfffcb768>
   419f4:	10803fcc 	andi	r2,r2,255
   419f8:	00c00044 	movi	r3,1
   419fc:	10fddc1e 	bne	r2,r3,41170 <__alt_data_end+0xfffcb610>
   41a00:	a800021e 	bne	r21,zero,41a0c <___vfprintf_internal_r+0xe40>
   41a04:	00800244 	movi	r2,9
   41a08:	14801e2e 	bgeu	r2,r18,41a84 <___vfprintf_internal_r+0xeb8>
   41a0c:	dc012b15 	stw	r16,1196(sp)
   41a10:	dc410e04 	addi	r17,sp,1080
   41a14:	9021883a 	mov	r16,r18
   41a18:	da012c15 	stw	r8,1200(sp)
   41a1c:	a825883a 	mov	r18,r21
   41a20:	482b883a 	mov	r21,r9
   41a24:	8009883a 	mov	r4,r16
   41a28:	900b883a 	mov	r5,r18
   41a2c:	01800284 	movi	r6,10
   41a30:	000f883a 	mov	r7,zero
   41a34:	004a5040 	call	4a504 <__umoddi3>
   41a38:	10800c04 	addi	r2,r2,48
   41a3c:	8c7fffc4 	addi	r17,r17,-1
   41a40:	8009883a 	mov	r4,r16
   41a44:	900b883a 	mov	r5,r18
   41a48:	01800284 	movi	r6,10
   41a4c:	000f883a 	mov	r7,zero
   41a50:	88800005 	stb	r2,0(r17)
   41a54:	0049ec40 	call	49ec4 <__udivdi3>
   41a58:	1021883a 	mov	r16,r2
   41a5c:	10c4b03a 	or	r2,r2,r3
   41a60:	1825883a 	mov	r18,r3
   41a64:	103fef1e 	bne	r2,zero,41a24 <__alt_data_end+0xfffcbec4>
   41a68:	d9012817 	ldw	r4,1184(sp)
   41a6c:	dc413115 	stw	r17,1220(sp)
   41a70:	dc012b17 	ldw	r16,1196(sp)
   41a74:	da012c17 	ldw	r8,1200(sp)
   41a78:	a813883a 	mov	r9,r21
   41a7c:	2463c83a 	sub	r17,r4,r17
   41a80:	003dcd06 	br	411b8 <__alt_data_end+0xfffcb658>
   41a84:	94800c04 	addi	r18,r18,48
   41a88:	d8c10dc4 	addi	r3,sp,1079
   41a8c:	dc810dc5 	stb	r18,1079(sp)
   41a90:	dc413c17 	ldw	r17,1264(sp)
   41a94:	d8c13115 	stw	r3,1220(sp)
   41a98:	003dc706 	br	411b8 <__alt_data_end+0xfffcb658>
   41a9c:	00801944 	movi	r2,101
   41aa0:	1400720e 	bge	r2,r16,41c6c <___vfprintf_internal_r+0x10a0>
   41aa4:	d9013717 	ldw	r4,1244(sp)
   41aa8:	d9413917 	ldw	r5,1252(sp)
   41aac:	000d883a 	mov	r6,zero
   41ab0:	000f883a 	mov	r7,zero
   41ab4:	d8c13d15 	stw	r3,1268(sp)
   41ab8:	da013f15 	stw	r8,1276(sp)
   41abc:	004bd3c0 	call	4bd3c <__eqdf2>
   41ac0:	d8c13d17 	ldw	r3,1268(sp)
   41ac4:	da013f17 	ldw	r8,1276(sp)
   41ac8:	1000f41e 	bne	r2,zero,41e9c <___vfprintf_internal_r+0x12d0>
   41acc:	d8811f17 	ldw	r2,1148(sp)
   41ad0:	01000174 	movhi	r4,5
   41ad4:	2101a904 	addi	r4,r4,1700
   41ad8:	18c00044 	addi	r3,r3,1
   41adc:	10800044 	addi	r2,r2,1
   41ae0:	41000015 	stw	r4,0(r8)
   41ae4:	01000044 	movi	r4,1
   41ae8:	41000115 	stw	r4,4(r8)
   41aec:	d8c12015 	stw	r3,1152(sp)
   41af0:	d8811f15 	stw	r2,1148(sp)
   41af4:	010001c4 	movi	r4,7
   41af8:	20828d16 	blt	r4,r2,42530 <___vfprintf_internal_r+0x1964>
   41afc:	42000204 	addi	r8,r8,8
   41b00:	d8812617 	ldw	r2,1176(sp)
   41b04:	d9413317 	ldw	r5,1228(sp)
   41b08:	11400216 	blt	r2,r5,41b14 <___vfprintf_internal_r+0xf48>
   41b0c:	e080004c 	andi	r2,fp,1
   41b10:	103e4126 	beq	r2,zero,41418 <__alt_data_end+0xfffcb8b8>
   41b14:	d8813817 	ldw	r2,1248(sp)
   41b18:	d9013517 	ldw	r4,1236(sp)
   41b1c:	d9413817 	ldw	r5,1248(sp)
   41b20:	1887883a 	add	r3,r3,r2
   41b24:	d8811f17 	ldw	r2,1148(sp)
   41b28:	41000015 	stw	r4,0(r8)
   41b2c:	41400115 	stw	r5,4(r8)
   41b30:	10800044 	addi	r2,r2,1
   41b34:	d8c12015 	stw	r3,1152(sp)
   41b38:	d8811f15 	stw	r2,1148(sp)
   41b3c:	010001c4 	movi	r4,7
   41b40:	20830916 	blt	r4,r2,42768 <___vfprintf_internal_r+0x1b9c>
   41b44:	42000204 	addi	r8,r8,8
   41b48:	d8813317 	ldw	r2,1228(sp)
   41b4c:	143fffc4 	addi	r16,r2,-1
   41b50:	043e310e 	bge	zero,r16,41418 <__alt_data_end+0xfffcb8b8>
   41b54:	04400404 	movi	r17,16
   41b58:	d8811f17 	ldw	r2,1148(sp)
   41b5c:	8c007e0e 	bge	r17,r16,41d58 <___vfprintf_internal_r+0x118c>
   41b60:	01400174 	movhi	r5,5
   41b64:	2941a984 	addi	r5,r5,1702
   41b68:	d9412c15 	stw	r5,1200(sp)
   41b6c:	04c001c4 	movi	r19,7
   41b70:	00000306 	br	41b80 <___vfprintf_internal_r+0xfb4>
   41b74:	42000204 	addi	r8,r8,8
   41b78:	843ffc04 	addi	r16,r16,-16
   41b7c:	8c00790e 	bge	r17,r16,41d64 <___vfprintf_internal_r+0x1198>
   41b80:	18c00404 	addi	r3,r3,16
   41b84:	10800044 	addi	r2,r2,1
   41b88:	45000015 	stw	r20,0(r8)
   41b8c:	44400115 	stw	r17,4(r8)
   41b90:	d8c12015 	stw	r3,1152(sp)
   41b94:	d8811f15 	stw	r2,1148(sp)
   41b98:	98bff60e 	bge	r19,r2,41b74 <__alt_data_end+0xfffcc014>
   41b9c:	b809883a 	mov	r4,r23
   41ba0:	b00b883a 	mov	r5,r22
   41ba4:	d9811e04 	addi	r6,sp,1144
   41ba8:	004800c0 	call	4800c <__sprint_r>
   41bac:	103d1f1e 	bne	r2,zero,4102c <__alt_data_end+0xfffcb4cc>
   41bb0:	d8c12017 	ldw	r3,1152(sp)
   41bb4:	d8811f17 	ldw	r2,1148(sp)
   41bb8:	da000404 	addi	r8,sp,16
   41bbc:	003fee06 	br	41b78 <__alt_data_end+0xfffcc018>
   41bc0:	d9412e17 	ldw	r5,1208(sp)
   41bc4:	d8812b17 	ldw	r2,1196(sp)
   41bc8:	28a7c83a 	sub	r19,r5,r2
   41bcc:	04fddc0e 	bge	zero,r19,41340 <__alt_data_end+0xfffcb7e0>
   41bd0:	05400404 	movi	r21,16
   41bd4:	d8811f17 	ldw	r2,1148(sp)
   41bd8:	acc3870e 	bge	r21,r19,429f8 <___vfprintf_internal_r+0x1e2c>
   41bdc:	01400174 	movhi	r5,5
   41be0:	2941a984 	addi	r5,r5,1702
   41be4:	d9412c15 	stw	r5,1200(sp)
   41be8:	048001c4 	movi	r18,7
   41bec:	00000306 	br	41bfc <___vfprintf_internal_r+0x1030>
   41bf0:	9cfffc04 	addi	r19,r19,-16
   41bf4:	42000204 	addi	r8,r8,8
   41bf8:	acc0110e 	bge	r21,r19,41c40 <___vfprintf_internal_r+0x1074>
   41bfc:	18c00404 	addi	r3,r3,16
   41c00:	10800044 	addi	r2,r2,1
   41c04:	45000015 	stw	r20,0(r8)
   41c08:	45400115 	stw	r21,4(r8)
   41c0c:	d8c12015 	stw	r3,1152(sp)
   41c10:	d8811f15 	stw	r2,1148(sp)
   41c14:	90bff60e 	bge	r18,r2,41bf0 <__alt_data_end+0xfffcc090>
   41c18:	b809883a 	mov	r4,r23
   41c1c:	b00b883a 	mov	r5,r22
   41c20:	d9811e04 	addi	r6,sp,1144
   41c24:	004800c0 	call	4800c <__sprint_r>
   41c28:	103d001e 	bne	r2,zero,4102c <__alt_data_end+0xfffcb4cc>
   41c2c:	9cfffc04 	addi	r19,r19,-16
   41c30:	d8c12017 	ldw	r3,1152(sp)
   41c34:	d8811f17 	ldw	r2,1148(sp)
   41c38:	da000404 	addi	r8,sp,16
   41c3c:	acffef16 	blt	r21,r19,41bfc <__alt_data_end+0xfffcc09c>
   41c40:	d9012c17 	ldw	r4,1200(sp)
   41c44:	1cc7883a 	add	r3,r3,r19
   41c48:	10800044 	addi	r2,r2,1
   41c4c:	41000015 	stw	r4,0(r8)
   41c50:	44c00115 	stw	r19,4(r8)
   41c54:	d8c12015 	stw	r3,1152(sp)
   41c58:	d8811f15 	stw	r2,1148(sp)
   41c5c:	010001c4 	movi	r4,7
   41c60:	20817816 	blt	r4,r2,42244 <___vfprintf_internal_r+0x1678>
   41c64:	42000204 	addi	r8,r8,8
   41c68:	003db506 	br	41340 <__alt_data_end+0xfffcb7e0>
   41c6c:	d9413317 	ldw	r5,1228(sp)
   41c70:	00800044 	movi	r2,1
   41c74:	18c00044 	addi	r3,r3,1
   41c78:	11413e0e 	bge	r2,r5,42174 <___vfprintf_internal_r+0x15a8>
   41c7c:	dc011f17 	ldw	r16,1148(sp)
   41c80:	d8813117 	ldw	r2,1220(sp)
   41c84:	d8c12015 	stw	r3,1152(sp)
   41c88:	84000044 	addi	r16,r16,1
   41c8c:	40800015 	stw	r2,0(r8)
   41c90:	00800044 	movi	r2,1
   41c94:	40800115 	stw	r2,4(r8)
   41c98:	dc011f15 	stw	r16,1148(sp)
   41c9c:	008001c4 	movi	r2,7
   41ca0:	14015616 	blt	r2,r16,421fc <___vfprintf_internal_r+0x1630>
   41ca4:	42000204 	addi	r8,r8,8
   41ca8:	d9013817 	ldw	r4,1248(sp)
   41cac:	d9413517 	ldw	r5,1236(sp)
   41cb0:	84000044 	addi	r16,r16,1
   41cb4:	1907883a 	add	r3,r3,r4
   41cb8:	41400015 	stw	r5,0(r8)
   41cbc:	41000115 	stw	r4,4(r8)
   41cc0:	d8c12015 	stw	r3,1152(sp)
   41cc4:	dc011f15 	stw	r16,1148(sp)
   41cc8:	008001c4 	movi	r2,7
   41ccc:	14015416 	blt	r2,r16,42220 <___vfprintf_internal_r+0x1654>
   41cd0:	44400204 	addi	r17,r8,8
   41cd4:	d9013717 	ldw	r4,1244(sp)
   41cd8:	d9413917 	ldw	r5,1252(sp)
   41cdc:	000d883a 	mov	r6,zero
   41ce0:	000f883a 	mov	r7,zero
   41ce4:	d8c13d15 	stw	r3,1268(sp)
   41ce8:	004bd3c0 	call	4bd3c <__eqdf2>
   41cec:	d8c13d17 	ldw	r3,1268(sp)
   41cf0:	1000a726 	beq	r2,zero,41f90 <___vfprintf_internal_r+0x13c4>
   41cf4:	d9013317 	ldw	r4,1228(sp)
   41cf8:	d9413117 	ldw	r5,1220(sp)
   41cfc:	84000044 	addi	r16,r16,1
   41d00:	20bfffc4 	addi	r2,r4,-1
   41d04:	1887883a 	add	r3,r3,r2
   41d08:	29000044 	addi	r4,r5,1
   41d0c:	88800115 	stw	r2,4(r17)
   41d10:	89000015 	stw	r4,0(r17)
   41d14:	d8c12015 	stw	r3,1152(sp)
   41d18:	dc011f15 	stw	r16,1148(sp)
   41d1c:	008001c4 	movi	r2,7
   41d20:	14012d16 	blt	r2,r16,421d8 <___vfprintf_internal_r+0x160c>
   41d24:	8c400204 	addi	r17,r17,8
   41d28:	d9413a17 	ldw	r5,1256(sp)
   41d2c:	dcc122c4 	addi	r19,sp,1163
   41d30:	84000044 	addi	r16,r16,1
   41d34:	28c7883a 	add	r3,r5,r3
   41d38:	8cc00015 	stw	r19,0(r17)
   41d3c:	89400115 	stw	r5,4(r17)
   41d40:	d8c12015 	stw	r3,1152(sp)
   41d44:	dc011f15 	stw	r16,1148(sp)
   41d48:	008001c4 	movi	r2,7
   41d4c:	14000e16 	blt	r2,r16,41d88 <___vfprintf_internal_r+0x11bc>
   41d50:	8a000204 	addi	r8,r17,8
   41d54:	003db006 	br	41418 <__alt_data_end+0xfffcb8b8>
   41d58:	01000174 	movhi	r4,5
   41d5c:	2101a984 	addi	r4,r4,1702
   41d60:	d9012c15 	stw	r4,1200(sp)
   41d64:	d9012c17 	ldw	r4,1200(sp)
   41d68:	1c07883a 	add	r3,r3,r16
   41d6c:	44000115 	stw	r16,4(r8)
   41d70:	41000015 	stw	r4,0(r8)
   41d74:	10800044 	addi	r2,r2,1
   41d78:	d8c12015 	stw	r3,1152(sp)
   41d7c:	d8811f15 	stw	r2,1148(sp)
   41d80:	010001c4 	movi	r4,7
   41d84:	20bda30e 	bge	r4,r2,41414 <__alt_data_end+0xfffcb8b4>
   41d88:	b809883a 	mov	r4,r23
   41d8c:	b00b883a 	mov	r5,r22
   41d90:	d9811e04 	addi	r6,sp,1144
   41d94:	004800c0 	call	4800c <__sprint_r>
   41d98:	103ca41e 	bne	r2,zero,4102c <__alt_data_end+0xfffcb4cc>
   41d9c:	d8c12017 	ldw	r3,1152(sp)
   41da0:	da000404 	addi	r8,sp,16
   41da4:	003d9c06 	br	41418 <__alt_data_end+0xfffcb8b8>
   41da8:	b809883a 	mov	r4,r23
   41dac:	b00b883a 	mov	r5,r22
   41db0:	d9811e04 	addi	r6,sp,1144
   41db4:	004800c0 	call	4800c <__sprint_r>
   41db8:	103dd226 	beq	r2,zero,41504 <__alt_data_end+0xfffcb9a4>
   41dbc:	003c9b06 	br	4102c <__alt_data_end+0xfffcb4cc>
   41dc0:	10803fcc 	andi	r2,r2,255
   41dc4:	1000311e 	bne	r2,zero,41e8c <___vfprintf_internal_r+0x12c0>
   41dc8:	e080004c 	andi	r2,fp,1
   41dcc:	10002f26 	beq	r2,zero,41e8c <___vfprintf_internal_r+0x12c0>
   41dd0:	00800c04 	movi	r2,48
   41dd4:	d8c10dc4 	addi	r3,sp,1079
   41dd8:	d8810dc5 	stb	r2,1079(sp)
   41ddc:	dc413c17 	ldw	r17,1264(sp)
   41de0:	d8c13115 	stw	r3,1220(sp)
   41de4:	003cf406 	br	411b8 <__alt_data_end+0xfffcb658>
   41de8:	b809883a 	mov	r4,r23
   41dec:	b00b883a 	mov	r5,r22
   41df0:	d9811e04 	addi	r6,sp,1144
   41df4:	004800c0 	call	4800c <__sprint_r>
   41df8:	103c8c1e 	bne	r2,zero,4102c <__alt_data_end+0xfffcb4cc>
   41dfc:	d8c12017 	ldw	r3,1152(sp)
   41e00:	da000404 	addi	r8,sp,16
   41e04:	003d7706 	br	413e4 <__alt_data_end+0xfffcb884>
   41e08:	b809883a 	mov	r4,r23
   41e0c:	b00b883a 	mov	r5,r22
   41e10:	d9811e04 	addi	r6,sp,1144
   41e14:	004800c0 	call	4800c <__sprint_r>
   41e18:	103c841e 	bne	r2,zero,4102c <__alt_data_end+0xfffcb4cc>
   41e1c:	d8c12017 	ldw	r3,1152(sp)
   41e20:	da000404 	addi	r8,sp,16
   41e24:	003d3506 	br	412fc <__alt_data_end+0xfffcb79c>
   41e28:	b809883a 	mov	r4,r23
   41e2c:	b00b883a 	mov	r5,r22
   41e30:	d9811e04 	addi	r6,sp,1144
   41e34:	004800c0 	call	4800c <__sprint_r>
   41e38:	103c7c1e 	bne	r2,zero,4102c <__alt_data_end+0xfffcb4cc>
   41e3c:	d8c12017 	ldw	r3,1152(sp)
   41e40:	da000404 	addi	r8,sp,16
   41e44:	003d3b06 	br	41334 <__alt_data_end+0xfffcb7d4>
   41e48:	d9413b17 	ldw	r5,1260(sp)
   41e4c:	d8c10e04 	addi	r3,sp,1080
   41e50:	908003cc 	andi	r2,r18,15
   41e54:	a808973a 	slli	r4,r21,28
   41e58:	2885883a 	add	r2,r5,r2
   41e5c:	9024d13a 	srli	r18,r18,4
   41e60:	10800003 	ldbu	r2,0(r2)
   41e64:	a82ad13a 	srli	r21,r21,4
   41e68:	18ffffc4 	addi	r3,r3,-1
   41e6c:	24a4b03a 	or	r18,r4,r18
   41e70:	18800005 	stb	r2,0(r3)
   41e74:	9544b03a 	or	r2,r18,r21
   41e78:	103ff51e 	bne	r2,zero,41e50 <__alt_data_end+0xfffcc2f0>
   41e7c:	d9412817 	ldw	r5,1184(sp)
   41e80:	d8c13115 	stw	r3,1220(sp)
   41e84:	28e3c83a 	sub	r17,r5,r3
   41e88:	003ccb06 	br	411b8 <__alt_data_end+0xfffcb658>
   41e8c:	d8c10e04 	addi	r3,sp,1080
   41e90:	0023883a 	mov	r17,zero
   41e94:	d8c13115 	stw	r3,1220(sp)
   41e98:	003cc706 	br	411b8 <__alt_data_end+0xfffcb658>
   41e9c:	dc012617 	ldw	r16,1176(sp)
   41ea0:	0401ab0e 	bge	zero,r16,42550 <___vfprintf_internal_r+0x1984>
   41ea4:	d8813317 	ldw	r2,1228(sp)
   41ea8:	d9413117 	ldw	r5,1220(sp)
   41eac:	d9013417 	ldw	r4,1232(sp)
   41eb0:	1023883a 	mov	r17,r2
   41eb4:	28a1883a 	add	r16,r5,r2
   41eb8:	2080010e 	bge	r4,r2,41ec0 <___vfprintf_internal_r+0x12f4>
   41ebc:	2023883a 	mov	r17,r4
   41ec0:	04400b0e 	bge	zero,r17,41ef0 <___vfprintf_internal_r+0x1324>
   41ec4:	d8811f17 	ldw	r2,1148(sp)
   41ec8:	d9413117 	ldw	r5,1220(sp)
   41ecc:	1c47883a 	add	r3,r3,r17
   41ed0:	10800044 	addi	r2,r2,1
   41ed4:	41400015 	stw	r5,0(r8)
   41ed8:	44400115 	stw	r17,4(r8)
   41edc:	d8c12015 	stw	r3,1152(sp)
   41ee0:	d8811f15 	stw	r2,1148(sp)
   41ee4:	010001c4 	movi	r4,7
   41ee8:	20826716 	blt	r4,r2,42888 <___vfprintf_internal_r+0x1cbc>
   41eec:	42000204 	addi	r8,r8,8
   41ef0:	88026316 	blt	r17,zero,42880 <___vfprintf_internal_r+0x1cb4>
   41ef4:	d8813417 	ldw	r2,1232(sp)
   41ef8:	1463c83a 	sub	r17,r2,r17
   41efc:	0440590e 	bge	zero,r17,42064 <___vfprintf_internal_r+0x1498>
   41f00:	04c00404 	movi	r19,16
   41f04:	d8811f17 	ldw	r2,1148(sp)
   41f08:	9c41770e 	bge	r19,r17,424e8 <___vfprintf_internal_r+0x191c>
   41f0c:	01400174 	movhi	r5,5
   41f10:	2941a984 	addi	r5,r5,1702
   41f14:	d9412c15 	stw	r5,1200(sp)
   41f18:	054001c4 	movi	r21,7
   41f1c:	00000306 	br	41f2c <___vfprintf_internal_r+0x1360>
   41f20:	42000204 	addi	r8,r8,8
   41f24:	8c7ffc04 	addi	r17,r17,-16
   41f28:	9c41720e 	bge	r19,r17,424f4 <___vfprintf_internal_r+0x1928>
   41f2c:	18c00404 	addi	r3,r3,16
   41f30:	10800044 	addi	r2,r2,1
   41f34:	45000015 	stw	r20,0(r8)
   41f38:	44c00115 	stw	r19,4(r8)
   41f3c:	d8c12015 	stw	r3,1152(sp)
   41f40:	d8811f15 	stw	r2,1148(sp)
   41f44:	a8bff60e 	bge	r21,r2,41f20 <__alt_data_end+0xfffcc3c0>
   41f48:	b809883a 	mov	r4,r23
   41f4c:	b00b883a 	mov	r5,r22
   41f50:	d9811e04 	addi	r6,sp,1144
   41f54:	004800c0 	call	4800c <__sprint_r>
   41f58:	103c341e 	bne	r2,zero,4102c <__alt_data_end+0xfffcb4cc>
   41f5c:	d8c12017 	ldw	r3,1152(sp)
   41f60:	d8811f17 	ldw	r2,1148(sp)
   41f64:	da000404 	addi	r8,sp,16
   41f68:	003fee06 	br	41f24 <__alt_data_end+0xfffcc3c4>
   41f6c:	b809883a 	mov	r4,r23
   41f70:	b00b883a 	mov	r5,r22
   41f74:	d9811e04 	addi	r6,sp,1144
   41f78:	004800c0 	call	4800c <__sprint_r>
   41f7c:	103c2b1e 	bne	r2,zero,4102c <__alt_data_end+0xfffcb4cc>
   41f80:	d8c12017 	ldw	r3,1152(sp)
   41f84:	d8812787 	ldb	r2,1182(sp)
   41f88:	da000404 	addi	r8,sp,16
   41f8c:	003cce06 	br	412c8 <__alt_data_end+0xfffcb768>
   41f90:	d8813317 	ldw	r2,1228(sp)
   41f94:	14ffffc4 	addi	r19,r2,-1
   41f98:	04ff630e 	bge	zero,r19,41d28 <__alt_data_end+0xfffcc1c8>
   41f9c:	05400404 	movi	r21,16
   41fa0:	acc0810e 	bge	r21,r19,421a8 <___vfprintf_internal_r+0x15dc>
   41fa4:	01400174 	movhi	r5,5
   41fa8:	2941a984 	addi	r5,r5,1702
   41fac:	d9412c15 	stw	r5,1200(sp)
   41fb0:	01c001c4 	movi	r7,7
   41fb4:	00000306 	br	41fc4 <___vfprintf_internal_r+0x13f8>
   41fb8:	8c400204 	addi	r17,r17,8
   41fbc:	9cfffc04 	addi	r19,r19,-16
   41fc0:	acc07c0e 	bge	r21,r19,421b4 <___vfprintf_internal_r+0x15e8>
   41fc4:	18c00404 	addi	r3,r3,16
   41fc8:	84000044 	addi	r16,r16,1
   41fcc:	8d000015 	stw	r20,0(r17)
   41fd0:	8d400115 	stw	r21,4(r17)
   41fd4:	d8c12015 	stw	r3,1152(sp)
   41fd8:	dc011f15 	stw	r16,1148(sp)
   41fdc:	3c3ff60e 	bge	r7,r16,41fb8 <__alt_data_end+0xfffcc458>
   41fe0:	b809883a 	mov	r4,r23
   41fe4:	b00b883a 	mov	r5,r22
   41fe8:	d9811e04 	addi	r6,sp,1144
   41fec:	d9c13d15 	stw	r7,1268(sp)
   41ff0:	004800c0 	call	4800c <__sprint_r>
   41ff4:	d9c13d17 	ldw	r7,1268(sp)
   41ff8:	103c0c1e 	bne	r2,zero,4102c <__alt_data_end+0xfffcb4cc>
   41ffc:	d8c12017 	ldw	r3,1152(sp)
   42000:	dc011f17 	ldw	r16,1148(sp)
   42004:	dc400404 	addi	r17,sp,16
   42008:	003fec06 	br	41fbc <__alt_data_end+0xfffcc45c>
   4200c:	00800084 	movi	r2,2
   42010:	9546b03a 	or	r3,r18,r21
   42014:	003d7d06 	br	4160c <__alt_data_end+0xfffcbaac>
   42018:	10803fcc 	andi	r2,r2,255
   4201c:	1080201c 	xori	r2,r2,128
   42020:	10bfe004 	addi	r2,r2,-128
   42024:	01000c04 	movi	r4,48
   42028:	1101d726 	beq	r2,r4,42788 <___vfprintf_internal_r+0x1bbc>
   4202c:	d9413117 	ldw	r5,1220(sp)
   42030:	d8812817 	ldw	r2,1184(sp)
   42034:	193fffc5 	stb	r4,-1(r3)
   42038:	297fffc4 	addi	r5,r5,-1
   4203c:	d9413115 	stw	r5,1220(sp)
   42040:	1163c83a 	sub	r17,r2,r5
   42044:	003c5c06 	br	411b8 <__alt_data_end+0xfffcb658>
   42048:	b809883a 	mov	r4,r23
   4204c:	b00b883a 	mov	r5,r22
   42050:	d9811e04 	addi	r6,sp,1144
   42054:	004800c0 	call	4800c <__sprint_r>
   42058:	103bf41e 	bne	r2,zero,4102c <__alt_data_end+0xfffcb4cc>
   4205c:	d8c12017 	ldw	r3,1152(sp)
   42060:	da000404 	addi	r8,sp,16
   42064:	d9413117 	ldw	r5,1220(sp)
   42068:	d9013417 	ldw	r4,1232(sp)
   4206c:	d8812617 	ldw	r2,1176(sp)
   42070:	2923883a 	add	r17,r5,r4
   42074:	d9413317 	ldw	r5,1228(sp)
   42078:	11400216 	blt	r2,r5,42084 <___vfprintf_internal_r+0x14b8>
   4207c:	e100004c 	andi	r4,fp,1
   42080:	20000d26 	beq	r4,zero,420b8 <___vfprintf_internal_r+0x14ec>
   42084:	d9013817 	ldw	r4,1248(sp)
   42088:	d9413517 	ldw	r5,1236(sp)
   4208c:	1907883a 	add	r3,r3,r4
   42090:	d9011f17 	ldw	r4,1148(sp)
   42094:	41400015 	stw	r5,0(r8)
   42098:	d9413817 	ldw	r5,1248(sp)
   4209c:	21000044 	addi	r4,r4,1
   420a0:	d8c12015 	stw	r3,1152(sp)
   420a4:	41400115 	stw	r5,4(r8)
   420a8:	d9011f15 	stw	r4,1148(sp)
   420ac:	014001c4 	movi	r5,7
   420b0:	2901fd16 	blt	r5,r4,428a8 <___vfprintf_internal_r+0x1cdc>
   420b4:	42000204 	addi	r8,r8,8
   420b8:	d9013317 	ldw	r4,1228(sp)
   420bc:	2085c83a 	sub	r2,r4,r2
   420c0:	8449c83a 	sub	r4,r16,r17
   420c4:	1021883a 	mov	r16,r2
   420c8:	2080010e 	bge	r4,r2,420d0 <___vfprintf_internal_r+0x1504>
   420cc:	2021883a 	mov	r16,r4
   420d0:	04000a0e 	bge	zero,r16,420fc <___vfprintf_internal_r+0x1530>
   420d4:	d9011f17 	ldw	r4,1148(sp)
   420d8:	1c07883a 	add	r3,r3,r16
   420dc:	44400015 	stw	r17,0(r8)
   420e0:	21000044 	addi	r4,r4,1
   420e4:	44000115 	stw	r16,4(r8)
   420e8:	d8c12015 	stw	r3,1152(sp)
   420ec:	d9011f15 	stw	r4,1148(sp)
   420f0:	014001c4 	movi	r5,7
   420f4:	29020916 	blt	r5,r4,4291c <___vfprintf_internal_r+0x1d50>
   420f8:	42000204 	addi	r8,r8,8
   420fc:	80020116 	blt	r16,zero,42904 <___vfprintf_internal_r+0x1d38>
   42100:	1421c83a 	sub	r16,r2,r16
   42104:	043cc40e 	bge	zero,r16,41418 <__alt_data_end+0xfffcb8b8>
   42108:	04400404 	movi	r17,16
   4210c:	d8811f17 	ldw	r2,1148(sp)
   42110:	8c3f110e 	bge	r17,r16,41d58 <__alt_data_end+0xfffcc1f8>
   42114:	01400174 	movhi	r5,5
   42118:	2941a984 	addi	r5,r5,1702
   4211c:	d9412c15 	stw	r5,1200(sp)
   42120:	04c001c4 	movi	r19,7
   42124:	00000306 	br	42134 <___vfprintf_internal_r+0x1568>
   42128:	42000204 	addi	r8,r8,8
   4212c:	843ffc04 	addi	r16,r16,-16
   42130:	8c3f0c0e 	bge	r17,r16,41d64 <__alt_data_end+0xfffcc204>
   42134:	18c00404 	addi	r3,r3,16
   42138:	10800044 	addi	r2,r2,1
   4213c:	45000015 	stw	r20,0(r8)
   42140:	44400115 	stw	r17,4(r8)
   42144:	d8c12015 	stw	r3,1152(sp)
   42148:	d8811f15 	stw	r2,1148(sp)
   4214c:	98bff60e 	bge	r19,r2,42128 <__alt_data_end+0xfffcc5c8>
   42150:	b809883a 	mov	r4,r23
   42154:	b00b883a 	mov	r5,r22
   42158:	d9811e04 	addi	r6,sp,1144
   4215c:	004800c0 	call	4800c <__sprint_r>
   42160:	103bb21e 	bne	r2,zero,4102c <__alt_data_end+0xfffcb4cc>
   42164:	d8c12017 	ldw	r3,1152(sp)
   42168:	d8811f17 	ldw	r2,1148(sp)
   4216c:	da000404 	addi	r8,sp,16
   42170:	003fee06 	br	4212c <__alt_data_end+0xfffcc5cc>
   42174:	e088703a 	and	r4,fp,r2
   42178:	203ec01e 	bne	r4,zero,41c7c <__alt_data_end+0xfffcc11c>
   4217c:	dc011f17 	ldw	r16,1148(sp)
   42180:	d9013117 	ldw	r4,1220(sp)
   42184:	40800115 	stw	r2,4(r8)
   42188:	84000044 	addi	r16,r16,1
   4218c:	41000015 	stw	r4,0(r8)
   42190:	d8c12015 	stw	r3,1152(sp)
   42194:	dc011f15 	stw	r16,1148(sp)
   42198:	008001c4 	movi	r2,7
   4219c:	14000e16 	blt	r2,r16,421d8 <___vfprintf_internal_r+0x160c>
   421a0:	44400204 	addi	r17,r8,8
   421a4:	003ee006 	br	41d28 <__alt_data_end+0xfffcc1c8>
   421a8:	01000174 	movhi	r4,5
   421ac:	2101a984 	addi	r4,r4,1702
   421b0:	d9012c15 	stw	r4,1200(sp)
   421b4:	d8812c17 	ldw	r2,1200(sp)
   421b8:	1cc7883a 	add	r3,r3,r19
   421bc:	84000044 	addi	r16,r16,1
   421c0:	88800015 	stw	r2,0(r17)
   421c4:	8cc00115 	stw	r19,4(r17)
   421c8:	d8c12015 	stw	r3,1152(sp)
   421cc:	dc011f15 	stw	r16,1148(sp)
   421d0:	008001c4 	movi	r2,7
   421d4:	143ed30e 	bge	r2,r16,41d24 <__alt_data_end+0xfffcc1c4>
   421d8:	b809883a 	mov	r4,r23
   421dc:	b00b883a 	mov	r5,r22
   421e0:	d9811e04 	addi	r6,sp,1144
   421e4:	004800c0 	call	4800c <__sprint_r>
   421e8:	103b901e 	bne	r2,zero,4102c <__alt_data_end+0xfffcb4cc>
   421ec:	d8c12017 	ldw	r3,1152(sp)
   421f0:	dc011f17 	ldw	r16,1148(sp)
   421f4:	dc400404 	addi	r17,sp,16
   421f8:	003ecb06 	br	41d28 <__alt_data_end+0xfffcc1c8>
   421fc:	b809883a 	mov	r4,r23
   42200:	b00b883a 	mov	r5,r22
   42204:	d9811e04 	addi	r6,sp,1144
   42208:	004800c0 	call	4800c <__sprint_r>
   4220c:	103b871e 	bne	r2,zero,4102c <__alt_data_end+0xfffcb4cc>
   42210:	d8c12017 	ldw	r3,1152(sp)
   42214:	dc011f17 	ldw	r16,1148(sp)
   42218:	da000404 	addi	r8,sp,16
   4221c:	003ea206 	br	41ca8 <__alt_data_end+0xfffcc148>
   42220:	b809883a 	mov	r4,r23
   42224:	b00b883a 	mov	r5,r22
   42228:	d9811e04 	addi	r6,sp,1144
   4222c:	004800c0 	call	4800c <__sprint_r>
   42230:	103b7e1e 	bne	r2,zero,4102c <__alt_data_end+0xfffcb4cc>
   42234:	d8c12017 	ldw	r3,1152(sp)
   42238:	dc011f17 	ldw	r16,1148(sp)
   4223c:	dc400404 	addi	r17,sp,16
   42240:	003ea406 	br	41cd4 <__alt_data_end+0xfffcc174>
   42244:	b809883a 	mov	r4,r23
   42248:	b00b883a 	mov	r5,r22
   4224c:	d9811e04 	addi	r6,sp,1144
   42250:	004800c0 	call	4800c <__sprint_r>
   42254:	103b751e 	bne	r2,zero,4102c <__alt_data_end+0xfffcb4cc>
   42258:	d8c12017 	ldw	r3,1152(sp)
   4225c:	da000404 	addi	r8,sp,16
   42260:	003c3706 	br	41340 <__alt_data_end+0xfffcb7e0>
   42264:	04a5c83a 	sub	r18,zero,r18
   42268:	9004c03a 	cmpne	r2,r18,zero
   4226c:	056bc83a 	sub	r21,zero,r21
   42270:	a8abc83a 	sub	r21,r21,r2
   42274:	04c00b44 	movi	r19,45
   42278:	dcc12785 	stb	r19,1182(sp)
   4227c:	da413215 	stw	r9,1224(sp)
   42280:	00800044 	movi	r2,1
   42284:	9546b03a 	or	r3,r18,r21
   42288:	003bb106 	br	41150 <__alt_data_end+0xfffcb5f0>
   4228c:	da013f15 	stw	r8,1276(sp)
   42290:	da413e15 	stw	r9,1272(sp)
   42294:	0047c680 	call	47c68 <__fpclassifyd>
   42298:	da013f17 	ldw	r8,1276(sp)
   4229c:	da413e17 	ldw	r9,1272(sp)
   422a0:	1000e526 	beq	r2,zero,42638 <___vfprintf_internal_r+0x1a6c>
   422a4:	04fff7c4 	movi	r19,-33
   422a8:	00bfffc4 	movi	r2,-1
   422ac:	84e6703a 	and	r19,r16,r19
   422b0:	48822926 	beq	r9,r2,42b58 <___vfprintf_internal_r+0x1f8c>
   422b4:	008011c4 	movi	r2,71
   422b8:	98821626 	beq	r19,r2,42b14 <___vfprintf_internal_r+0x1f48>
   422bc:	d9013917 	ldw	r4,1252(sp)
   422c0:	e0c04014 	ori	r3,fp,256
   422c4:	d8c12d15 	stw	r3,1204(sp)
   422c8:	20021f16 	blt	r4,zero,42b48 <___vfprintf_internal_r+0x1f7c>
   422cc:	dc413917 	ldw	r17,1252(sp)
   422d0:	d8012b05 	stb	zero,1196(sp)
   422d4:	00801984 	movi	r2,102
   422d8:	80814d26 	beq	r16,r2,42810 <___vfprintf_internal_r+0x1c44>
   422dc:	00801184 	movi	r2,70
   422e0:	80814b26 	beq	r16,r2,42810 <___vfprintf_internal_r+0x1c44>
   422e4:	00801144 	movi	r2,69
   422e8:	98821d26 	beq	r19,r2,42b60 <___vfprintf_internal_r+0x1f94>
   422ec:	482b883a 	mov	r21,r9
   422f0:	d8812604 	addi	r2,sp,1176
   422f4:	d8800115 	stw	r2,4(sp)
   422f8:	d9413717 	ldw	r5,1244(sp)
   422fc:	d8812504 	addi	r2,sp,1172
   42300:	d8800215 	stw	r2,8(sp)
   42304:	d8812104 	addi	r2,sp,1156
   42308:	dd400015 	stw	r21,0(sp)
   4230c:	d8800315 	stw	r2,12(sp)
   42310:	b809883a 	mov	r4,r23
   42314:	880d883a 	mov	r6,r17
   42318:	01c00084 	movi	r7,2
   4231c:	da013f15 	stw	r8,1276(sp)
   42320:	da413e15 	stw	r9,1272(sp)
   42324:	00430440 	call	43044 <_dtoa_r>
   42328:	d8813115 	stw	r2,1220(sp)
   4232c:	008019c4 	movi	r2,103
   42330:	da013f17 	ldw	r8,1276(sp)
   42334:	da413e17 	ldw	r9,1272(sp)
   42338:	80800226 	beq	r16,r2,42344 <___vfprintf_internal_r+0x1778>
   4233c:	008011c4 	movi	r2,71
   42340:	8081451e 	bne	r16,r2,42858 <___vfprintf_internal_r+0x1c8c>
   42344:	e080004c 	andi	r2,fp,1
   42348:	10021e26 	beq	r2,zero,42bc4 <___vfprintf_internal_r+0x1ff8>
   4234c:	d8c13117 	ldw	r3,1220(sp)
   42350:	1d55883a 	add	r10,r3,r21
   42354:	d9013717 	ldw	r4,1244(sp)
   42358:	880b883a 	mov	r5,r17
   4235c:	000d883a 	mov	r6,zero
   42360:	000f883a 	mov	r7,zero
   42364:	da013f15 	stw	r8,1276(sp)
   42368:	da413e15 	stw	r9,1272(sp)
   4236c:	da813d15 	stw	r10,1268(sp)
   42370:	004bd3c0 	call	4bd3c <__eqdf2>
   42374:	da013f17 	ldw	r8,1276(sp)
   42378:	da413e17 	ldw	r9,1272(sp)
   4237c:	da813d17 	ldw	r10,1268(sp)
   42380:	1001a126 	beq	r2,zero,42a08 <___vfprintf_internal_r+0x1e3c>
   42384:	d8812117 	ldw	r2,1156(sp)
   42388:	1280062e 	bgeu	r2,r10,423a4 <___vfprintf_internal_r+0x17d8>
   4238c:	01000c04 	movi	r4,48
   42390:	10c00044 	addi	r3,r2,1
   42394:	d8c12115 	stw	r3,1156(sp)
   42398:	11000005 	stb	r4,0(r2)
   4239c:	d8812117 	ldw	r2,1156(sp)
   423a0:	12bffb36 	bltu	r2,r10,42390 <__alt_data_end+0xfffcc830>
   423a4:	d8c13117 	ldw	r3,1220(sp)
   423a8:	10c5c83a 	sub	r2,r2,r3
   423ac:	d8813315 	stw	r2,1228(sp)
   423b0:	008011c4 	movi	r2,71
   423b4:	98818926 	beq	r19,r2,429dc <___vfprintf_internal_r+0x1e10>
   423b8:	00801944 	movi	r2,101
   423bc:	14023c0e 	bge	r2,r16,42cb0 <___vfprintf_internal_r+0x20e4>
   423c0:	d8c12617 	ldw	r3,1176(sp)
   423c4:	00801984 	movi	r2,102
   423c8:	d8c13415 	stw	r3,1232(sp)
   423cc:	8081ef26 	beq	r16,r2,42b8c <___vfprintf_internal_r+0x1fc0>
   423d0:	d8c13417 	ldw	r3,1232(sp)
   423d4:	d9013317 	ldw	r4,1228(sp)
   423d8:	1901e316 	blt	r3,r4,42b68 <___vfprintf_internal_r+0x1f9c>
   423dc:	e080004c 	andi	r2,fp,1
   423e0:	1001f426 	beq	r2,zero,42bb4 <___vfprintf_internal_r+0x1fe8>
   423e4:	d8c13417 	ldw	r3,1232(sp)
   423e8:	1c400044 	addi	r17,r3,1
   423ec:	8839883a 	mov	fp,r17
   423f0:	8801e416 	blt	r17,zero,42b84 <___vfprintf_internal_r+0x1fb8>
   423f4:	dd412b07 	ldb	r21,1196(sp)
   423f8:	a801701e 	bne	r21,zero,429bc <___vfprintf_internal_r+0x1df0>
   423fc:	df012b15 	stw	fp,1196(sp)
   42400:	dcc12783 	ldbu	r19,1182(sp)
   42404:	df012d17 	ldw	fp,1204(sp)
   42408:	d8013215 	stw	zero,1224(sp)
   4240c:	dc812d15 	stw	r18,1204(sp)
   42410:	003b6e06 	br	411cc <__alt_data_end+0xfffcb66c>
   42414:	e080040c 	andi	r2,fp,16
   42418:	1000b51e 	bne	r2,zero,426f0 <___vfprintf_internal_r+0x1b24>
   4241c:	e080100c 	andi	r2,fp,64
   42420:	10015b26 	beq	r2,zero,42990 <___vfprintf_internal_r+0x1dc4>
   42424:	d9012d17 	ldw	r4,1204(sp)
   42428:	d9412f17 	ldw	r5,1212(sp)
   4242c:	20800017 	ldw	r2,0(r4)
   42430:	21000104 	addi	r4,r4,4
   42434:	d9012d15 	stw	r4,1204(sp)
   42438:	1140000d 	sth	r5,0(r2)
   4243c:	003a2006 	br	40cc0 <__alt_data_end+0xfffcb160>
   42440:	e0c0100c 	andi	r3,fp,64
   42444:	1800a226 	beq	r3,zero,426d0 <___vfprintf_internal_r+0x1b04>
   42448:	d8c12d17 	ldw	r3,1204(sp)
   4244c:	1480000b 	ldhu	r18,0(r2)
   42450:	002b883a 	mov	r21,zero
   42454:	18c00104 	addi	r3,r3,4
   42458:	d8c12d15 	stw	r3,1204(sp)
   4245c:	0005883a 	mov	r2,zero
   42460:	9007883a 	mov	r3,r18
   42464:	003c6906 	br	4160c <__alt_data_end+0xfffcbaac>
   42468:	e0c0100c 	andi	r3,fp,64
   4246c:	18009026 	beq	r3,zero,426b0 <___vfprintf_internal_r+0x1ae4>
   42470:	1480000b 	ldhu	r18,0(r2)
   42474:	d8812d17 	ldw	r2,1204(sp)
   42478:	002b883a 	mov	r21,zero
   4247c:	9007883a 	mov	r3,r18
   42480:	10800104 	addi	r2,r2,4
   42484:	d8812d15 	stw	r2,1204(sp)
   42488:	00800044 	movi	r2,1
   4248c:	003c5f06 	br	4160c <__alt_data_end+0xfffcbaac>
   42490:	e0c0100c 	andi	r3,fp,64
   42494:	18008026 	beq	r3,zero,42698 <___vfprintf_internal_r+0x1acc>
   42498:	d9012d17 	ldw	r4,1204(sp)
   4249c:	1480000b 	ldhu	r18,0(r2)
   424a0:	002b883a 	mov	r21,zero
   424a4:	21000104 	addi	r4,r4,4
   424a8:	d9012d15 	stw	r4,1204(sp)
   424ac:	003c7906 	br	41694 <__alt_data_end+0xfffcbb34>
   424b0:	e080100c 	andi	r2,fp,64
   424b4:	10007126 	beq	r2,zero,4267c <___vfprintf_internal_r+0x1ab0>
   424b8:	1c80000f 	ldh	r18,0(r3)
   424bc:	d8812d17 	ldw	r2,1204(sp)
   424c0:	902bd7fa 	srai	r21,r18,31
   424c4:	10800104 	addi	r2,r2,4
   424c8:	d8812d15 	stw	r2,1204(sp)
   424cc:	a805883a 	mov	r2,r21
   424d0:	003b1a06 	br	4113c <__alt_data_end+0xfffcb5dc>
   424d4:	e4000007 	ldb	r16,0(fp)
   424d8:	e005883a 	mov	r2,fp
   424dc:	003a2306 	br	40d6c <__alt_data_end+0xfffcb20c>
   424e0:	00800084 	movi	r2,2
   424e4:	003c4906 	br	4160c <__alt_data_end+0xfffcbaac>
   424e8:	01000174 	movhi	r4,5
   424ec:	2101a984 	addi	r4,r4,1702
   424f0:	d9012c15 	stw	r4,1200(sp)
   424f4:	d9012c17 	ldw	r4,1200(sp)
   424f8:	1c47883a 	add	r3,r3,r17
   424fc:	10800044 	addi	r2,r2,1
   42500:	41000015 	stw	r4,0(r8)
   42504:	44400115 	stw	r17,4(r8)
   42508:	d8c12015 	stw	r3,1152(sp)
   4250c:	d8811f15 	stw	r2,1148(sp)
   42510:	010001c4 	movi	r4,7
   42514:	20becc16 	blt	r4,r2,42048 <__alt_data_end+0xfffcc4e8>
   42518:	42000204 	addi	r8,r8,8
   4251c:	003ed106 	br	42064 <__alt_data_end+0xfffcc504>
   42520:	01000174 	movhi	r4,5
   42524:	2101a984 	addi	r4,r4,1702
   42528:	d9012c15 	stw	r4,1200(sp)
   4252c:	003ba306 	br	413bc <__alt_data_end+0xfffcb85c>
   42530:	b809883a 	mov	r4,r23
   42534:	b00b883a 	mov	r5,r22
   42538:	d9811e04 	addi	r6,sp,1144
   4253c:	004800c0 	call	4800c <__sprint_r>
   42540:	103aba1e 	bne	r2,zero,4102c <__alt_data_end+0xfffcb4cc>
   42544:	d8c12017 	ldw	r3,1152(sp)
   42548:	da000404 	addi	r8,sp,16
   4254c:	003d6c06 	br	41b00 <__alt_data_end+0xfffcbfa0>
   42550:	d8811f17 	ldw	r2,1148(sp)
   42554:	01400174 	movhi	r5,5
   42558:	01000044 	movi	r4,1
   4255c:	18c00044 	addi	r3,r3,1
   42560:	10800044 	addi	r2,r2,1
   42564:	2941a904 	addi	r5,r5,1700
   42568:	41000115 	stw	r4,4(r8)
   4256c:	41400015 	stw	r5,0(r8)
   42570:	d8c12015 	stw	r3,1152(sp)
   42574:	d8811f15 	stw	r2,1148(sp)
   42578:	010001c4 	movi	r4,7
   4257c:	20806716 	blt	r4,r2,4271c <___vfprintf_internal_r+0x1b50>
   42580:	42000204 	addi	r8,r8,8
   42584:	8000041e 	bne	r16,zero,42598 <___vfprintf_internal_r+0x19cc>
   42588:	d8813317 	ldw	r2,1228(sp)
   4258c:	1000021e 	bne	r2,zero,42598 <___vfprintf_internal_r+0x19cc>
   42590:	e080004c 	andi	r2,fp,1
   42594:	103ba026 	beq	r2,zero,41418 <__alt_data_end+0xfffcb8b8>
   42598:	d9013817 	ldw	r4,1248(sp)
   4259c:	d8811f17 	ldw	r2,1148(sp)
   425a0:	d9413517 	ldw	r5,1236(sp)
   425a4:	1907883a 	add	r3,r3,r4
   425a8:	10800044 	addi	r2,r2,1
   425ac:	41000115 	stw	r4,4(r8)
   425b0:	41400015 	stw	r5,0(r8)
   425b4:	d8c12015 	stw	r3,1152(sp)
   425b8:	d8811f15 	stw	r2,1148(sp)
   425bc:	010001c4 	movi	r4,7
   425c0:	20815716 	blt	r4,r2,42b20 <___vfprintf_internal_r+0x1f54>
   425c4:	42000204 	addi	r8,r8,8
   425c8:	0421c83a 	sub	r16,zero,r16
   425cc:	0400810e 	bge	zero,r16,427d4 <___vfprintf_internal_r+0x1c08>
   425d0:	04400404 	movi	r17,16
   425d4:	8c00bd0e 	bge	r17,r16,428cc <___vfprintf_internal_r+0x1d00>
   425d8:	01400174 	movhi	r5,5
   425dc:	2941a984 	addi	r5,r5,1702
   425e0:	d9412c15 	stw	r5,1200(sp)
   425e4:	04c001c4 	movi	r19,7
   425e8:	00000306 	br	425f8 <___vfprintf_internal_r+0x1a2c>
   425ec:	42000204 	addi	r8,r8,8
   425f0:	843ffc04 	addi	r16,r16,-16
   425f4:	8c00b80e 	bge	r17,r16,428d8 <___vfprintf_internal_r+0x1d0c>
   425f8:	18c00404 	addi	r3,r3,16
   425fc:	10800044 	addi	r2,r2,1
   42600:	45000015 	stw	r20,0(r8)
   42604:	44400115 	stw	r17,4(r8)
   42608:	d8c12015 	stw	r3,1152(sp)
   4260c:	d8811f15 	stw	r2,1148(sp)
   42610:	98bff60e 	bge	r19,r2,425ec <__alt_data_end+0xfffcca8c>
   42614:	b809883a 	mov	r4,r23
   42618:	b00b883a 	mov	r5,r22
   4261c:	d9811e04 	addi	r6,sp,1144
   42620:	004800c0 	call	4800c <__sprint_r>
   42624:	103a811e 	bne	r2,zero,4102c <__alt_data_end+0xfffcb4cc>
   42628:	d8c12017 	ldw	r3,1152(sp)
   4262c:	d8811f17 	ldw	r2,1148(sp)
   42630:	da000404 	addi	r8,sp,16
   42634:	003fee06 	br	425f0 <__alt_data_end+0xfffcca90>
   42638:	008011c4 	movi	r2,71
   4263c:	1400db16 	blt	r2,r16,429ac <___vfprintf_internal_r+0x1de0>
   42640:	01000174 	movhi	r4,5
   42644:	21019b04 	addi	r4,r4,1644
   42648:	d9013115 	stw	r4,1220(sp)
   4264c:	00c000c4 	movi	r3,3
   42650:	00bfdfc4 	movi	r2,-129
   42654:	d8c12b15 	stw	r3,1196(sp)
   42658:	e0b8703a 	and	fp,fp,r2
   4265c:	dcc12783 	ldbu	r19,1182(sp)
   42660:	dc812d15 	stw	r18,1204(sp)
   42664:	1823883a 	mov	r17,r3
   42668:	d8013215 	stw	zero,1224(sp)
   4266c:	d8013415 	stw	zero,1232(sp)
   42670:	003ad606 	br	411cc <__alt_data_end+0xfffcb66c>
   42674:	4823883a 	mov	r17,r9
   42678:	003cc906 	br	419a0 <__alt_data_end+0xfffcbe40>
   4267c:	1c800017 	ldw	r18,0(r3)
   42680:	d8c12d17 	ldw	r3,1204(sp)
   42684:	902bd7fa 	srai	r21,r18,31
   42688:	18c00104 	addi	r3,r3,4
   4268c:	d8c12d15 	stw	r3,1204(sp)
   42690:	a805883a 	mov	r2,r21
   42694:	003aa906 	br	4113c <__alt_data_end+0xfffcb5dc>
   42698:	d9412d17 	ldw	r5,1204(sp)
   4269c:	14800017 	ldw	r18,0(r2)
   426a0:	002b883a 	mov	r21,zero
   426a4:	29400104 	addi	r5,r5,4
   426a8:	d9412d15 	stw	r5,1204(sp)
   426ac:	003bf906 	br	41694 <__alt_data_end+0xfffcbb34>
   426b0:	d8c12d17 	ldw	r3,1204(sp)
   426b4:	14800017 	ldw	r18,0(r2)
   426b8:	002b883a 	mov	r21,zero
   426bc:	18c00104 	addi	r3,r3,4
   426c0:	d8c12d15 	stw	r3,1204(sp)
   426c4:	00800044 	movi	r2,1
   426c8:	9007883a 	mov	r3,r18
   426cc:	003bcf06 	br	4160c <__alt_data_end+0xfffcbaac>
   426d0:	d9012d17 	ldw	r4,1204(sp)
   426d4:	14800017 	ldw	r18,0(r2)
   426d8:	002b883a 	mov	r21,zero
   426dc:	21000104 	addi	r4,r4,4
   426e0:	d9012d15 	stw	r4,1204(sp)
   426e4:	0005883a 	mov	r2,zero
   426e8:	9007883a 	mov	r3,r18
   426ec:	003bc706 	br	4160c <__alt_data_end+0xfffcbaac>
   426f0:	d9412d17 	ldw	r5,1204(sp)
   426f4:	d8c12f17 	ldw	r3,1212(sp)
   426f8:	28800017 	ldw	r2,0(r5)
   426fc:	29400104 	addi	r5,r5,4
   42700:	d9412d15 	stw	r5,1204(sp)
   42704:	10c00015 	stw	r3,0(r2)
   42708:	00396d06 	br	40cc0 <__alt_data_end+0xfffcb160>
   4270c:	01000174 	movhi	r4,5
   42710:	21019904 	addi	r4,r4,1636
   42714:	d9013115 	stw	r4,1220(sp)
   42718:	003ba206 	br	415a4 <__alt_data_end+0xfffcba44>
   4271c:	b809883a 	mov	r4,r23
   42720:	b00b883a 	mov	r5,r22
   42724:	d9811e04 	addi	r6,sp,1144
   42728:	004800c0 	call	4800c <__sprint_r>
   4272c:	103a3f1e 	bne	r2,zero,4102c <__alt_data_end+0xfffcb4cc>
   42730:	dc012617 	ldw	r16,1176(sp)
   42734:	d8c12017 	ldw	r3,1152(sp)
   42738:	da000404 	addi	r8,sp,16
   4273c:	003f9106 	br	42584 <__alt_data_end+0xfffcca24>
   42740:	e0800044 	addi	r2,fp,1
   42744:	9cc00814 	ori	r19,r19,32
   42748:	e4000047 	ldb	r16,1(fp)
   4274c:	00398706 	br	40d6c <__alt_data_end+0xfffcb20c>
   42750:	d8812e17 	ldw	r2,1208(sp)
   42754:	d8c12d15 	stw	r3,1204(sp)
   42758:	0085c83a 	sub	r2,zero,r2
   4275c:	d8812e15 	stw	r2,1208(sp)
   42760:	e005883a 	mov	r2,fp
   42764:	003a3a06 	br	41050 <__alt_data_end+0xfffcb4f0>
   42768:	b809883a 	mov	r4,r23
   4276c:	b00b883a 	mov	r5,r22
   42770:	d9811e04 	addi	r6,sp,1144
   42774:	004800c0 	call	4800c <__sprint_r>
   42778:	103a2c1e 	bne	r2,zero,4102c <__alt_data_end+0xfffcb4cc>
   4277c:	d8c12017 	ldw	r3,1152(sp)
   42780:	da000404 	addi	r8,sp,16
   42784:	003cf006 	br	41b48 <__alt_data_end+0xfffcbfe8>
   42788:	d8c12817 	ldw	r3,1184(sp)
   4278c:	d9013117 	ldw	r4,1220(sp)
   42790:	1923c83a 	sub	r17,r3,r4
   42794:	003a8806 	br	411b8 <__alt_data_end+0xfffcb658>
   42798:	da013f15 	stw	r8,1276(sp)
   4279c:	0040b340 	call	40b34 <strlen>
   427a0:	1023883a 	mov	r17,r2
   427a4:	da013f17 	ldw	r8,1276(sp)
   427a8:	883c7f0e 	bge	r17,zero,419a8 <__alt_data_end+0xfffcbe48>
   427ac:	0005883a 	mov	r2,zero
   427b0:	003c7d06 	br	419a8 <__alt_data_end+0xfffcbe48>
   427b4:	b809883a 	mov	r4,r23
   427b8:	b00b883a 	mov	r5,r22
   427bc:	d9811e04 	addi	r6,sp,1144
   427c0:	004800c0 	call	4800c <__sprint_r>
   427c4:	103a191e 	bne	r2,zero,4102c <__alt_data_end+0xfffcb4cc>
   427c8:	d8c12017 	ldw	r3,1152(sp)
   427cc:	d8811f17 	ldw	r2,1148(sp)
   427d0:	da000404 	addi	r8,sp,16
   427d4:	d9413317 	ldw	r5,1228(sp)
   427d8:	d9013117 	ldw	r4,1220(sp)
   427dc:	10800044 	addi	r2,r2,1
   427e0:	28c7883a 	add	r3,r5,r3
   427e4:	41000015 	stw	r4,0(r8)
   427e8:	41400115 	stw	r5,4(r8)
   427ec:	d8c12015 	stw	r3,1152(sp)
   427f0:	d8811f15 	stw	r2,1148(sp)
   427f4:	010001c4 	movi	r4,7
   427f8:	20bb060e 	bge	r4,r2,41414 <__alt_data_end+0xfffcb8b4>
   427fc:	003d6206 	br	41d88 <__alt_data_end+0xfffcc228>
   42800:	01000174 	movhi	r4,5
   42804:	2101ad84 	addi	r4,r4,1718
   42808:	d9013615 	stw	r4,1240(sp)
   4280c:	003aa306 	br	4129c <__alt_data_end+0xfffcb73c>
   42810:	d8812604 	addi	r2,sp,1176
   42814:	d8800115 	stw	r2,4(sp)
   42818:	d9413717 	ldw	r5,1244(sp)
   4281c:	d8812504 	addi	r2,sp,1172
   42820:	d8800215 	stw	r2,8(sp)
   42824:	d8812104 	addi	r2,sp,1156
   42828:	da400015 	stw	r9,0(sp)
   4282c:	d8800315 	stw	r2,12(sp)
   42830:	b809883a 	mov	r4,r23
   42834:	880d883a 	mov	r6,r17
   42838:	01c000c4 	movi	r7,3
   4283c:	da013f15 	stw	r8,1276(sp)
   42840:	da413e15 	stw	r9,1272(sp)
   42844:	00430440 	call	43044 <_dtoa_r>
   42848:	da413e17 	ldw	r9,1272(sp)
   4284c:	da013f17 	ldw	r8,1276(sp)
   42850:	d8813115 	stw	r2,1220(sp)
   42854:	482b883a 	mov	r21,r9
   42858:	d8c13117 	ldw	r3,1220(sp)
   4285c:	00801184 	movi	r2,70
   42860:	1d55883a 	add	r10,r3,r21
   42864:	98bebb1e 	bne	r19,r2,42354 <__alt_data_end+0xfffcc7f4>
   42868:	19000007 	ldb	r4,0(r3)
   4286c:	00800c04 	movi	r2,48
   42870:	2080dd26 	beq	r4,r2,42be8 <___vfprintf_internal_r+0x201c>
   42874:	d8c12617 	ldw	r3,1176(sp)
   42878:	50d5883a 	add	r10,r10,r3
   4287c:	003eb506 	br	42354 <__alt_data_end+0xfffcc7f4>
   42880:	0023883a 	mov	r17,zero
   42884:	003d9b06 	br	41ef4 <__alt_data_end+0xfffcc394>
   42888:	b809883a 	mov	r4,r23
   4288c:	b00b883a 	mov	r5,r22
   42890:	d9811e04 	addi	r6,sp,1144
   42894:	004800c0 	call	4800c <__sprint_r>
   42898:	1039e41e 	bne	r2,zero,4102c <__alt_data_end+0xfffcb4cc>
   4289c:	d8c12017 	ldw	r3,1152(sp)
   428a0:	da000404 	addi	r8,sp,16
   428a4:	003d9206 	br	41ef0 <__alt_data_end+0xfffcc390>
   428a8:	b809883a 	mov	r4,r23
   428ac:	b00b883a 	mov	r5,r22
   428b0:	d9811e04 	addi	r6,sp,1144
   428b4:	004800c0 	call	4800c <__sprint_r>
   428b8:	1039dc1e 	bne	r2,zero,4102c <__alt_data_end+0xfffcb4cc>
   428bc:	d8812617 	ldw	r2,1176(sp)
   428c0:	d8c12017 	ldw	r3,1152(sp)
   428c4:	da000404 	addi	r8,sp,16
   428c8:	003dfb06 	br	420b8 <__alt_data_end+0xfffcc558>
   428cc:	01000174 	movhi	r4,5
   428d0:	2101a984 	addi	r4,r4,1702
   428d4:	d9012c15 	stw	r4,1200(sp)
   428d8:	d9012c17 	ldw	r4,1200(sp)
   428dc:	1c07883a 	add	r3,r3,r16
   428e0:	10800044 	addi	r2,r2,1
   428e4:	41000015 	stw	r4,0(r8)
   428e8:	44000115 	stw	r16,4(r8)
   428ec:	d8c12015 	stw	r3,1152(sp)
   428f0:	d8811f15 	stw	r2,1148(sp)
   428f4:	010001c4 	movi	r4,7
   428f8:	20bfae16 	blt	r4,r2,427b4 <__alt_data_end+0xfffccc54>
   428fc:	42000204 	addi	r8,r8,8
   42900:	003fb406 	br	427d4 <__alt_data_end+0xfffccc74>
   42904:	0021883a 	mov	r16,zero
   42908:	003dfd06 	br	42100 <__alt_data_end+0xfffcc5a0>
   4290c:	01400174 	movhi	r5,5
   42910:	2941ad84 	addi	r5,r5,1718
   42914:	d9413615 	stw	r5,1240(sp)
   42918:	003ae306 	br	414a8 <__alt_data_end+0xfffcb948>
   4291c:	b809883a 	mov	r4,r23
   42920:	b00b883a 	mov	r5,r22
   42924:	d9811e04 	addi	r6,sp,1144
   42928:	004800c0 	call	4800c <__sprint_r>
   4292c:	1039bf1e 	bne	r2,zero,4102c <__alt_data_end+0xfffcb4cc>
   42930:	d8812617 	ldw	r2,1176(sp)
   42934:	d9413317 	ldw	r5,1228(sp)
   42938:	d8c12017 	ldw	r3,1152(sp)
   4293c:	da000404 	addi	r8,sp,16
   42940:	2885c83a 	sub	r2,r5,r2
   42944:	003ded06 	br	420fc <__alt_data_end+0xfffcc59c>
   42948:	00800184 	movi	r2,6
   4294c:	1240012e 	bgeu	r2,r9,42954 <___vfprintf_internal_r+0x1d88>
   42950:	1013883a 	mov	r9,r2
   42954:	4823883a 	mov	r17,r9
   42958:	4805883a 	mov	r2,r9
   4295c:	4800b216 	blt	r9,zero,42c28 <___vfprintf_internal_r+0x205c>
   42960:	01400174 	movhi	r5,5
   42964:	2941a704 	addi	r5,r5,1692
   42968:	d8812b15 	stw	r2,1196(sp)
   4296c:	dc812d15 	stw	r18,1204(sp)
   42970:	d8013215 	stw	zero,1224(sp)
   42974:	d8013415 	stw	zero,1232(sp)
   42978:	d9413115 	stw	r5,1220(sp)
   4297c:	0005883a 	mov	r2,zero
   42980:	003a1906 	br	411e8 <__alt_data_end+0xfffcb688>
   42984:	04c00b44 	movi	r19,45
   42988:	dcc12785 	stb	r19,1182(sp)
   4298c:	003b0006 	br	41590 <__alt_data_end+0xfffcba30>
   42990:	d8c12d17 	ldw	r3,1204(sp)
   42994:	d9012f17 	ldw	r4,1212(sp)
   42998:	18800017 	ldw	r2,0(r3)
   4299c:	18c00104 	addi	r3,r3,4
   429a0:	d8c12d15 	stw	r3,1204(sp)
   429a4:	11000015 	stw	r4,0(r2)
   429a8:	0038c506 	br	40cc0 <__alt_data_end+0xfffcb160>
   429ac:	01400174 	movhi	r5,5
   429b0:	29419c04 	addi	r5,r5,1648
   429b4:	d9413115 	stw	r5,1220(sp)
   429b8:	003f2406 	br	4264c <__alt_data_end+0xfffccaec>
   429bc:	00800b44 	movi	r2,45
   429c0:	d8812785 	stb	r2,1182(sp)
   429c4:	df012b15 	stw	fp,1196(sp)
   429c8:	d8013215 	stw	zero,1224(sp)
   429cc:	df012d17 	ldw	fp,1204(sp)
   429d0:	00800b44 	movi	r2,45
   429d4:	dc812d15 	stw	r18,1204(sp)
   429d8:	003a0006 	br	411dc <__alt_data_end+0xfffcb67c>
   429dc:	d8c12617 	ldw	r3,1176(sp)
   429e0:	00bfff44 	movi	r2,-3
   429e4:	18800a16 	blt	r3,r2,42a10 <___vfprintf_internal_r+0x1e44>
   429e8:	48c00916 	blt	r9,r3,42a10 <___vfprintf_internal_r+0x1e44>
   429ec:	d8c13415 	stw	r3,1232(sp)
   429f0:	040019c4 	movi	r16,103
   429f4:	003e7606 	br	423d0 <__alt_data_end+0xfffcc870>
   429f8:	01000174 	movhi	r4,5
   429fc:	2101a984 	addi	r4,r4,1702
   42a00:	d9012c15 	stw	r4,1200(sp)
   42a04:	003c8e06 	br	41c40 <__alt_data_end+0xfffcc0e0>
   42a08:	5005883a 	mov	r2,r10
   42a0c:	003e6506 	br	423a4 <__alt_data_end+0xfffcc844>
   42a10:	843fff84 	addi	r16,r16,-2
   42a14:	1d7fffc4 	addi	r21,r3,-1
   42a18:	dd412615 	stw	r21,1176(sp)
   42a1c:	dc0122c5 	stb	r16,1163(sp)
   42a20:	a8009216 	blt	r21,zero,42c6c <___vfprintf_internal_r+0x20a0>
   42a24:	00800ac4 	movi	r2,43
   42a28:	d8812305 	stb	r2,1164(sp)
   42a2c:	00800244 	movi	r2,9
   42a30:	1540660e 	bge	r2,r21,42bcc <___vfprintf_internal_r+0x2000>
   42a34:	dcc122c4 	addi	r19,sp,1163
   42a38:	dc012c15 	stw	r16,1200(sp)
   42a3c:	4023883a 	mov	r17,r8
   42a40:	9821883a 	mov	r16,r19
   42a44:	a809883a 	mov	r4,r21
   42a48:	01400284 	movi	r5,10
   42a4c:	00408f00 	call	408f0 <__modsi3>
   42a50:	10800c04 	addi	r2,r2,48
   42a54:	843fffc4 	addi	r16,r16,-1
   42a58:	a809883a 	mov	r4,r21
   42a5c:	01400284 	movi	r5,10
   42a60:	80800005 	stb	r2,0(r16)
   42a64:	004089c0 	call	4089c <__divsi3>
   42a68:	01000244 	movi	r4,9
   42a6c:	102b883a 	mov	r21,r2
   42a70:	20bff416 	blt	r4,r2,42a44 <__alt_data_end+0xfffccee4>
   42a74:	8811883a 	mov	r8,r17
   42a78:	10800c04 	addi	r2,r2,48
   42a7c:	8023883a 	mov	r17,r16
   42a80:	897fffc4 	addi	r5,r17,-1
   42a84:	88bfffc5 	stb	r2,-1(r17)
   42a88:	dc012c17 	ldw	r16,1200(sp)
   42a8c:	2cc08a2e 	bgeu	r5,r19,42cb8 <___vfprintf_internal_r+0x20ec>
   42a90:	d9812384 	addi	r6,sp,1166
   42a94:	344dc83a 	sub	r6,r6,r17
   42a98:	d9012344 	addi	r4,sp,1165
   42a9c:	998d883a 	add	r6,r19,r6
   42aa0:	00000106 	br	42aa8 <___vfprintf_internal_r+0x1edc>
   42aa4:	28800003 	ldbu	r2,0(r5)
   42aa8:	20800005 	stb	r2,0(r4)
   42aac:	21000044 	addi	r4,r4,1
   42ab0:	29400044 	addi	r5,r5,1
   42ab4:	21bffb1e 	bne	r4,r6,42aa4 <__alt_data_end+0xfffccf44>
   42ab8:	d8812304 	addi	r2,sp,1164
   42abc:	1445c83a 	sub	r2,r2,r17
   42ac0:	d9412344 	addi	r5,sp,1165
   42ac4:	2885883a 	add	r2,r5,r2
   42ac8:	14e7c83a 	sub	r19,r2,r19
   42acc:	d8813317 	ldw	r2,1228(sp)
   42ad0:	d8c13317 	ldw	r3,1228(sp)
   42ad4:	dcc13a15 	stw	r19,1256(sp)
   42ad8:	14e3883a 	add	r17,r2,r19
   42adc:	00800044 	movi	r2,1
   42ae0:	10c0550e 	bge	r2,r3,42c38 <___vfprintf_internal_r+0x206c>
   42ae4:	8c400044 	addi	r17,r17,1
   42ae8:	8839883a 	mov	fp,r17
   42aec:	88005016 	blt	r17,zero,42c30 <___vfprintf_internal_r+0x2064>
   42af0:	d8013415 	stw	zero,1232(sp)
   42af4:	003e3f06 	br	423f4 <__alt_data_end+0xfffcc894>
   42af8:	da412b15 	stw	r9,1196(sp)
   42afc:	dcc12783 	ldbu	r19,1182(sp)
   42b00:	4823883a 	mov	r17,r9
   42b04:	dc812d15 	stw	r18,1204(sp)
   42b08:	d8013215 	stw	zero,1224(sp)
   42b0c:	d8013415 	stw	zero,1232(sp)
   42b10:	0039ae06 	br	411cc <__alt_data_end+0xfffcb66c>
   42b14:	483de91e 	bne	r9,zero,422bc <__alt_data_end+0xfffcc75c>
   42b18:	8813883a 	mov	r9,r17
   42b1c:	003de706 	br	422bc <__alt_data_end+0xfffcc75c>
   42b20:	b809883a 	mov	r4,r23
   42b24:	b00b883a 	mov	r5,r22
   42b28:	d9811e04 	addi	r6,sp,1144
   42b2c:	004800c0 	call	4800c <__sprint_r>
   42b30:	10393e1e 	bne	r2,zero,4102c <__alt_data_end+0xfffcb4cc>
   42b34:	dc012617 	ldw	r16,1176(sp)
   42b38:	d8c12017 	ldw	r3,1152(sp)
   42b3c:	d8811f17 	ldw	r2,1148(sp)
   42b40:	da000404 	addi	r8,sp,16
   42b44:	003ea006 	br	425c8 <__alt_data_end+0xfffcca68>
   42b48:	00c00b44 	movi	r3,45
   42b4c:	2460003c 	xorhi	r17,r4,32768
   42b50:	d8c12b05 	stb	r3,1196(sp)
   42b54:	003ddf06 	br	422d4 <__alt_data_end+0xfffcc774>
   42b58:	02400184 	movi	r9,6
   42b5c:	003dd706 	br	422bc <__alt_data_end+0xfffcc75c>
   42b60:	4d400044 	addi	r21,r9,1
   42b64:	003de206 	br	422f0 <__alt_data_end+0xfffcc790>
   42b68:	d8c13417 	ldw	r3,1232(sp)
   42b6c:	00c0490e 	bge	zero,r3,42c94 <___vfprintf_internal_r+0x20c8>
   42b70:	04400044 	movi	r17,1
   42b74:	d9013317 	ldw	r4,1228(sp)
   42b78:	8923883a 	add	r17,r17,r4
   42b7c:	8839883a 	mov	fp,r17
   42b80:	883e1c0e 	bge	r17,zero,423f4 <__alt_data_end+0xfffcc894>
   42b84:	0039883a 	mov	fp,zero
   42b88:	003e1a06 	br	423f4 <__alt_data_end+0xfffcc894>
   42b8c:	00c03b0e 	bge	zero,r3,42c7c <___vfprintf_internal_r+0x20b0>
   42b90:	4800021e 	bne	r9,zero,42b9c <___vfprintf_internal_r+0x1fd0>
   42b94:	e080004c 	andi	r2,fp,1
   42b98:	10000626 	beq	r2,zero,42bb4 <___vfprintf_internal_r+0x1fe8>
   42b9c:	d8c13417 	ldw	r3,1232(sp)
   42ba0:	4a400044 	addi	r9,r9,1
   42ba4:	1a63883a 	add	r17,r3,r9
   42ba8:	8839883a 	mov	fp,r17
   42bac:	883e110e 	bge	r17,zero,423f4 <__alt_data_end+0xfffcc894>
   42bb0:	003ff406 	br	42b84 <__alt_data_end+0xfffcd024>
   42bb4:	1839883a 	mov	fp,r3
   42bb8:	18004116 	blt	r3,zero,42cc0 <___vfprintf_internal_r+0x20f4>
   42bbc:	dc413417 	ldw	r17,1232(sp)
   42bc0:	003e0c06 	br	423f4 <__alt_data_end+0xfffcc894>
   42bc4:	d8812117 	ldw	r2,1156(sp)
   42bc8:	003df606 	br	423a4 <__alt_data_end+0xfffcc844>
   42bcc:	00800c04 	movi	r2,48
   42bd0:	a8c00c04 	addi	r3,r21,48
   42bd4:	d8812345 	stb	r2,1165(sp)
   42bd8:	d8c12385 	stb	r3,1166(sp)
   42bdc:	d88123c4 	addi	r2,sp,1167
   42be0:	dcc122c4 	addi	r19,sp,1163
   42be4:	003fb806 	br	42ac8 <__alt_data_end+0xfffccf68>
   42be8:	d9013717 	ldw	r4,1244(sp)
   42bec:	880b883a 	mov	r5,r17
   42bf0:	000d883a 	mov	r6,zero
   42bf4:	000f883a 	mov	r7,zero
   42bf8:	da013f15 	stw	r8,1276(sp)
   42bfc:	da413e15 	stw	r9,1272(sp)
   42c00:	da813d15 	stw	r10,1268(sp)
   42c04:	004bd3c0 	call	4bd3c <__eqdf2>
   42c08:	da013f17 	ldw	r8,1276(sp)
   42c0c:	da413e17 	ldw	r9,1272(sp)
   42c10:	da813d17 	ldw	r10,1268(sp)
   42c14:	103f1726 	beq	r2,zero,42874 <__alt_data_end+0xfffccd14>
   42c18:	00800044 	movi	r2,1
   42c1c:	1547c83a 	sub	r3,r2,r21
   42c20:	d8c12615 	stw	r3,1176(sp)
   42c24:	003f1406 	br	42878 <__alt_data_end+0xfffccd18>
   42c28:	0005883a 	mov	r2,zero
   42c2c:	003f4c06 	br	42960 <__alt_data_end+0xfffcce00>
   42c30:	0039883a 	mov	fp,zero
   42c34:	003fae06 	br	42af0 <__alt_data_end+0xfffccf90>
   42c38:	e084703a 	and	r2,fp,r2
   42c3c:	103faa26 	beq	r2,zero,42ae8 <__alt_data_end+0xfffccf88>
   42c40:	003fa806 	br	42ae4 <__alt_data_end+0xfffccf84>
   42c44:	d9412d17 	ldw	r5,1204(sp)
   42c48:	2a400017 	ldw	r9,0(r5)
   42c4c:	28c00104 	addi	r3,r5,4
   42c50:	d8c12d15 	stw	r3,1204(sp)
   42c54:	483ebc0e 	bge	r9,zero,42748 <__alt_data_end+0xfffccbe8>
   42c58:	027fffc4 	movi	r9,-1
   42c5c:	e4000047 	ldb	r16,1(fp)
   42c60:	00384206 	br	40d6c <__alt_data_end+0xfffcb20c>
   42c64:	043fffc4 	movi	r16,-1
   42c68:	0038ce06 	br	40fa4 <__alt_data_end+0xfffcb444>
   42c6c:	00800b44 	movi	r2,45
   42c70:	056bc83a 	sub	r21,zero,r21
   42c74:	d8812305 	stb	r2,1164(sp)
   42c78:	003f6c06 	br	42a2c <__alt_data_end+0xfffccecc>
   42c7c:	4800081e 	bne	r9,zero,42ca0 <___vfprintf_internal_r+0x20d4>
   42c80:	e080004c 	andi	r2,fp,1
   42c84:	1000061e 	bne	r2,zero,42ca0 <___vfprintf_internal_r+0x20d4>
   42c88:	07000044 	movi	fp,1
   42c8c:	e023883a 	mov	r17,fp
   42c90:	003dd806 	br	423f4 <__alt_data_end+0xfffcc894>
   42c94:	04400084 	movi	r17,2
   42c98:	88e3c83a 	sub	r17,r17,r3
   42c9c:	003fb506 	br	42b74 <__alt_data_end+0xfffcd014>
   42ca0:	4c400084 	addi	r17,r9,2
   42ca4:	8839883a 	mov	fp,r17
   42ca8:	883dd20e 	bge	r17,zero,423f4 <__alt_data_end+0xfffcc894>
   42cac:	003fb506 	br	42b84 <__alt_data_end+0xfffcd024>
   42cb0:	d8c12617 	ldw	r3,1176(sp)
   42cb4:	003f5706 	br	42a14 <__alt_data_end+0xfffcceb4>
   42cb8:	d8812344 	addi	r2,sp,1165
   42cbc:	003f8206 	br	42ac8 <__alt_data_end+0xfffccf68>
   42cc0:	0039883a 	mov	fp,zero
   42cc4:	003fbd06 	br	42bbc <__alt_data_end+0xfffcd05c>

00042cc8 <__vfprintf_internal>:
   42cc8:	2007883a 	mov	r3,r4
   42ccc:	01000174 	movhi	r4,5
   42cd0:	21093604 	addi	r4,r4,9432
   42cd4:	21000017 	ldw	r4,0(r4)
   42cd8:	2805883a 	mov	r2,r5
   42cdc:	300f883a 	mov	r7,r6
   42ce0:	180b883a 	mov	r5,r3
   42ce4:	100d883a 	mov	r6,r2
   42ce8:	0040bcc1 	jmpi	40bcc <___vfprintf_internal_r>

00042cec <__swsetup_r>:
   42cec:	00800174 	movhi	r2,5
   42cf0:	defffd04 	addi	sp,sp,-12
   42cf4:	10893604 	addi	r2,r2,9432
   42cf8:	dc400115 	stw	r17,4(sp)
   42cfc:	2023883a 	mov	r17,r4
   42d00:	11000017 	ldw	r4,0(r2)
   42d04:	dc000015 	stw	r16,0(sp)
   42d08:	dfc00215 	stw	ra,8(sp)
   42d0c:	2821883a 	mov	r16,r5
   42d10:	20000226 	beq	r4,zero,42d1c <__swsetup_r+0x30>
   42d14:	20c00e17 	ldw	r3,56(r4)
   42d18:	18002e26 	beq	r3,zero,42dd4 <__swsetup_r+0xe8>
   42d1c:	8080030b 	ldhu	r2,12(r16)
   42d20:	10c0020c 	andi	r3,r2,8
   42d24:	100d883a 	mov	r6,r2
   42d28:	18000f26 	beq	r3,zero,42d68 <__swsetup_r+0x7c>
   42d2c:	80c00417 	ldw	r3,16(r16)
   42d30:	18001526 	beq	r3,zero,42d88 <__swsetup_r+0x9c>
   42d34:	1100004c 	andi	r4,r2,1
   42d38:	20001c1e 	bne	r4,zero,42dac <__swsetup_r+0xc0>
   42d3c:	1080008c 	andi	r2,r2,2
   42d40:	1000261e 	bne	r2,zero,42ddc <__swsetup_r+0xf0>
   42d44:	80800517 	ldw	r2,20(r16)
   42d48:	80800215 	stw	r2,8(r16)
   42d4c:	18001c26 	beq	r3,zero,42dc0 <__swsetup_r+0xd4>
   42d50:	0005883a 	mov	r2,zero
   42d54:	dfc00217 	ldw	ra,8(sp)
   42d58:	dc400117 	ldw	r17,4(sp)
   42d5c:	dc000017 	ldw	r16,0(sp)
   42d60:	dec00304 	addi	sp,sp,12
   42d64:	f800283a 	ret
   42d68:	3080040c 	andi	r2,r6,16
   42d6c:	10001726 	beq	r2,zero,42dcc <__swsetup_r+0xe0>
   42d70:	3080010c 	andi	r2,r6,4
   42d74:	10001b1e 	bne	r2,zero,42de4 <__swsetup_r+0xf8>
   42d78:	80c00417 	ldw	r3,16(r16)
   42d7c:	30800214 	ori	r2,r6,8
   42d80:	8080030d 	sth	r2,12(r16)
   42d84:	183feb1e 	bne	r3,zero,42d34 <__alt_data_end+0xfffcd1d4>
   42d88:	1140a00c 	andi	r5,r2,640
   42d8c:	01008004 	movi	r4,512
   42d90:	293fe826 	beq	r5,r4,42d34 <__alt_data_end+0xfffcd1d4>
   42d94:	8809883a 	mov	r4,r17
   42d98:	800b883a 	mov	r5,r16
   42d9c:	00458800 	call	45880 <__smakebuf_r>
   42da0:	8080030b 	ldhu	r2,12(r16)
   42da4:	80c00417 	ldw	r3,16(r16)
   42da8:	003fe206 	br	42d34 <__alt_data_end+0xfffcd1d4>
   42dac:	80800517 	ldw	r2,20(r16)
   42db0:	80000215 	stw	zero,8(r16)
   42db4:	0085c83a 	sub	r2,zero,r2
   42db8:	80800615 	stw	r2,24(r16)
   42dbc:	183fe41e 	bne	r3,zero,42d50 <__alt_data_end+0xfffcd1f0>
   42dc0:	8080030b 	ldhu	r2,12(r16)
   42dc4:	1080200c 	andi	r2,r2,128
   42dc8:	103fe226 	beq	r2,zero,42d54 <__alt_data_end+0xfffcd1f4>
   42dcc:	00bfffc4 	movi	r2,-1
   42dd0:	003fe006 	br	42d54 <__alt_data_end+0xfffcd1f4>
   42dd4:	0044d280 	call	44d28 <__sinit>
   42dd8:	003fd006 	br	42d1c <__alt_data_end+0xfffcd1bc>
   42ddc:	0005883a 	mov	r2,zero
   42de0:	003fd906 	br	42d48 <__alt_data_end+0xfffcd1e8>
   42de4:	81400c17 	ldw	r5,48(r16)
   42de8:	28000626 	beq	r5,zero,42e04 <__swsetup_r+0x118>
   42dec:	80801004 	addi	r2,r16,64
   42df0:	28800326 	beq	r5,r2,42e00 <__swsetup_r+0x114>
   42df4:	8809883a 	mov	r4,r17
   42df8:	0044e9c0 	call	44e9c <_free_r>
   42dfc:	8180030b 	ldhu	r6,12(r16)
   42e00:	80000c15 	stw	zero,48(r16)
   42e04:	80c00417 	ldw	r3,16(r16)
   42e08:	00bff6c4 	movi	r2,-37
   42e0c:	118c703a 	and	r6,r2,r6
   42e10:	80000115 	stw	zero,4(r16)
   42e14:	80c00015 	stw	r3,0(r16)
   42e18:	003fd806 	br	42d7c <__alt_data_end+0xfffcd21c>

00042e1c <quorem>:
   42e1c:	defff204 	addi	sp,sp,-56
   42e20:	ddc00b15 	stw	r23,44(sp)
   42e24:	20800417 	ldw	r2,16(r4)
   42e28:	2dc00417 	ldw	r23,16(r5)
   42e2c:	dfc00d15 	stw	ra,52(sp)
   42e30:	df000c15 	stw	fp,48(sp)
   42e34:	dd800a15 	stw	r22,40(sp)
   42e38:	dd400915 	stw	r21,36(sp)
   42e3c:	dd000815 	stw	r20,32(sp)
   42e40:	dcc00715 	stw	r19,28(sp)
   42e44:	dc800615 	stw	r18,24(sp)
   42e48:	dc400515 	stw	r17,20(sp)
   42e4c:	dc000415 	stw	r16,16(sp)
   42e50:	15c07a16 	blt	r2,r23,4303c <quorem+0x220>
   42e54:	bdffffc4 	addi	r23,r23,-1
   42e58:	bde9883a 	add	r20,r23,r23
   42e5c:	28c00504 	addi	r3,r5,20
   42e60:	a529883a 	add	r20,r20,r20
   42e64:	1d39883a 	add	fp,r3,r20
   42e68:	24c00504 	addi	r19,r4,20
   42e6c:	d9400215 	stw	r5,8(sp)
   42e70:	9d29883a 	add	r20,r19,r20
   42e74:	e1400017 	ldw	r5,0(fp)
   42e78:	d9000015 	stw	r4,0(sp)
   42e7c:	a1000017 	ldw	r4,0(r20)
   42e80:	29400044 	addi	r5,r5,1
   42e84:	d8c00115 	stw	r3,4(sp)
   42e88:	dd000315 	stw	r20,12(sp)
   42e8c:	004094c0 	call	4094c <__udivsi3>
   42e90:	1025883a 	mov	r18,r2
   42e94:	10003026 	beq	r2,zero,42f58 <quorem+0x13c>
   42e98:	dc400117 	ldw	r17,4(sp)
   42e9c:	9829883a 	mov	r20,r19
   42ea0:	002d883a 	mov	r22,zero
   42ea4:	0021883a 	mov	r16,zero
   42ea8:	8d400017 	ldw	r21,0(r17)
   42eac:	900b883a 	mov	r5,r18
   42eb0:	8c400104 	addi	r17,r17,4
   42eb4:	a93fffcc 	andi	r4,r21,65535
   42eb8:	004095c0 	call	4095c <__mulsi3>
   42ebc:	a808d43a 	srli	r4,r21,16
   42ec0:	900b883a 	mov	r5,r18
   42ec4:	b0ad883a 	add	r22,r22,r2
   42ec8:	004095c0 	call	4095c <__mulsi3>
   42ecc:	a1000017 	ldw	r4,0(r20)
   42ed0:	b00cd43a 	srli	r6,r22,16
   42ed4:	b0ffffcc 	andi	r3,r22,65535
   42ed8:	217fffcc 	andi	r5,r4,65535
   42edc:	2c21883a 	add	r16,r5,r16
   42ee0:	80c7c83a 	sub	r3,r16,r3
   42ee4:	2008d43a 	srli	r4,r4,16
   42ee8:	3085883a 	add	r2,r6,r2
   42eec:	1821d43a 	srai	r16,r3,16
   42ef0:	117fffcc 	andi	r5,r2,65535
   42ef4:	2149c83a 	sub	r4,r4,r5
   42ef8:	2421883a 	add	r16,r4,r16
   42efc:	8008943a 	slli	r4,r16,16
   42f00:	18ffffcc 	andi	r3,r3,65535
   42f04:	102cd43a 	srli	r22,r2,16
   42f08:	20c8b03a 	or	r4,r4,r3
   42f0c:	a1000015 	stw	r4,0(r20)
   42f10:	8021d43a 	srai	r16,r16,16
   42f14:	a5000104 	addi	r20,r20,4
   42f18:	e47fe32e 	bgeu	fp,r17,42ea8 <__alt_data_end+0xfffcd348>
   42f1c:	d8c00317 	ldw	r3,12(sp)
   42f20:	18800017 	ldw	r2,0(r3)
   42f24:	10000c1e 	bne	r2,zero,42f58 <quorem+0x13c>
   42f28:	18bfff04 	addi	r2,r3,-4
   42f2c:	9880082e 	bgeu	r19,r2,42f50 <quorem+0x134>
   42f30:	18ffff17 	ldw	r3,-4(r3)
   42f34:	18000326 	beq	r3,zero,42f44 <quorem+0x128>
   42f38:	00000506 	br	42f50 <quorem+0x134>
   42f3c:	10c00017 	ldw	r3,0(r2)
   42f40:	1800031e 	bne	r3,zero,42f50 <quorem+0x134>
   42f44:	10bfff04 	addi	r2,r2,-4
   42f48:	bdffffc4 	addi	r23,r23,-1
   42f4c:	98bffb36 	bltu	r19,r2,42f3c <__alt_data_end+0xfffcd3dc>
   42f50:	d8c00017 	ldw	r3,0(sp)
   42f54:	1dc00415 	stw	r23,16(r3)
   42f58:	d9000017 	ldw	r4,0(sp)
   42f5c:	d9400217 	ldw	r5,8(sp)
   42f60:	0046ffc0 	call	46ffc <__mcmp>
   42f64:	10002816 	blt	r2,zero,43008 <quorem+0x1ec>
   42f68:	dc400117 	ldw	r17,4(sp)
   42f6c:	94800044 	addi	r18,r18,1
   42f70:	980d883a 	mov	r6,r19
   42f74:	0007883a 	mov	r3,zero
   42f78:	31000017 	ldw	r4,0(r6)
   42f7c:	89400017 	ldw	r5,0(r17)
   42f80:	31800104 	addi	r6,r6,4
   42f84:	20bfffcc 	andi	r2,r4,65535
   42f88:	10c7883a 	add	r3,r2,r3
   42f8c:	28bfffcc 	andi	r2,r5,65535
   42f90:	1885c83a 	sub	r2,r3,r2
   42f94:	280ad43a 	srli	r5,r5,16
   42f98:	2008d43a 	srli	r4,r4,16
   42f9c:	1007d43a 	srai	r3,r2,16
   42fa0:	10bfffcc 	andi	r2,r2,65535
   42fa4:	2149c83a 	sub	r4,r4,r5
   42fa8:	20c9883a 	add	r4,r4,r3
   42fac:	200a943a 	slli	r5,r4,16
   42fb0:	8c400104 	addi	r17,r17,4
   42fb4:	2007d43a 	srai	r3,r4,16
   42fb8:	2884b03a 	or	r2,r5,r2
   42fbc:	30bfff15 	stw	r2,-4(r6)
   42fc0:	e47fed2e 	bgeu	fp,r17,42f78 <__alt_data_end+0xfffcd418>
   42fc4:	bdc5883a 	add	r2,r23,r23
   42fc8:	1085883a 	add	r2,r2,r2
   42fcc:	9887883a 	add	r3,r19,r2
   42fd0:	18800017 	ldw	r2,0(r3)
   42fd4:	10000c1e 	bne	r2,zero,43008 <quorem+0x1ec>
   42fd8:	18bfff04 	addi	r2,r3,-4
   42fdc:	9880082e 	bgeu	r19,r2,43000 <quorem+0x1e4>
   42fe0:	18ffff17 	ldw	r3,-4(r3)
   42fe4:	18000326 	beq	r3,zero,42ff4 <quorem+0x1d8>
   42fe8:	00000506 	br	43000 <quorem+0x1e4>
   42fec:	10c00017 	ldw	r3,0(r2)
   42ff0:	1800031e 	bne	r3,zero,43000 <quorem+0x1e4>
   42ff4:	10bfff04 	addi	r2,r2,-4
   42ff8:	bdffffc4 	addi	r23,r23,-1
   42ffc:	98bffb36 	bltu	r19,r2,42fec <__alt_data_end+0xfffcd48c>
   43000:	d8c00017 	ldw	r3,0(sp)
   43004:	1dc00415 	stw	r23,16(r3)
   43008:	9005883a 	mov	r2,r18
   4300c:	dfc00d17 	ldw	ra,52(sp)
   43010:	df000c17 	ldw	fp,48(sp)
   43014:	ddc00b17 	ldw	r23,44(sp)
   43018:	dd800a17 	ldw	r22,40(sp)
   4301c:	dd400917 	ldw	r21,36(sp)
   43020:	dd000817 	ldw	r20,32(sp)
   43024:	dcc00717 	ldw	r19,28(sp)
   43028:	dc800617 	ldw	r18,24(sp)
   4302c:	dc400517 	ldw	r17,20(sp)
   43030:	dc000417 	ldw	r16,16(sp)
   43034:	dec00e04 	addi	sp,sp,56
   43038:	f800283a 	ret
   4303c:	0005883a 	mov	r2,zero
   43040:	003ff206 	br	4300c <__alt_data_end+0xfffcd4ac>

00043044 <_dtoa_r>:
   43044:	20801017 	ldw	r2,64(r4)
   43048:	deffde04 	addi	sp,sp,-136
   4304c:	dd401d15 	stw	r21,116(sp)
   43050:	dcc01b15 	stw	r19,108(sp)
   43054:	dc801a15 	stw	r18,104(sp)
   43058:	dc401915 	stw	r17,100(sp)
   4305c:	dc001815 	stw	r16,96(sp)
   43060:	dfc02115 	stw	ra,132(sp)
   43064:	df002015 	stw	fp,128(sp)
   43068:	ddc01f15 	stw	r23,124(sp)
   4306c:	dd801e15 	stw	r22,120(sp)
   43070:	dd001c15 	stw	r20,112(sp)
   43074:	d9c00315 	stw	r7,12(sp)
   43078:	2021883a 	mov	r16,r4
   4307c:	302b883a 	mov	r21,r6
   43080:	2825883a 	mov	r18,r5
   43084:	dc402417 	ldw	r17,144(sp)
   43088:	3027883a 	mov	r19,r6
   4308c:	10000826 	beq	r2,zero,430b0 <_dtoa_r+0x6c>
   43090:	21801117 	ldw	r6,68(r4)
   43094:	00c00044 	movi	r3,1
   43098:	100b883a 	mov	r5,r2
   4309c:	1986983a 	sll	r3,r3,r6
   430a0:	11800115 	stw	r6,4(r2)
   430a4:	10c00215 	stw	r3,8(r2)
   430a8:	00467280 	call	46728 <_Bfree>
   430ac:	80001015 	stw	zero,64(r16)
   430b0:	a8002d16 	blt	r21,zero,43168 <_dtoa_r+0x124>
   430b4:	88000015 	stw	zero,0(r17)
   430b8:	a8dffc2c 	andhi	r3,r21,32752
   430bc:	009ffc34 	movhi	r2,32752
   430c0:	18801b26 	beq	r3,r2,43130 <_dtoa_r+0xec>
   430c4:	9009883a 	mov	r4,r18
   430c8:	980b883a 	mov	r5,r19
   430cc:	000d883a 	mov	r6,zero
   430d0:	000f883a 	mov	r7,zero
   430d4:	004bd3c0 	call	4bd3c <__eqdf2>
   430d8:	10002a1e 	bne	r2,zero,43184 <_dtoa_r+0x140>
   430dc:	d8c02317 	ldw	r3,140(sp)
   430e0:	d9002517 	ldw	r4,148(sp)
   430e4:	00800044 	movi	r2,1
   430e8:	18800015 	stw	r2,0(r3)
   430ec:	2001a226 	beq	r4,zero,43778 <_dtoa_r+0x734>
   430f0:	00800174 	movhi	r2,5
   430f4:	1081a944 	addi	r2,r2,1701
   430f8:	20800015 	stw	r2,0(r4)
   430fc:	10bfffc4 	addi	r2,r2,-1
   43100:	dfc02117 	ldw	ra,132(sp)
   43104:	df002017 	ldw	fp,128(sp)
   43108:	ddc01f17 	ldw	r23,124(sp)
   4310c:	dd801e17 	ldw	r22,120(sp)
   43110:	dd401d17 	ldw	r21,116(sp)
   43114:	dd001c17 	ldw	r20,112(sp)
   43118:	dcc01b17 	ldw	r19,108(sp)
   4311c:	dc801a17 	ldw	r18,104(sp)
   43120:	dc401917 	ldw	r17,100(sp)
   43124:	dc001817 	ldw	r16,96(sp)
   43128:	dec02204 	addi	sp,sp,136
   4312c:	f800283a 	ret
   43130:	d8c02317 	ldw	r3,140(sp)
   43134:	0089c3c4 	movi	r2,9999
   43138:	18800015 	stw	r2,0(r3)
   4313c:	90017c26 	beq	r18,zero,43730 <_dtoa_r+0x6ec>
   43140:	00800174 	movhi	r2,5
   43144:	1081b504 	addi	r2,r2,1748
   43148:	d9002517 	ldw	r4,148(sp)
   4314c:	203fec26 	beq	r4,zero,43100 <__alt_data_end+0xfffcd5a0>
   43150:	10c000c7 	ldb	r3,3(r2)
   43154:	18017d1e 	bne	r3,zero,4374c <_dtoa_r+0x708>
   43158:	10c000c4 	addi	r3,r2,3
   4315c:	d9802517 	ldw	r6,148(sp)
   43160:	30c00015 	stw	r3,0(r6)
   43164:	003fe606 	br	43100 <__alt_data_end+0xfffcd5a0>
   43168:	04e00034 	movhi	r19,32768
   4316c:	9cffffc4 	addi	r19,r19,-1
   43170:	00800044 	movi	r2,1
   43174:	ace6703a 	and	r19,r21,r19
   43178:	88800015 	stw	r2,0(r17)
   4317c:	982b883a 	mov	r21,r19
   43180:	003fcd06 	br	430b8 <__alt_data_end+0xfffcd558>
   43184:	d8800204 	addi	r2,sp,8
   43188:	a822d53a 	srli	r17,r21,20
   4318c:	d8800015 	stw	r2,0(sp)
   43190:	8009883a 	mov	r4,r16
   43194:	900b883a 	mov	r5,r18
   43198:	980d883a 	mov	r6,r19
   4319c:	d9c00104 	addi	r7,sp,4
   431a0:	00473700 	call	47370 <__d2b>
   431a4:	1039883a 	mov	fp,r2
   431a8:	88016a1e 	bne	r17,zero,43754 <_dtoa_r+0x710>
   431ac:	dd000217 	ldw	r20,8(sp)
   431b0:	dc400117 	ldw	r17,4(sp)
   431b4:	00befbc4 	movi	r2,-1041
   431b8:	a463883a 	add	r17,r20,r17
   431bc:	8882ea16 	blt	r17,r2,43d68 <_dtoa_r+0xd24>
   431c0:	00bf0384 	movi	r2,-1010
   431c4:	1445c83a 	sub	r2,r2,r17
   431c8:	89010484 	addi	r4,r17,1042
   431cc:	a8aa983a 	sll	r21,r21,r2
   431d0:	9108d83a 	srl	r4,r18,r4
   431d4:	a908b03a 	or	r4,r21,r4
   431d8:	004d2140 	call	4d214 <__floatunsidf>
   431dc:	017f8434 	movhi	r5,65040
   431e0:	01800044 	movi	r6,1
   431e4:	1009883a 	mov	r4,r2
   431e8:	194b883a 	add	r5,r3,r5
   431ec:	8c7fffc4 	addi	r17,r17,-1
   431f0:	d9800f15 	stw	r6,60(sp)
   431f4:	000d883a 	mov	r6,zero
   431f8:	01cffe34 	movhi	r7,16376
   431fc:	004c7ec0 	call	4c7ec <__subdf3>
   43200:	0198dbf4 	movhi	r6,25455
   43204:	01cff4f4 	movhi	r7,16339
   43208:	1009883a 	mov	r4,r2
   4320c:	180b883a 	mov	r5,r3
   43210:	3190d844 	addi	r6,r6,17249
   43214:	39e1e9c4 	addi	r7,r7,-30809
   43218:	004bf800 	call	4bf80 <__muldf3>
   4321c:	01a2d874 	movhi	r6,35681
   43220:	01cff1f4 	movhi	r7,16327
   43224:	180b883a 	mov	r5,r3
   43228:	31b22cc4 	addi	r6,r6,-14157
   4322c:	39e28a04 	addi	r7,r7,-30168
   43230:	1009883a 	mov	r4,r2
   43234:	004ab200 	call	4ab20 <__adddf3>
   43238:	8809883a 	mov	r4,r17
   4323c:	102d883a 	mov	r22,r2
   43240:	182b883a 	mov	r21,r3
   43244:	004d1440 	call	4d144 <__floatsidf>
   43248:	019427f4 	movhi	r6,20639
   4324c:	01cff4f4 	movhi	r7,16339
   43250:	1009883a 	mov	r4,r2
   43254:	180b883a 	mov	r5,r3
   43258:	319e7ec4 	addi	r6,r6,31227
   4325c:	39d104c4 	addi	r7,r7,17427
   43260:	004bf800 	call	4bf80 <__muldf3>
   43264:	b009883a 	mov	r4,r22
   43268:	a80b883a 	mov	r5,r21
   4326c:	100d883a 	mov	r6,r2
   43270:	180f883a 	mov	r7,r3
   43274:	004ab200 	call	4ab20 <__adddf3>
   43278:	1009883a 	mov	r4,r2
   4327c:	180b883a 	mov	r5,r3
   43280:	102d883a 	mov	r22,r2
   43284:	182b883a 	mov	r21,r3
   43288:	004d0bc0 	call	4d0bc <__fixdfsi>
   4328c:	b009883a 	mov	r4,r22
   43290:	a80b883a 	mov	r5,r21
   43294:	000d883a 	mov	r6,zero
   43298:	000f883a 	mov	r7,zero
   4329c:	d8800515 	stw	r2,20(sp)
   432a0:	004bea00 	call	4bea0 <__ledf2>
   432a4:	10023116 	blt	r2,zero,43b6c <_dtoa_r+0xb28>
   432a8:	d8c00517 	ldw	r3,20(sp)
   432ac:	00800584 	movi	r2,22
   432b0:	10c21f36 	bltu	r2,r3,43b30 <_dtoa_r+0xaec>
   432b4:	180490fa 	slli	r2,r3,3
   432b8:	00c00174 	movhi	r3,5
   432bc:	18c1d104 	addi	r3,r3,1860
   432c0:	1885883a 	add	r2,r3,r2
   432c4:	11000017 	ldw	r4,0(r2)
   432c8:	11400117 	ldw	r5,4(r2)
   432cc:	900d883a 	mov	r6,r18
   432d0:	980f883a 	mov	r7,r19
   432d4:	004bdc00 	call	4bdc0 <__gedf2>
   432d8:	0082a70e 	bge	zero,r2,43d78 <_dtoa_r+0xd34>
   432dc:	d9000517 	ldw	r4,20(sp)
   432e0:	d8000c15 	stw	zero,48(sp)
   432e4:	213fffc4 	addi	r4,r4,-1
   432e8:	d9000515 	stw	r4,20(sp)
   432ec:	a463c83a 	sub	r17,r20,r17
   432f0:	8dbfffc4 	addi	r22,r17,-1
   432f4:	b0021916 	blt	r22,zero,43b5c <_dtoa_r+0xb18>
   432f8:	d8000815 	stw	zero,32(sp)
   432fc:	d8800517 	ldw	r2,20(sp)
   43300:	10020e16 	blt	r2,zero,43b3c <_dtoa_r+0xaf8>
   43304:	b0ad883a 	add	r22,r22,r2
   43308:	d8800a15 	stw	r2,40(sp)
   4330c:	d8000915 	stw	zero,36(sp)
   43310:	d8c00317 	ldw	r3,12(sp)
   43314:	00800244 	movi	r2,9
   43318:	10c11a36 	bltu	r2,r3,43784 <_dtoa_r+0x740>
   4331c:	00800144 	movi	r2,5
   43320:	10c4fc0e 	bge	r2,r3,44714 <_dtoa_r+0x16d0>
   43324:	18ffff04 	addi	r3,r3,-4
   43328:	d8c00315 	stw	r3,12(sp)
   4332c:	0029883a 	mov	r20,zero
   43330:	d9800317 	ldw	r6,12(sp)
   43334:	008000c4 	movi	r2,3
   43338:	3083bd26 	beq	r6,r2,44230 <_dtoa_r+0x11ec>
   4333c:	1183670e 	bge	r2,r6,440dc <_dtoa_r+0x1098>
   43340:	d8c00317 	ldw	r3,12(sp)
   43344:	00800104 	movi	r2,4
   43348:	1882e726 	beq	r3,r2,43ee8 <_dtoa_r+0xea4>
   4334c:	00800144 	movi	r2,5
   43350:	1884f21e 	bne	r3,r2,4471c <_dtoa_r+0x16d8>
   43354:	00800044 	movi	r2,1
   43358:	d8800b15 	stw	r2,44(sp)
   4335c:	d8c02217 	ldw	r3,136(sp)
   43360:	d9000517 	ldw	r4,20(sp)
   43364:	1907883a 	add	r3,r3,r4
   43368:	19800044 	addi	r6,r3,1
   4336c:	d8c00d15 	stw	r3,52(sp)
   43370:	d9800615 	stw	r6,24(sp)
   43374:	0183c30e 	bge	zero,r6,44284 <_dtoa_r+0x1240>
   43378:	d9800617 	ldw	r6,24(sp)
   4337c:	3023883a 	mov	r17,r6
   43380:	80001115 	stw	zero,68(r16)
   43384:	008005c4 	movi	r2,23
   43388:	1184f62e 	bgeu	r2,r6,44764 <_dtoa_r+0x1720>
   4338c:	00c00044 	movi	r3,1
   43390:	00800104 	movi	r2,4
   43394:	1085883a 	add	r2,r2,r2
   43398:	11000504 	addi	r4,r2,20
   4339c:	180b883a 	mov	r5,r3
   433a0:	18c00044 	addi	r3,r3,1
   433a4:	313ffb2e 	bgeu	r6,r4,43394 <__alt_data_end+0xfffcd834>
   433a8:	81401115 	stw	r5,68(r16)
   433ac:	8009883a 	mov	r4,r16
   433b0:	00466800 	call	46680 <_Balloc>
   433b4:	d8800715 	stw	r2,28(sp)
   433b8:	80801015 	stw	r2,64(r16)
   433bc:	00800384 	movi	r2,14
   433c0:	1440fd36 	bltu	r2,r17,437b8 <_dtoa_r+0x774>
   433c4:	a000fc26 	beq	r20,zero,437b8 <_dtoa_r+0x774>
   433c8:	d8800517 	ldw	r2,20(sp)
   433cc:	0083b90e 	bge	zero,r2,442b4 <_dtoa_r+0x1270>
   433d0:	d8c00517 	ldw	r3,20(sp)
   433d4:	108003cc 	andi	r2,r2,15
   433d8:	100490fa 	slli	r2,r2,3
   433dc:	182fd13a 	srai	r23,r3,4
   433e0:	00c00174 	movhi	r3,5
   433e4:	18c1d104 	addi	r3,r3,1860
   433e8:	1885883a 	add	r2,r3,r2
   433ec:	b8c0040c 	andi	r3,r23,16
   433f0:	12c00017 	ldw	r11,0(r2)
   433f4:	12800117 	ldw	r10,4(r2)
   433f8:	18039726 	beq	r3,zero,44258 <_dtoa_r+0x1214>
   433fc:	00800174 	movhi	r2,5
   43400:	1081c704 	addi	r2,r2,1820
   43404:	11800817 	ldw	r6,32(r2)
   43408:	11c00917 	ldw	r7,36(r2)
   4340c:	9009883a 	mov	r4,r18
   43410:	980b883a 	mov	r5,r19
   43414:	da801615 	stw	r10,88(sp)
   43418:	dac01515 	stw	r11,84(sp)
   4341c:	004b3bc0 	call	4b3bc <__divdf3>
   43420:	da801617 	ldw	r10,88(sp)
   43424:	dac01517 	ldw	r11,84(sp)
   43428:	bdc003cc 	andi	r23,r23,15
   4342c:	044000c4 	movi	r17,3
   43430:	d8800e15 	stw	r2,56(sp)
   43434:	182b883a 	mov	r21,r3
   43438:	b8001126 	beq	r23,zero,43480 <_dtoa_r+0x43c>
   4343c:	05000174 	movhi	r20,5
   43440:	a501c704 	addi	r20,r20,1820
   43444:	5805883a 	mov	r2,r11
   43448:	5007883a 	mov	r3,r10
   4344c:	b980004c 	andi	r6,r23,1
   43450:	1009883a 	mov	r4,r2
   43454:	b82fd07a 	srai	r23,r23,1
   43458:	180b883a 	mov	r5,r3
   4345c:	30000426 	beq	r6,zero,43470 <_dtoa_r+0x42c>
   43460:	a1800017 	ldw	r6,0(r20)
   43464:	a1c00117 	ldw	r7,4(r20)
   43468:	8c400044 	addi	r17,r17,1
   4346c:	004bf800 	call	4bf80 <__muldf3>
   43470:	a5000204 	addi	r20,r20,8
   43474:	b83ff51e 	bne	r23,zero,4344c <__alt_data_end+0xfffcd8ec>
   43478:	1017883a 	mov	r11,r2
   4347c:	1815883a 	mov	r10,r3
   43480:	d9000e17 	ldw	r4,56(sp)
   43484:	a80b883a 	mov	r5,r21
   43488:	580d883a 	mov	r6,r11
   4348c:	500f883a 	mov	r7,r10
   43490:	004b3bc0 	call	4b3bc <__divdf3>
   43494:	1029883a 	mov	r20,r2
   43498:	182b883a 	mov	r21,r3
   4349c:	d9800c17 	ldw	r6,48(sp)
   434a0:	30000626 	beq	r6,zero,434bc <_dtoa_r+0x478>
   434a4:	a009883a 	mov	r4,r20
   434a8:	a80b883a 	mov	r5,r21
   434ac:	000d883a 	mov	r6,zero
   434b0:	01cffc34 	movhi	r7,16368
   434b4:	004bea00 	call	4bea0 <__ledf2>
   434b8:	10043216 	blt	r2,zero,44584 <_dtoa_r+0x1540>
   434bc:	8809883a 	mov	r4,r17
   434c0:	004d1440 	call	4d144 <__floatsidf>
   434c4:	1009883a 	mov	r4,r2
   434c8:	180b883a 	mov	r5,r3
   434cc:	a00d883a 	mov	r6,r20
   434d0:	a80f883a 	mov	r7,r21
   434d4:	004bf800 	call	4bf80 <__muldf3>
   434d8:	000d883a 	mov	r6,zero
   434dc:	1009883a 	mov	r4,r2
   434e0:	180b883a 	mov	r5,r3
   434e4:	01d00734 	movhi	r7,16412
   434e8:	004ab200 	call	4ab20 <__adddf3>
   434ec:	1023883a 	mov	r17,r2
   434f0:	d9800617 	ldw	r6,24(sp)
   434f4:	00bf3034 	movhi	r2,64704
   434f8:	1885883a 	add	r2,r3,r2
   434fc:	d8800e15 	stw	r2,56(sp)
   43500:	30032e26 	beq	r6,zero,441bc <_dtoa_r+0x1178>
   43504:	d8c00517 	ldw	r3,20(sp)
   43508:	da800617 	ldw	r10,24(sp)
   4350c:	d8c01215 	stw	r3,72(sp)
   43510:	d9000b17 	ldw	r4,44(sp)
   43514:	2003b026 	beq	r4,zero,443d8 <_dtoa_r+0x1394>
   43518:	50bfffc4 	addi	r2,r10,-1
   4351c:	100490fa 	slli	r2,r2,3
   43520:	00c00174 	movhi	r3,5
   43524:	18c1d104 	addi	r3,r3,1860
   43528:	1885883a 	add	r2,r3,r2
   4352c:	11800017 	ldw	r6,0(r2)
   43530:	11c00117 	ldw	r7,4(r2)
   43534:	d8800717 	ldw	r2,28(sp)
   43538:	0009883a 	mov	r4,zero
   4353c:	014ff834 	movhi	r5,16352
   43540:	da801615 	stw	r10,88(sp)
   43544:	15c00044 	addi	r23,r2,1
   43548:	004b3bc0 	call	4b3bc <__divdf3>
   4354c:	d9c00e17 	ldw	r7,56(sp)
   43550:	880d883a 	mov	r6,r17
   43554:	1009883a 	mov	r4,r2
   43558:	180b883a 	mov	r5,r3
   4355c:	004c7ec0 	call	4c7ec <__subdf3>
   43560:	a80b883a 	mov	r5,r21
   43564:	a009883a 	mov	r4,r20
   43568:	d8c01015 	stw	r3,64(sp)
   4356c:	d8800e15 	stw	r2,56(sp)
   43570:	004d0bc0 	call	4d0bc <__fixdfsi>
   43574:	1009883a 	mov	r4,r2
   43578:	d8801715 	stw	r2,92(sp)
   4357c:	004d1440 	call	4d144 <__floatsidf>
   43580:	a009883a 	mov	r4,r20
   43584:	a80b883a 	mov	r5,r21
   43588:	100d883a 	mov	r6,r2
   4358c:	180f883a 	mov	r7,r3
   43590:	004c7ec0 	call	4c7ec <__subdf3>
   43594:	da001717 	ldw	r8,92(sp)
   43598:	1829883a 	mov	r20,r3
   4359c:	d8c00717 	ldw	r3,28(sp)
   435a0:	d9000e17 	ldw	r4,56(sp)
   435a4:	d9401017 	ldw	r5,64(sp)
   435a8:	42000c04 	addi	r8,r8,48
   435ac:	1023883a 	mov	r17,r2
   435b0:	1a000005 	stb	r8,0(r3)
   435b4:	880d883a 	mov	r6,r17
   435b8:	a00f883a 	mov	r7,r20
   435bc:	402b883a 	mov	r21,r8
   435c0:	004bdc00 	call	4bdc0 <__gedf2>
   435c4:	00844516 	blt	zero,r2,446dc <_dtoa_r+0x1698>
   435c8:	0009883a 	mov	r4,zero
   435cc:	014ffc34 	movhi	r5,16368
   435d0:	880d883a 	mov	r6,r17
   435d4:	a00f883a 	mov	r7,r20
   435d8:	004c7ec0 	call	4c7ec <__subdf3>
   435dc:	d9000e17 	ldw	r4,56(sp)
   435e0:	d9401017 	ldw	r5,64(sp)
   435e4:	100d883a 	mov	r6,r2
   435e8:	180f883a 	mov	r7,r3
   435ec:	004bdc00 	call	4bdc0 <__gedf2>
   435f0:	da801617 	ldw	r10,88(sp)
   435f4:	00843616 	blt	zero,r2,446d0 <_dtoa_r+0x168c>
   435f8:	00800044 	movi	r2,1
   435fc:	12806e0e 	bge	r2,r10,437b8 <_dtoa_r+0x774>
   43600:	d9000717 	ldw	r4,28(sp)
   43604:	dd801315 	stw	r22,76(sp)
   43608:	dc001115 	stw	r16,68(sp)
   4360c:	2295883a 	add	r10,r4,r10
   43610:	dcc01415 	stw	r19,80(sp)
   43614:	502d883a 	mov	r22,r10
   43618:	dcc01017 	ldw	r19,64(sp)
   4361c:	b821883a 	mov	r16,r23
   43620:	dc801015 	stw	r18,64(sp)
   43624:	dc800e17 	ldw	r18,56(sp)
   43628:	00000906 	br	43650 <_dtoa_r+0x60c>
   4362c:	004c7ec0 	call	4c7ec <__subdf3>
   43630:	1009883a 	mov	r4,r2
   43634:	180b883a 	mov	r5,r3
   43638:	900d883a 	mov	r6,r18
   4363c:	980f883a 	mov	r7,r19
   43640:	004bea00 	call	4bea0 <__ledf2>
   43644:	10040e16 	blt	r2,zero,44680 <_dtoa_r+0x163c>
   43648:	b821883a 	mov	r16,r23
   4364c:	bd841026 	beq	r23,r22,44690 <_dtoa_r+0x164c>
   43650:	9009883a 	mov	r4,r18
   43654:	980b883a 	mov	r5,r19
   43658:	000d883a 	mov	r6,zero
   4365c:	01d00934 	movhi	r7,16420
   43660:	004bf800 	call	4bf80 <__muldf3>
   43664:	000d883a 	mov	r6,zero
   43668:	01d00934 	movhi	r7,16420
   4366c:	8809883a 	mov	r4,r17
   43670:	a00b883a 	mov	r5,r20
   43674:	1025883a 	mov	r18,r2
   43678:	1827883a 	mov	r19,r3
   4367c:	004bf800 	call	4bf80 <__muldf3>
   43680:	180b883a 	mov	r5,r3
   43684:	1009883a 	mov	r4,r2
   43688:	1823883a 	mov	r17,r3
   4368c:	1029883a 	mov	r20,r2
   43690:	004d0bc0 	call	4d0bc <__fixdfsi>
   43694:	1009883a 	mov	r4,r2
   43698:	102b883a 	mov	r21,r2
   4369c:	004d1440 	call	4d144 <__floatsidf>
   436a0:	a009883a 	mov	r4,r20
   436a4:	880b883a 	mov	r5,r17
   436a8:	100d883a 	mov	r6,r2
   436ac:	180f883a 	mov	r7,r3
   436b0:	004c7ec0 	call	4c7ec <__subdf3>
   436b4:	ad400c04 	addi	r21,r21,48
   436b8:	1009883a 	mov	r4,r2
   436bc:	180b883a 	mov	r5,r3
   436c0:	900d883a 	mov	r6,r18
   436c4:	980f883a 	mov	r7,r19
   436c8:	85400005 	stb	r21,0(r16)
   436cc:	1023883a 	mov	r17,r2
   436d0:	1829883a 	mov	r20,r3
   436d4:	004bea00 	call	4bea0 <__ledf2>
   436d8:	bdc00044 	addi	r23,r23,1
   436dc:	0009883a 	mov	r4,zero
   436e0:	014ffc34 	movhi	r5,16368
   436e4:	880d883a 	mov	r6,r17
   436e8:	a00f883a 	mov	r7,r20
   436ec:	103fcf0e 	bge	r2,zero,4362c <__alt_data_end+0xfffcdacc>
   436f0:	d9801217 	ldw	r6,72(sp)
   436f4:	dc001117 	ldw	r16,68(sp)
   436f8:	d9800515 	stw	r6,20(sp)
   436fc:	8009883a 	mov	r4,r16
   43700:	e00b883a 	mov	r5,fp
   43704:	00467280 	call	46728 <_Bfree>
   43708:	d8c00517 	ldw	r3,20(sp)
   4370c:	d9002317 	ldw	r4,140(sp)
   43710:	d9802517 	ldw	r6,148(sp)
   43714:	b8000005 	stb	zero,0(r23)
   43718:	18800044 	addi	r2,r3,1
   4371c:	20800015 	stw	r2,0(r4)
   43720:	30027226 	beq	r6,zero,440ec <_dtoa_r+0x10a8>
   43724:	35c00015 	stw	r23,0(r6)
   43728:	d8800717 	ldw	r2,28(sp)
   4372c:	003e7406 	br	43100 <__alt_data_end+0xfffcd5a0>
   43730:	00800434 	movhi	r2,16
   43734:	10bfffc4 	addi	r2,r2,-1
   43738:	a8aa703a 	and	r21,r21,r2
   4373c:	a83e801e 	bne	r21,zero,43140 <__alt_data_end+0xfffcd5e0>
   43740:	00800174 	movhi	r2,5
   43744:	1081b204 	addi	r2,r2,1736
   43748:	003e7f06 	br	43148 <__alt_data_end+0xfffcd5e8>
   4374c:	10c00204 	addi	r3,r2,8
   43750:	003e8206 	br	4315c <__alt_data_end+0xfffcd5fc>
   43754:	01400434 	movhi	r5,16
   43758:	297fffc4 	addi	r5,r5,-1
   4375c:	994a703a 	and	r5,r19,r5
   43760:	9009883a 	mov	r4,r18
   43764:	8c7f0044 	addi	r17,r17,-1023
   43768:	294ffc34 	orhi	r5,r5,16368
   4376c:	dd000217 	ldw	r20,8(sp)
   43770:	d8000f15 	stw	zero,60(sp)
   43774:	003e9f06 	br	431f4 <__alt_data_end+0xfffcd694>
   43778:	00800174 	movhi	r2,5
   4377c:	1081a904 	addi	r2,r2,1700
   43780:	003e5f06 	br	43100 <__alt_data_end+0xfffcd5a0>
   43784:	80001115 	stw	zero,68(r16)
   43788:	8009883a 	mov	r4,r16
   4378c:	000b883a 	mov	r5,zero
   43790:	00466800 	call	46680 <_Balloc>
   43794:	01bfffc4 	movi	r6,-1
   43798:	d8800715 	stw	r2,28(sp)
   4379c:	80801015 	stw	r2,64(r16)
   437a0:	00800044 	movi	r2,1
   437a4:	d9800615 	stw	r6,24(sp)
   437a8:	d8800b15 	stw	r2,44(sp)
   437ac:	d8002215 	stw	zero,136(sp)
   437b0:	d9800d15 	stw	r6,52(sp)
   437b4:	d8000315 	stw	zero,12(sp)
   437b8:	d8800117 	ldw	r2,4(sp)
   437bc:	10008e16 	blt	r2,zero,439f8 <_dtoa_r+0x9b4>
   437c0:	d9000517 	ldw	r4,20(sp)
   437c4:	00c00384 	movi	r3,14
   437c8:	19008b16 	blt	r3,r4,439f8 <_dtoa_r+0x9b4>
   437cc:	200490fa 	slli	r2,r4,3
   437d0:	00c00174 	movhi	r3,5
   437d4:	d9802217 	ldw	r6,136(sp)
   437d8:	18c1d104 	addi	r3,r3,1860
   437dc:	1885883a 	add	r2,r3,r2
   437e0:	14400017 	ldw	r17,0(r2)
   437e4:	15000117 	ldw	r20,4(r2)
   437e8:	3001c716 	blt	r6,zero,43f08 <_dtoa_r+0xec4>
   437ec:	880d883a 	mov	r6,r17
   437f0:	a00f883a 	mov	r7,r20
   437f4:	9009883a 	mov	r4,r18
   437f8:	980b883a 	mov	r5,r19
   437fc:	004b3bc0 	call	4b3bc <__divdf3>
   43800:	180b883a 	mov	r5,r3
   43804:	1009883a 	mov	r4,r2
   43808:	004d0bc0 	call	4d0bc <__fixdfsi>
   4380c:	1009883a 	mov	r4,r2
   43810:	102d883a 	mov	r22,r2
   43814:	004d1440 	call	4d144 <__floatsidf>
   43818:	1009883a 	mov	r4,r2
   4381c:	180b883a 	mov	r5,r3
   43820:	880d883a 	mov	r6,r17
   43824:	a00f883a 	mov	r7,r20
   43828:	004bf800 	call	4bf80 <__muldf3>
   4382c:	9009883a 	mov	r4,r18
   43830:	980b883a 	mov	r5,r19
   43834:	100d883a 	mov	r6,r2
   43838:	180f883a 	mov	r7,r3
   4383c:	004c7ec0 	call	4c7ec <__subdf3>
   43840:	d9000717 	ldw	r4,28(sp)
   43844:	d9800617 	ldw	r6,24(sp)
   43848:	180b883a 	mov	r5,r3
   4384c:	b0c00c04 	addi	r3,r22,48
   43850:	20c00005 	stb	r3,0(r4)
   43854:	25c00044 	addi	r23,r4,1
   43858:	01000044 	movi	r4,1
   4385c:	1011883a 	mov	r8,r2
   43860:	2807883a 	mov	r3,r5
   43864:	31003d26 	beq	r6,r4,4395c <_dtoa_r+0x918>
   43868:	000d883a 	mov	r6,zero
   4386c:	01d00934 	movhi	r7,16420
   43870:	1009883a 	mov	r4,r2
   43874:	004bf800 	call	4bf80 <__muldf3>
   43878:	1009883a 	mov	r4,r2
   4387c:	180b883a 	mov	r5,r3
   43880:	000d883a 	mov	r6,zero
   43884:	000f883a 	mov	r7,zero
   43888:	1027883a 	mov	r19,r2
   4388c:	182b883a 	mov	r21,r3
   43890:	004bd3c0 	call	4bd3c <__eqdf2>
   43894:	103f9926 	beq	r2,zero,436fc <__alt_data_end+0xfffcdb9c>
   43898:	d8c00617 	ldw	r3,24(sp)
   4389c:	d9000717 	ldw	r4,28(sp)
   438a0:	b825883a 	mov	r18,r23
   438a4:	18bfffc4 	addi	r2,r3,-1
   438a8:	20ad883a 	add	r22,r4,r2
   438ac:	dc000315 	stw	r16,12(sp)
   438b0:	00000a06 	br	438dc <_dtoa_r+0x898>
   438b4:	004bf800 	call	4bf80 <__muldf3>
   438b8:	1009883a 	mov	r4,r2
   438bc:	180b883a 	mov	r5,r3
   438c0:	000d883a 	mov	r6,zero
   438c4:	000f883a 	mov	r7,zero
   438c8:	1027883a 	mov	r19,r2
   438cc:	182b883a 	mov	r21,r3
   438d0:	b825883a 	mov	r18,r23
   438d4:	004bd3c0 	call	4bd3c <__eqdf2>
   438d8:	10022626 	beq	r2,zero,44174 <_dtoa_r+0x1130>
   438dc:	880d883a 	mov	r6,r17
   438e0:	a00f883a 	mov	r7,r20
   438e4:	9809883a 	mov	r4,r19
   438e8:	a80b883a 	mov	r5,r21
   438ec:	004b3bc0 	call	4b3bc <__divdf3>
   438f0:	180b883a 	mov	r5,r3
   438f4:	1009883a 	mov	r4,r2
   438f8:	004d0bc0 	call	4d0bc <__fixdfsi>
   438fc:	1009883a 	mov	r4,r2
   43900:	1021883a 	mov	r16,r2
   43904:	004d1440 	call	4d144 <__floatsidf>
   43908:	1009883a 	mov	r4,r2
   4390c:	180b883a 	mov	r5,r3
   43910:	880d883a 	mov	r6,r17
   43914:	a00f883a 	mov	r7,r20
   43918:	004bf800 	call	4bf80 <__muldf3>
   4391c:	9809883a 	mov	r4,r19
   43920:	a80b883a 	mov	r5,r21
   43924:	100d883a 	mov	r6,r2
   43928:	180f883a 	mov	r7,r3
   4392c:	004c7ec0 	call	4c7ec <__subdf3>
   43930:	82000c04 	addi	r8,r16,48
   43934:	92000005 	stb	r8,0(r18)
   43938:	1009883a 	mov	r4,r2
   4393c:	180b883a 	mov	r5,r3
   43940:	000d883a 	mov	r6,zero
   43944:	01d00934 	movhi	r7,16420
   43948:	1011883a 	mov	r8,r2
   4394c:	bdc00044 	addi	r23,r23,1
   43950:	95bfd81e 	bne	r18,r22,438b4 <__alt_data_end+0xfffcdd54>
   43954:	802d883a 	mov	r22,r16
   43958:	dc000317 	ldw	r16,12(sp)
   4395c:	4009883a 	mov	r4,r8
   43960:	180b883a 	mov	r5,r3
   43964:	400d883a 	mov	r6,r8
   43968:	180f883a 	mov	r7,r3
   4396c:	004ab200 	call	4ab20 <__adddf3>
   43970:	8809883a 	mov	r4,r17
   43974:	a00b883a 	mov	r5,r20
   43978:	100d883a 	mov	r6,r2
   4397c:	180f883a 	mov	r7,r3
   43980:	1027883a 	mov	r19,r2
   43984:	1825883a 	mov	r18,r3
   43988:	004bea00 	call	4bea0 <__ledf2>
   4398c:	10000816 	blt	r2,zero,439b0 <_dtoa_r+0x96c>
   43990:	8809883a 	mov	r4,r17
   43994:	a00b883a 	mov	r5,r20
   43998:	980d883a 	mov	r6,r19
   4399c:	900f883a 	mov	r7,r18
   439a0:	004bd3c0 	call	4bd3c <__eqdf2>
   439a4:	103f551e 	bne	r2,zero,436fc <__alt_data_end+0xfffcdb9c>
   439a8:	b580004c 	andi	r22,r22,1
   439ac:	b03f5326 	beq	r22,zero,436fc <__alt_data_end+0xfffcdb9c>
   439b0:	bd7fffc3 	ldbu	r21,-1(r23)
   439b4:	b8bfffc4 	addi	r2,r23,-1
   439b8:	1007883a 	mov	r3,r2
   439bc:	01400e44 	movi	r5,57
   439c0:	d9800717 	ldw	r6,28(sp)
   439c4:	00000506 	br	439dc <_dtoa_r+0x998>
   439c8:	18ffffc4 	addi	r3,r3,-1
   439cc:	30825e26 	beq	r6,r2,44348 <_dtoa_r+0x1304>
   439d0:	1d400003 	ldbu	r21,0(r3)
   439d4:	102f883a 	mov	r23,r2
   439d8:	10bfffc4 	addi	r2,r2,-1
   439dc:	a9003fcc 	andi	r4,r21,255
   439e0:	2100201c 	xori	r4,r4,128
   439e4:	213fe004 	addi	r4,r4,-128
   439e8:	217ff726 	beq	r4,r5,439c8 <__alt_data_end+0xfffcde68>
   439ec:	aa000044 	addi	r8,r21,1
   439f0:	12000005 	stb	r8,0(r2)
   439f4:	003f4106 	br	436fc <__alt_data_end+0xfffcdb9c>
   439f8:	d8c00b17 	ldw	r3,44(sp)
   439fc:	18006726 	beq	r3,zero,43b9c <_dtoa_r+0xb58>
   43a00:	d9000317 	ldw	r4,12(sp)
   43a04:	00c00044 	movi	r3,1
   43a08:	19016a0e 	bge	r3,r4,43fb4 <_dtoa_r+0xf70>
   43a0c:	d8800617 	ldw	r2,24(sp)
   43a10:	d8c00917 	ldw	r3,36(sp)
   43a14:	157fffc4 	addi	r21,r2,-1
   43a18:	1d420716 	blt	r3,r21,44238 <_dtoa_r+0x11f4>
   43a1c:	1d6bc83a 	sub	r21,r3,r21
   43a20:	d8800617 	ldw	r2,24(sp)
   43a24:	1002c716 	blt	r2,zero,44544 <_dtoa_r+0x1500>
   43a28:	dd000817 	ldw	r20,32(sp)
   43a2c:	d8800617 	ldw	r2,24(sp)
   43a30:	d9800817 	ldw	r6,32(sp)
   43a34:	8009883a 	mov	r4,r16
   43a38:	01400044 	movi	r5,1
   43a3c:	308d883a 	add	r6,r6,r2
   43a40:	d9800815 	stw	r6,32(sp)
   43a44:	b0ad883a 	add	r22,r22,r2
   43a48:	0046aa80 	call	46aa8 <__i2b>
   43a4c:	1023883a 	mov	r17,r2
   43a50:	a0000826 	beq	r20,zero,43a74 <_dtoa_r+0xa30>
   43a54:	0580070e 	bge	zero,r22,43a74 <_dtoa_r+0xa30>
   43a58:	b005883a 	mov	r2,r22
   43a5c:	a5812016 	blt	r20,r22,43ee0 <_dtoa_r+0xe9c>
   43a60:	d8c00817 	ldw	r3,32(sp)
   43a64:	a0a9c83a 	sub	r20,r20,r2
   43a68:	b0adc83a 	sub	r22,r22,r2
   43a6c:	1887c83a 	sub	r3,r3,r2
   43a70:	d8c00815 	stw	r3,32(sp)
   43a74:	d9000917 	ldw	r4,36(sp)
   43a78:	0100140e 	bge	zero,r4,43acc <_dtoa_r+0xa88>
   43a7c:	d9800b17 	ldw	r6,44(sp)
   43a80:	3001e526 	beq	r6,zero,44218 <_dtoa_r+0x11d4>
   43a84:	05400e0e 	bge	zero,r21,43ac0 <_dtoa_r+0xa7c>
   43a88:	880b883a 	mov	r5,r17
   43a8c:	8009883a 	mov	r4,r16
   43a90:	a80d883a 	mov	r6,r21
   43a94:	0046d740 	call	46d74 <__pow5mult>
   43a98:	e00d883a 	mov	r6,fp
   43a9c:	8009883a 	mov	r4,r16
   43aa0:	100b883a 	mov	r5,r2
   43aa4:	1023883a 	mov	r17,r2
   43aa8:	0046ae40 	call	46ae4 <__multiply>
   43aac:	102f883a 	mov	r23,r2
   43ab0:	e00b883a 	mov	r5,fp
   43ab4:	8009883a 	mov	r4,r16
   43ab8:	00467280 	call	46728 <_Bfree>
   43abc:	b839883a 	mov	fp,r23
   43ac0:	d8800917 	ldw	r2,36(sp)
   43ac4:	154dc83a 	sub	r6,r2,r21
   43ac8:	3001281e 	bne	r6,zero,43f6c <_dtoa_r+0xf28>
   43acc:	05c00044 	movi	r23,1
   43ad0:	8009883a 	mov	r4,r16
   43ad4:	b80b883a 	mov	r5,r23
   43ad8:	0046aa80 	call	46aa8 <__i2b>
   43adc:	d8c00a17 	ldw	r3,40(sp)
   43ae0:	102b883a 	mov	r21,r2
   43ae4:	00c0310e 	bge	zero,r3,43bac <_dtoa_r+0xb68>
   43ae8:	8009883a 	mov	r4,r16
   43aec:	100b883a 	mov	r5,r2
   43af0:	180d883a 	mov	r6,r3
   43af4:	0046d740 	call	46d74 <__pow5mult>
   43af8:	d9000317 	ldw	r4,12(sp)
   43afc:	102b883a 	mov	r21,r2
   43b00:	b9011f0e 	bge	r23,r4,43f80 <_dtoa_r+0xf3c>
   43b04:	0027883a 	mov	r19,zero
   43b08:	a8800417 	ldw	r2,16(r21)
   43b0c:	10800104 	addi	r2,r2,4
   43b10:	1085883a 	add	r2,r2,r2
   43b14:	1085883a 	add	r2,r2,r2
   43b18:	a885883a 	add	r2,r21,r2
   43b1c:	11000017 	ldw	r4,0(r2)
   43b20:	00469900 	call	46990 <__hi0bits>
   43b24:	00c00804 	movi	r3,32
   43b28:	1885c83a 	sub	r2,r3,r2
   43b2c:	00002506 	br	43bc4 <_dtoa_r+0xb80>
   43b30:	01800044 	movi	r6,1
   43b34:	d9800c15 	stw	r6,48(sp)
   43b38:	003dec06 	br	432ec <__alt_data_end+0xfffcd78c>
   43b3c:	d8c00817 	ldw	r3,32(sp)
   43b40:	d9000517 	ldw	r4,20(sp)
   43b44:	d8000a15 	stw	zero,40(sp)
   43b48:	1907c83a 	sub	r3,r3,r4
   43b4c:	010dc83a 	sub	r6,zero,r4
   43b50:	d8c00815 	stw	r3,32(sp)
   43b54:	d9800915 	stw	r6,36(sp)
   43b58:	003ded06 	br	43310 <__alt_data_end+0xfffcd7b0>
   43b5c:	05adc83a 	sub	r22,zero,r22
   43b60:	dd800815 	stw	r22,32(sp)
   43b64:	002d883a 	mov	r22,zero
   43b68:	003de406 	br	432fc <__alt_data_end+0xfffcd79c>
   43b6c:	d9000517 	ldw	r4,20(sp)
   43b70:	004d1440 	call	4d144 <__floatsidf>
   43b74:	1009883a 	mov	r4,r2
   43b78:	180b883a 	mov	r5,r3
   43b7c:	b00d883a 	mov	r6,r22
   43b80:	a80f883a 	mov	r7,r21
   43b84:	004bd3c0 	call	4bd3c <__eqdf2>
   43b88:	103dc726 	beq	r2,zero,432a8 <__alt_data_end+0xfffcd748>
   43b8c:	d8800517 	ldw	r2,20(sp)
   43b90:	10bfffc4 	addi	r2,r2,-1
   43b94:	d8800515 	stw	r2,20(sp)
   43b98:	003dc306 	br	432a8 <__alt_data_end+0xfffcd748>
   43b9c:	dd400917 	ldw	r21,36(sp)
   43ba0:	dd000817 	ldw	r20,32(sp)
   43ba4:	0023883a 	mov	r17,zero
   43ba8:	003fa906 	br	43a50 <__alt_data_end+0xfffcdef0>
   43bac:	d9800317 	ldw	r6,12(sp)
   43bb0:	b981670e 	bge	r23,r6,44150 <_dtoa_r+0x110c>
   43bb4:	0027883a 	mov	r19,zero
   43bb8:	d8c00a17 	ldw	r3,40(sp)
   43bbc:	183fd21e 	bne	r3,zero,43b08 <__alt_data_end+0xfffcdfa8>
   43bc0:	00800044 	movi	r2,1
   43bc4:	1585883a 	add	r2,r2,r22
   43bc8:	108007cc 	andi	r2,r2,31
   43bcc:	10005f26 	beq	r2,zero,43d4c <_dtoa_r+0xd08>
   43bd0:	00c00804 	movi	r3,32
   43bd4:	1887c83a 	sub	r3,r3,r2
   43bd8:	01000104 	movi	r4,4
   43bdc:	20c2dd0e 	bge	r4,r3,44754 <_dtoa_r+0x1710>
   43be0:	d9000817 	ldw	r4,32(sp)
   43be4:	00c00704 	movi	r3,28
   43be8:	1885c83a 	sub	r2,r3,r2
   43bec:	2089883a 	add	r4,r4,r2
   43bf0:	d9000815 	stw	r4,32(sp)
   43bf4:	a0a9883a 	add	r20,r20,r2
   43bf8:	b0ad883a 	add	r22,r22,r2
   43bfc:	d8800817 	ldw	r2,32(sp)
   43c00:	0080050e 	bge	zero,r2,43c18 <_dtoa_r+0xbd4>
   43c04:	e00b883a 	mov	r5,fp
   43c08:	8009883a 	mov	r4,r16
   43c0c:	100d883a 	mov	r6,r2
   43c10:	0046eb40 	call	46eb4 <__lshift>
   43c14:	1039883a 	mov	fp,r2
   43c18:	0580050e 	bge	zero,r22,43c30 <_dtoa_r+0xbec>
   43c1c:	a80b883a 	mov	r5,r21
   43c20:	8009883a 	mov	r4,r16
   43c24:	b00d883a 	mov	r6,r22
   43c28:	0046eb40 	call	46eb4 <__lshift>
   43c2c:	102b883a 	mov	r21,r2
   43c30:	d8c00c17 	ldw	r3,48(sp)
   43c34:	1801161e 	bne	r3,zero,44090 <_dtoa_r+0x104c>
   43c38:	d8c00617 	ldw	r3,24(sp)
   43c3c:	00c12d0e 	bge	zero,r3,440f4 <_dtoa_r+0x10b0>
   43c40:	d8c00b17 	ldw	r3,44(sp)
   43c44:	1800571e 	bne	r3,zero,43da4 <_dtoa_r+0xd60>
   43c48:	dc800717 	ldw	r18,28(sp)
   43c4c:	dcc00617 	ldw	r19,24(sp)
   43c50:	9029883a 	mov	r20,r18
   43c54:	00000206 	br	43c60 <_dtoa_r+0xc1c>
   43c58:	00467500 	call	46750 <__multadd>
   43c5c:	1039883a 	mov	fp,r2
   43c60:	e009883a 	mov	r4,fp
   43c64:	a80b883a 	mov	r5,r21
   43c68:	0042e1c0 	call	42e1c <quorem>
   43c6c:	10800c04 	addi	r2,r2,48
   43c70:	90800005 	stb	r2,0(r18)
   43c74:	94800044 	addi	r18,r18,1
   43c78:	9507c83a 	sub	r3,r18,r20
   43c7c:	8009883a 	mov	r4,r16
   43c80:	e00b883a 	mov	r5,fp
   43c84:	01800284 	movi	r6,10
   43c88:	000f883a 	mov	r7,zero
   43c8c:	1cfff216 	blt	r3,r19,43c58 <__alt_data_end+0xfffce0f8>
   43c90:	1011883a 	mov	r8,r2
   43c94:	d8800617 	ldw	r2,24(sp)
   43c98:	00822e0e 	bge	zero,r2,44554 <_dtoa_r+0x1510>
   43c9c:	d9000717 	ldw	r4,28(sp)
   43ca0:	0025883a 	mov	r18,zero
   43ca4:	20af883a 	add	r23,r4,r2
   43ca8:	e00b883a 	mov	r5,fp
   43cac:	01800044 	movi	r6,1
   43cb0:	8009883a 	mov	r4,r16
   43cb4:	da001715 	stw	r8,92(sp)
   43cb8:	0046eb40 	call	46eb4 <__lshift>
   43cbc:	1009883a 	mov	r4,r2
   43cc0:	a80b883a 	mov	r5,r21
   43cc4:	1039883a 	mov	fp,r2
   43cc8:	0046ffc0 	call	46ffc <__mcmp>
   43ccc:	da001717 	ldw	r8,92(sp)
   43cd0:	00816e0e 	bge	zero,r2,4428c <_dtoa_r+0x1248>
   43cd4:	b93fffc3 	ldbu	r4,-1(r23)
   43cd8:	b8bfffc4 	addi	r2,r23,-1
   43cdc:	1007883a 	mov	r3,r2
   43ce0:	01800e44 	movi	r6,57
   43ce4:	d9c00717 	ldw	r7,28(sp)
   43ce8:	00000506 	br	43d00 <_dtoa_r+0xcbc>
   43cec:	18ffffc4 	addi	r3,r3,-1
   43cf0:	38811926 	beq	r7,r2,44158 <_dtoa_r+0x1114>
   43cf4:	19000003 	ldbu	r4,0(r3)
   43cf8:	102f883a 	mov	r23,r2
   43cfc:	10bfffc4 	addi	r2,r2,-1
   43d00:	21403fcc 	andi	r5,r4,255
   43d04:	2940201c 	xori	r5,r5,128
   43d08:	297fe004 	addi	r5,r5,-128
   43d0c:	29bff726 	beq	r5,r6,43cec <__alt_data_end+0xfffce18c>
   43d10:	21000044 	addi	r4,r4,1
   43d14:	11000005 	stb	r4,0(r2)
   43d18:	8009883a 	mov	r4,r16
   43d1c:	a80b883a 	mov	r5,r21
   43d20:	00467280 	call	46728 <_Bfree>
   43d24:	883e7526 	beq	r17,zero,436fc <__alt_data_end+0xfffcdb9c>
   43d28:	90000426 	beq	r18,zero,43d3c <_dtoa_r+0xcf8>
   43d2c:	94400326 	beq	r18,r17,43d3c <_dtoa_r+0xcf8>
   43d30:	8009883a 	mov	r4,r16
   43d34:	900b883a 	mov	r5,r18
   43d38:	00467280 	call	46728 <_Bfree>
   43d3c:	8009883a 	mov	r4,r16
   43d40:	880b883a 	mov	r5,r17
   43d44:	00467280 	call	46728 <_Bfree>
   43d48:	003e6c06 	br	436fc <__alt_data_end+0xfffcdb9c>
   43d4c:	00800704 	movi	r2,28
   43d50:	d9800817 	ldw	r6,32(sp)
   43d54:	a0a9883a 	add	r20,r20,r2
   43d58:	b0ad883a 	add	r22,r22,r2
   43d5c:	308d883a 	add	r6,r6,r2
   43d60:	d9800815 	stw	r6,32(sp)
   43d64:	003fa506 	br	43bfc <__alt_data_end+0xfffce09c>
   43d68:	013efb84 	movi	r4,-1042
   43d6c:	246bc83a 	sub	r21,r4,r17
   43d70:	9548983a 	sll	r4,r18,r21
   43d74:	003d1806 	br	431d8 <__alt_data_end+0xfffcd678>
   43d78:	d8000c15 	stw	zero,48(sp)
   43d7c:	003d5b06 	br	432ec <__alt_data_end+0xfffcd78c>
   43d80:	880b883a 	mov	r5,r17
   43d84:	8009883a 	mov	r4,r16
   43d88:	01800284 	movi	r6,10
   43d8c:	000f883a 	mov	r7,zero
   43d90:	00467500 	call	46750 <__multadd>
   43d94:	1023883a 	mov	r17,r2
   43d98:	d8800d17 	ldw	r2,52(sp)
   43d9c:	0082550e 	bge	zero,r2,446f4 <_dtoa_r+0x16b0>
   43da0:	d8800615 	stw	r2,24(sp)
   43da4:	0500050e 	bge	zero,r20,43dbc <_dtoa_r+0xd78>
   43da8:	880b883a 	mov	r5,r17
   43dac:	8009883a 	mov	r4,r16
   43db0:	a00d883a 	mov	r6,r20
   43db4:	0046eb40 	call	46eb4 <__lshift>
   43db8:	1023883a 	mov	r17,r2
   43dbc:	98016a1e 	bne	r19,zero,44368 <_dtoa_r+0x1324>
   43dc0:	8829883a 	mov	r20,r17
   43dc4:	d9000617 	ldw	r4,24(sp)
   43dc8:	dcc00717 	ldw	r19,28(sp)
   43dcc:	9480004c 	andi	r18,r18,1
   43dd0:	20bfffc4 	addi	r2,r4,-1
   43dd4:	9885883a 	add	r2,r19,r2
   43dd8:	d8800415 	stw	r2,16(sp)
   43ddc:	dc800615 	stw	r18,24(sp)
   43de0:	e009883a 	mov	r4,fp
   43de4:	a80b883a 	mov	r5,r21
   43de8:	0042e1c0 	call	42e1c <quorem>
   43dec:	e009883a 	mov	r4,fp
   43df0:	880b883a 	mov	r5,r17
   43df4:	102f883a 	mov	r23,r2
   43df8:	0046ffc0 	call	46ffc <__mcmp>
   43dfc:	8009883a 	mov	r4,r16
   43e00:	a80b883a 	mov	r5,r21
   43e04:	a00d883a 	mov	r6,r20
   43e08:	102d883a 	mov	r22,r2
   43e0c:	004705c0 	call	4705c <__mdiff>
   43e10:	1007883a 	mov	r3,r2
   43e14:	10800317 	ldw	r2,12(r2)
   43e18:	bc800c04 	addi	r18,r23,48
   43e1c:	1000971e 	bne	r2,zero,4407c <_dtoa_r+0x1038>
   43e20:	180b883a 	mov	r5,r3
   43e24:	e009883a 	mov	r4,fp
   43e28:	d8c01515 	stw	r3,84(sp)
   43e2c:	0046ffc0 	call	46ffc <__mcmp>
   43e30:	d8c01517 	ldw	r3,84(sp)
   43e34:	8009883a 	mov	r4,r16
   43e38:	d8801515 	stw	r2,84(sp)
   43e3c:	180b883a 	mov	r5,r3
   43e40:	00467280 	call	46728 <_Bfree>
   43e44:	d8801517 	ldw	r2,84(sp)
   43e48:	1000041e 	bne	r2,zero,43e5c <_dtoa_r+0xe18>
   43e4c:	d9800317 	ldw	r6,12(sp)
   43e50:	3000021e 	bne	r6,zero,43e5c <_dtoa_r+0xe18>
   43e54:	d8c00617 	ldw	r3,24(sp)
   43e58:	18007626 	beq	r3,zero,44034 <_dtoa_r+0xff0>
   43e5c:	b0005b16 	blt	r22,zero,43fcc <_dtoa_r+0xf88>
   43e60:	b000041e 	bne	r22,zero,43e74 <_dtoa_r+0xe30>
   43e64:	d9000317 	ldw	r4,12(sp)
   43e68:	2000021e 	bne	r4,zero,43e74 <_dtoa_r+0xe30>
   43e6c:	d8c00617 	ldw	r3,24(sp)
   43e70:	18005626 	beq	r3,zero,43fcc <_dtoa_r+0xf88>
   43e74:	00814d16 	blt	zero,r2,443ac <_dtoa_r+0x1368>
   43e78:	d8c00417 	ldw	r3,16(sp)
   43e7c:	9d800044 	addi	r22,r19,1
   43e80:	9c800005 	stb	r18,0(r19)
   43e84:	b02f883a 	mov	r23,r22
   43e88:	98c14c26 	beq	r19,r3,443bc <_dtoa_r+0x1378>
   43e8c:	e00b883a 	mov	r5,fp
   43e90:	8009883a 	mov	r4,r16
   43e94:	01800284 	movi	r6,10
   43e98:	000f883a 	mov	r7,zero
   43e9c:	00467500 	call	46750 <__multadd>
   43ea0:	1039883a 	mov	fp,r2
   43ea4:	8d006d26 	beq	r17,r20,4405c <_dtoa_r+0x1018>
   43ea8:	880b883a 	mov	r5,r17
   43eac:	01800284 	movi	r6,10
   43eb0:	000f883a 	mov	r7,zero
   43eb4:	8009883a 	mov	r4,r16
   43eb8:	00467500 	call	46750 <__multadd>
   43ebc:	a00b883a 	mov	r5,r20
   43ec0:	8009883a 	mov	r4,r16
   43ec4:	01800284 	movi	r6,10
   43ec8:	000f883a 	mov	r7,zero
   43ecc:	1023883a 	mov	r17,r2
   43ed0:	00467500 	call	46750 <__multadd>
   43ed4:	1029883a 	mov	r20,r2
   43ed8:	b027883a 	mov	r19,r22
   43edc:	003fc006 	br	43de0 <__alt_data_end+0xfffce280>
   43ee0:	a005883a 	mov	r2,r20
   43ee4:	003ede06 	br	43a60 <__alt_data_end+0xfffcdf00>
   43ee8:	01000044 	movi	r4,1
   43eec:	d9000b15 	stw	r4,44(sp)
   43ef0:	d9802217 	ldw	r6,136(sp)
   43ef4:	0180dc0e 	bge	zero,r6,44268 <_dtoa_r+0x1224>
   43ef8:	3023883a 	mov	r17,r6
   43efc:	d9800d15 	stw	r6,52(sp)
   43f00:	d9800615 	stw	r6,24(sp)
   43f04:	003d1e06 	br	43380 <__alt_data_end+0xfffcd820>
   43f08:	d8800617 	ldw	r2,24(sp)
   43f0c:	00be3716 	blt	zero,r2,437ec <__alt_data_end+0xfffcdc8c>
   43f10:	1000be1e 	bne	r2,zero,4420c <_dtoa_r+0x11c8>
   43f14:	8809883a 	mov	r4,r17
   43f18:	a00b883a 	mov	r5,r20
   43f1c:	000d883a 	mov	r6,zero
   43f20:	01d00534 	movhi	r7,16404
   43f24:	004bf800 	call	4bf80 <__muldf3>
   43f28:	1009883a 	mov	r4,r2
   43f2c:	180b883a 	mov	r5,r3
   43f30:	900d883a 	mov	r6,r18
   43f34:	980f883a 	mov	r7,r19
   43f38:	004bdc00 	call	4bdc0 <__gedf2>
   43f3c:	002b883a 	mov	r21,zero
   43f40:	0023883a 	mov	r17,zero
   43f44:	10007a16 	blt	r2,zero,44130 <_dtoa_r+0x10ec>
   43f48:	d9002217 	ldw	r4,136(sp)
   43f4c:	ddc00717 	ldw	r23,28(sp)
   43f50:	0108303a 	nor	r4,zero,r4
   43f54:	d9000515 	stw	r4,20(sp)
   43f58:	8009883a 	mov	r4,r16
   43f5c:	a80b883a 	mov	r5,r21
   43f60:	00467280 	call	46728 <_Bfree>
   43f64:	883f751e 	bne	r17,zero,43d3c <__alt_data_end+0xfffce1dc>
   43f68:	003de406 	br	436fc <__alt_data_end+0xfffcdb9c>
   43f6c:	e00b883a 	mov	r5,fp
   43f70:	8009883a 	mov	r4,r16
   43f74:	0046d740 	call	46d74 <__pow5mult>
   43f78:	1039883a 	mov	fp,r2
   43f7c:	003ed306 	br	43acc <__alt_data_end+0xfffcdf6c>
   43f80:	903ee01e 	bne	r18,zero,43b04 <__alt_data_end+0xfffcdfa4>
   43f84:	00800434 	movhi	r2,16
   43f88:	10bfffc4 	addi	r2,r2,-1
   43f8c:	9884703a 	and	r2,r19,r2
   43f90:	103f081e 	bne	r2,zero,43bb4 <__alt_data_end+0xfffce054>
   43f94:	9cdffc2c 	andhi	r19,r19,32752
   43f98:	983f0626 	beq	r19,zero,43bb4 <__alt_data_end+0xfffce054>
   43f9c:	d8800817 	ldw	r2,32(sp)
   43fa0:	b5800044 	addi	r22,r22,1
   43fa4:	04c00044 	movi	r19,1
   43fa8:	10800044 	addi	r2,r2,1
   43fac:	d8800815 	stw	r2,32(sp)
   43fb0:	003f0106 	br	43bb8 <__alt_data_end+0xfffce058>
   43fb4:	d9800f17 	ldw	r6,60(sp)
   43fb8:	30016826 	beq	r6,zero,4455c <_dtoa_r+0x1518>
   43fbc:	10810cc4 	addi	r2,r2,1075
   43fc0:	dd400917 	ldw	r21,36(sp)
   43fc4:	dd000817 	ldw	r20,32(sp)
   43fc8:	003e9906 	br	43a30 <__alt_data_end+0xfffcded0>
   43fcc:	9011883a 	mov	r8,r18
   43fd0:	4007883a 	mov	r3,r8
   43fd4:	e02d883a 	mov	r22,fp
   43fd8:	0080100e 	bge	zero,r2,4401c <_dtoa_r+0xfd8>
   43fdc:	01800044 	movi	r6,1
   43fe0:	8009883a 	mov	r4,r16
   43fe4:	e00b883a 	mov	r5,fp
   43fe8:	da001515 	stw	r8,84(sp)
   43fec:	da001715 	stw	r8,92(sp)
   43ff0:	0046eb40 	call	46eb4 <__lshift>
   43ff4:	1009883a 	mov	r4,r2
   43ff8:	a80b883a 	mov	r5,r21
   43ffc:	102d883a 	mov	r22,r2
   44000:	0046ffc0 	call	46ffc <__mcmp>
   44004:	d8c01517 	ldw	r3,84(sp)
   44008:	da001717 	ldw	r8,92(sp)
   4400c:	0081a50e 	bge	zero,r2,446a4 <_dtoa_r+0x1660>
   44010:	00800e44 	movi	r2,57
   44014:	40817b26 	beq	r8,r2,44604 <_dtoa_r+0x15c0>
   44018:	40c00044 	addi	r3,r8,1
   4401c:	8825883a 	mov	r18,r17
   44020:	9dc00044 	addi	r23,r19,1
   44024:	98c00005 	stb	r3,0(r19)
   44028:	a023883a 	mov	r17,r20
   4402c:	b039883a 	mov	fp,r22
   44030:	003f3906 	br	43d18 <__alt_data_end+0xfffce1b8>
   44034:	00800e44 	movi	r2,57
   44038:	9011883a 	mov	r8,r18
   4403c:	90817226 	beq	r18,r2,44608 <_dtoa_r+0x15c4>
   44040:	0580010e 	bge	zero,r22,44048 <_dtoa_r+0x1004>
   44044:	ba000c44 	addi	r8,r23,49
   44048:	8825883a 	mov	r18,r17
   4404c:	9dc00044 	addi	r23,r19,1
   44050:	9a000005 	stb	r8,0(r19)
   44054:	a023883a 	mov	r17,r20
   44058:	003f2f06 	br	43d18 <__alt_data_end+0xfffce1b8>
   4405c:	880b883a 	mov	r5,r17
   44060:	8009883a 	mov	r4,r16
   44064:	01800284 	movi	r6,10
   44068:	000f883a 	mov	r7,zero
   4406c:	00467500 	call	46750 <__multadd>
   44070:	1023883a 	mov	r17,r2
   44074:	1029883a 	mov	r20,r2
   44078:	003f9706 	br	43ed8 <__alt_data_end+0xfffce378>
   4407c:	8009883a 	mov	r4,r16
   44080:	180b883a 	mov	r5,r3
   44084:	00467280 	call	46728 <_Bfree>
   44088:	00800044 	movi	r2,1
   4408c:	003f7306 	br	43e5c <__alt_data_end+0xfffce2fc>
   44090:	e009883a 	mov	r4,fp
   44094:	a80b883a 	mov	r5,r21
   44098:	0046ffc0 	call	46ffc <__mcmp>
   4409c:	103ee60e 	bge	r2,zero,43c38 <__alt_data_end+0xfffce0d8>
   440a0:	8009883a 	mov	r4,r16
   440a4:	e00b883a 	mov	r5,fp
   440a8:	01800284 	movi	r6,10
   440ac:	000f883a 	mov	r7,zero
   440b0:	00467500 	call	46750 <__multadd>
   440b4:	d9000517 	ldw	r4,20(sp)
   440b8:	d9800b17 	ldw	r6,44(sp)
   440bc:	1039883a 	mov	fp,r2
   440c0:	213fffc4 	addi	r4,r4,-1
   440c4:	d9000515 	stw	r4,20(sp)
   440c8:	303f2d1e 	bne	r6,zero,43d80 <__alt_data_end+0xfffce220>
   440cc:	d9000d17 	ldw	r4,52(sp)
   440d0:	0101780e 	bge	zero,r4,446b4 <_dtoa_r+0x1670>
   440d4:	d9000615 	stw	r4,24(sp)
   440d8:	003edb06 	br	43c48 <__alt_data_end+0xfffce0e8>
   440dc:	00800084 	movi	r2,2
   440e0:	30818e1e 	bne	r6,r2,4471c <_dtoa_r+0x16d8>
   440e4:	d8000b15 	stw	zero,44(sp)
   440e8:	003f8106 	br	43ef0 <__alt_data_end+0xfffce390>
   440ec:	d8800717 	ldw	r2,28(sp)
   440f0:	003c0306 	br	43100 <__alt_data_end+0xfffcd5a0>
   440f4:	d9000317 	ldw	r4,12(sp)
   440f8:	00800084 	movi	r2,2
   440fc:	113ed00e 	bge	r2,r4,43c40 <__alt_data_end+0xfffce0e0>
   44100:	d8c00617 	ldw	r3,24(sp)
   44104:	183f901e 	bne	r3,zero,43f48 <__alt_data_end+0xfffce3e8>
   44108:	a80b883a 	mov	r5,r21
   4410c:	8009883a 	mov	r4,r16
   44110:	01800144 	movi	r6,5
   44114:	000f883a 	mov	r7,zero
   44118:	00467500 	call	46750 <__multadd>
   4411c:	e009883a 	mov	r4,fp
   44120:	100b883a 	mov	r5,r2
   44124:	102b883a 	mov	r21,r2
   44128:	0046ffc0 	call	46ffc <__mcmp>
   4412c:	00bf860e 	bge	zero,r2,43f48 <__alt_data_end+0xfffce3e8>
   44130:	d9800717 	ldw	r6,28(sp)
   44134:	00800c44 	movi	r2,49
   44138:	30800005 	stb	r2,0(r6)
   4413c:	d8800517 	ldw	r2,20(sp)
   44140:	35c00044 	addi	r23,r6,1
   44144:	10800044 	addi	r2,r2,1
   44148:	d8800515 	stw	r2,20(sp)
   4414c:	003f8206 	br	43f58 <__alt_data_end+0xfffce3f8>
   44150:	903e981e 	bne	r18,zero,43bb4 <__alt_data_end+0xfffce054>
   44154:	003f8b06 	br	43f84 <__alt_data_end+0xfffce424>
   44158:	d9800517 	ldw	r6,20(sp)
   4415c:	d8c00717 	ldw	r3,28(sp)
   44160:	00800c44 	movi	r2,49
   44164:	31800044 	addi	r6,r6,1
   44168:	d9800515 	stw	r6,20(sp)
   4416c:	18800005 	stb	r2,0(r3)
   44170:	003ee906 	br	43d18 <__alt_data_end+0xfffce1b8>
   44174:	dc000317 	ldw	r16,12(sp)
   44178:	003d6006 	br	436fc <__alt_data_end+0xfffcdb9c>
   4417c:	8809883a 	mov	r4,r17
   44180:	004d1440 	call	4d144 <__floatsidf>
   44184:	a009883a 	mov	r4,r20
   44188:	a80b883a 	mov	r5,r21
   4418c:	100d883a 	mov	r6,r2
   44190:	180f883a 	mov	r7,r3
   44194:	004bf800 	call	4bf80 <__muldf3>
   44198:	1009883a 	mov	r4,r2
   4419c:	180b883a 	mov	r5,r3
   441a0:	000d883a 	mov	r6,zero
   441a4:	01d00734 	movhi	r7,16412
   441a8:	004ab200 	call	4ab20 <__adddf3>
   441ac:	1023883a 	mov	r17,r2
   441b0:	00bf3034 	movhi	r2,64704
   441b4:	1885883a 	add	r2,r3,r2
   441b8:	d8800e15 	stw	r2,56(sp)
   441bc:	a009883a 	mov	r4,r20
   441c0:	a80b883a 	mov	r5,r21
   441c4:	000d883a 	mov	r6,zero
   441c8:	01d00534 	movhi	r7,16404
   441cc:	004c7ec0 	call	4c7ec <__subdf3>
   441d0:	d9c00e17 	ldw	r7,56(sp)
   441d4:	1009883a 	mov	r4,r2
   441d8:	180b883a 	mov	r5,r3
   441dc:	880d883a 	mov	r6,r17
   441e0:	102b883a 	mov	r21,r2
   441e4:	1829883a 	mov	r20,r3
   441e8:	004bdc00 	call	4bdc0 <__gedf2>
   441ec:	00807716 	blt	zero,r2,443cc <_dtoa_r+0x1388>
   441f0:	d8800e17 	ldw	r2,56(sp)
   441f4:	a809883a 	mov	r4,r21
   441f8:	a00b883a 	mov	r5,r20
   441fc:	11e0003c 	xorhi	r7,r2,32768
   44200:	880d883a 	mov	r6,r17
   44204:	004bea00 	call	4bea0 <__ledf2>
   44208:	103d6b0e 	bge	r2,zero,437b8 <__alt_data_end+0xfffcdc58>
   4420c:	002b883a 	mov	r21,zero
   44210:	0023883a 	mov	r17,zero
   44214:	003f4c06 	br	43f48 <__alt_data_end+0xfffce3e8>
   44218:	d9800917 	ldw	r6,36(sp)
   4421c:	e00b883a 	mov	r5,fp
   44220:	8009883a 	mov	r4,r16
   44224:	0046d740 	call	46d74 <__pow5mult>
   44228:	1039883a 	mov	fp,r2
   4422c:	003e2706 	br	43acc <__alt_data_end+0xfffcdf6c>
   44230:	d8000b15 	stw	zero,44(sp)
   44234:	003c4906 	br	4335c <__alt_data_end+0xfffcd7fc>
   44238:	d9000917 	ldw	r4,36(sp)
   4423c:	d9800a17 	ldw	r6,40(sp)
   44240:	dd400915 	stw	r21,36(sp)
   44244:	a905c83a 	sub	r2,r21,r4
   44248:	308d883a 	add	r6,r6,r2
   4424c:	d9800a15 	stw	r6,40(sp)
   44250:	002b883a 	mov	r21,zero
   44254:	003df206 	br	43a20 <__alt_data_end+0xfffcdec0>
   44258:	dc800e15 	stw	r18,56(sp)
   4425c:	982b883a 	mov	r21,r19
   44260:	04400084 	movi	r17,2
   44264:	003c7406 	br	43438 <__alt_data_end+0xfffcd8d8>
   44268:	04400044 	movi	r17,1
   4426c:	dc400d15 	stw	r17,52(sp)
   44270:	dc400615 	stw	r17,24(sp)
   44274:	dc402215 	stw	r17,136(sp)
   44278:	80001115 	stw	zero,68(r16)
   4427c:	000b883a 	mov	r5,zero
   44280:	003c4a06 	br	433ac <__alt_data_end+0xfffcd84c>
   44284:	3023883a 	mov	r17,r6
   44288:	003ffb06 	br	44278 <__alt_data_end+0xfffce718>
   4428c:	1000021e 	bne	r2,zero,44298 <_dtoa_r+0x1254>
   44290:	4200004c 	andi	r8,r8,1
   44294:	403e8f1e 	bne	r8,zero,43cd4 <__alt_data_end+0xfffce174>
   44298:	01000c04 	movi	r4,48
   4429c:	00000106 	br	442a4 <_dtoa_r+0x1260>
   442a0:	102f883a 	mov	r23,r2
   442a4:	b8bfffc4 	addi	r2,r23,-1
   442a8:	10c00007 	ldb	r3,0(r2)
   442ac:	193ffc26 	beq	r3,r4,442a0 <__alt_data_end+0xfffce740>
   442b0:	003e9906 	br	43d18 <__alt_data_end+0xfffce1b8>
   442b4:	d9000517 	ldw	r4,20(sp)
   442b8:	012fc83a 	sub	r23,zero,r4
   442bc:	b800ad26 	beq	r23,zero,44574 <_dtoa_r+0x1530>
   442c0:	b88003cc 	andi	r2,r23,15
   442c4:	100490fa 	slli	r2,r2,3
   442c8:	00c00174 	movhi	r3,5
   442cc:	18c1d104 	addi	r3,r3,1860
   442d0:	1885883a 	add	r2,r3,r2
   442d4:	11800017 	ldw	r6,0(r2)
   442d8:	11c00117 	ldw	r7,4(r2)
   442dc:	b82fd13a 	srai	r23,r23,4
   442e0:	9009883a 	mov	r4,r18
   442e4:	980b883a 	mov	r5,r19
   442e8:	004bf800 	call	4bf80 <__muldf3>
   442ec:	1029883a 	mov	r20,r2
   442f0:	182b883a 	mov	r21,r3
   442f4:	b800f426 	beq	r23,zero,446c8 <_dtoa_r+0x1684>
   442f8:	02000174 	movhi	r8,5
   442fc:	4201c704 	addi	r8,r8,1820
   44300:	8029883a 	mov	r20,r16
   44304:	04400084 	movi	r17,2
   44308:	4021883a 	mov	r16,r8
   4430c:	b980004c 	andi	r6,r23,1
   44310:	1009883a 	mov	r4,r2
   44314:	b82fd07a 	srai	r23,r23,1
   44318:	180b883a 	mov	r5,r3
   4431c:	30000426 	beq	r6,zero,44330 <_dtoa_r+0x12ec>
   44320:	81800017 	ldw	r6,0(r16)
   44324:	81c00117 	ldw	r7,4(r16)
   44328:	8c400044 	addi	r17,r17,1
   4432c:	004bf800 	call	4bf80 <__muldf3>
   44330:	84000204 	addi	r16,r16,8
   44334:	b83ff51e 	bne	r23,zero,4430c <__alt_data_end+0xfffce7ac>
   44338:	a021883a 	mov	r16,r20
   4433c:	182b883a 	mov	r21,r3
   44340:	1029883a 	mov	r20,r2
   44344:	003c5506 	br	4349c <__alt_data_end+0xfffcd93c>
   44348:	d9800517 	ldw	r6,20(sp)
   4434c:	d9000717 	ldw	r4,28(sp)
   44350:	00c00c04 	movi	r3,48
   44354:	31800044 	addi	r6,r6,1
   44358:	d9800515 	stw	r6,20(sp)
   4435c:	20c00005 	stb	r3,0(r4)
   44360:	02000c44 	movi	r8,49
   44364:	003da206 	br	439f0 <__alt_data_end+0xfffcde90>
   44368:	89400117 	ldw	r5,4(r17)
   4436c:	8009883a 	mov	r4,r16
   44370:	00466800 	call	46680 <_Balloc>
   44374:	89800417 	ldw	r6,16(r17)
   44378:	11000304 	addi	r4,r2,12
   4437c:	89400304 	addi	r5,r17,12
   44380:	31800084 	addi	r6,r6,2
   44384:	318d883a 	add	r6,r6,r6
   44388:	318d883a 	add	r6,r6,r6
   4438c:	1027883a 	mov	r19,r2
   44390:	00462c80 	call	462c8 <memcpy>
   44394:	8009883a 	mov	r4,r16
   44398:	980b883a 	mov	r5,r19
   4439c:	01800044 	movi	r6,1
   443a0:	0046eb40 	call	46eb4 <__lshift>
   443a4:	1029883a 	mov	r20,r2
   443a8:	003e8606 	br	43dc4 <__alt_data_end+0xfffce264>
   443ac:	00800e44 	movi	r2,57
   443b0:	90809526 	beq	r18,r2,44608 <_dtoa_r+0x15c4>
   443b4:	92000044 	addi	r8,r18,1
   443b8:	003f2306 	br	44048 <__alt_data_end+0xfffce4e8>
   443bc:	9011883a 	mov	r8,r18
   443c0:	8825883a 	mov	r18,r17
   443c4:	a023883a 	mov	r17,r20
   443c8:	003e3706 	br	43ca8 <__alt_data_end+0xfffce148>
   443cc:	002b883a 	mov	r21,zero
   443d0:	0023883a 	mov	r17,zero
   443d4:	003f5606 	br	44130 <__alt_data_end+0xfffce5d0>
   443d8:	51bfffc4 	addi	r6,r10,-1
   443dc:	300490fa 	slli	r2,r6,3
   443e0:	00c00174 	movhi	r3,5
   443e4:	18c1d104 	addi	r3,r3,1860
   443e8:	1885883a 	add	r2,r3,r2
   443ec:	d9c00e17 	ldw	r7,56(sp)
   443f0:	11000017 	ldw	r4,0(r2)
   443f4:	11400117 	ldw	r5,4(r2)
   443f8:	d8800717 	ldw	r2,28(sp)
   443fc:	d9801015 	stw	r6,64(sp)
   44400:	880d883a 	mov	r6,r17
   44404:	da801615 	stw	r10,88(sp)
   44408:	15c00044 	addi	r23,r2,1
   4440c:	004bf800 	call	4bf80 <__muldf3>
   44410:	a80b883a 	mov	r5,r21
   44414:	a009883a 	mov	r4,r20
   44418:	d8c01115 	stw	r3,68(sp)
   4441c:	d8800e15 	stw	r2,56(sp)
   44420:	004d0bc0 	call	4d0bc <__fixdfsi>
   44424:	1009883a 	mov	r4,r2
   44428:	1023883a 	mov	r17,r2
   4442c:	004d1440 	call	4d144 <__floatsidf>
   44430:	a009883a 	mov	r4,r20
   44434:	a80b883a 	mov	r5,r21
   44438:	100d883a 	mov	r6,r2
   4443c:	180f883a 	mov	r7,r3
   44440:	004c7ec0 	call	4c7ec <__subdf3>
   44444:	1813883a 	mov	r9,r3
   44448:	d8c00717 	ldw	r3,28(sp)
   4444c:	8c400c04 	addi	r17,r17,48
   44450:	1011883a 	mov	r8,r2
   44454:	1c400005 	stb	r17,0(r3)
   44458:	da801617 	ldw	r10,88(sp)
   4445c:	00800044 	movi	r2,1
   44460:	50802326 	beq	r10,r2,444f0 <_dtoa_r+0x14ac>
   44464:	d8800717 	ldw	r2,28(sp)
   44468:	b82b883a 	mov	r21,r23
   4446c:	dc001315 	stw	r16,76(sp)
   44470:	12a9883a 	add	r20,r2,r10
   44474:	4807883a 	mov	r3,r9
   44478:	4005883a 	mov	r2,r8
   4447c:	dc801415 	stw	r18,80(sp)
   44480:	000d883a 	mov	r6,zero
   44484:	01d00934 	movhi	r7,16420
   44488:	1009883a 	mov	r4,r2
   4448c:	180b883a 	mov	r5,r3
   44490:	004bf800 	call	4bf80 <__muldf3>
   44494:	180b883a 	mov	r5,r3
   44498:	1009883a 	mov	r4,r2
   4449c:	1821883a 	mov	r16,r3
   444a0:	1025883a 	mov	r18,r2
   444a4:	004d0bc0 	call	4d0bc <__fixdfsi>
   444a8:	1009883a 	mov	r4,r2
   444ac:	1023883a 	mov	r17,r2
   444b0:	004d1440 	call	4d144 <__floatsidf>
   444b4:	9009883a 	mov	r4,r18
   444b8:	800b883a 	mov	r5,r16
   444bc:	100d883a 	mov	r6,r2
   444c0:	180f883a 	mov	r7,r3
   444c4:	8c400c04 	addi	r17,r17,48
   444c8:	004c7ec0 	call	4c7ec <__subdf3>
   444cc:	ad400044 	addi	r21,r21,1
   444d0:	ac7fffc5 	stb	r17,-1(r21)
   444d4:	ad3fea1e 	bne	r21,r20,44480 <__alt_data_end+0xfffce920>
   444d8:	1813883a 	mov	r9,r3
   444dc:	d8c01017 	ldw	r3,64(sp)
   444e0:	dc001317 	ldw	r16,76(sp)
   444e4:	dc801417 	ldw	r18,80(sp)
   444e8:	1011883a 	mov	r8,r2
   444ec:	b8ef883a 	add	r23,r23,r3
   444f0:	d9000e17 	ldw	r4,56(sp)
   444f4:	d9401117 	ldw	r5,68(sp)
   444f8:	000d883a 	mov	r6,zero
   444fc:	01cff834 	movhi	r7,16352
   44500:	da001715 	stw	r8,92(sp)
   44504:	da401515 	stw	r9,84(sp)
   44508:	004ab200 	call	4ab20 <__adddf3>
   4450c:	da001717 	ldw	r8,92(sp)
   44510:	da401517 	ldw	r9,84(sp)
   44514:	1009883a 	mov	r4,r2
   44518:	400d883a 	mov	r6,r8
   4451c:	480f883a 	mov	r7,r9
   44520:	180b883a 	mov	r5,r3
   44524:	004bea00 	call	4bea0 <__ledf2>
   44528:	da001717 	ldw	r8,92(sp)
   4452c:	da401517 	ldw	r9,84(sp)
   44530:	10003b0e 	bge	r2,zero,44620 <_dtoa_r+0x15dc>
   44534:	d9001217 	ldw	r4,72(sp)
   44538:	bd7fffc3 	ldbu	r21,-1(r23)
   4453c:	d9000515 	stw	r4,20(sp)
   44540:	003d1c06 	br	439b4 <__alt_data_end+0xfffcde54>
   44544:	d8c00817 	ldw	r3,32(sp)
   44548:	18a9c83a 	sub	r20,r3,r2
   4454c:	0005883a 	mov	r2,zero
   44550:	003d3706 	br	43a30 <__alt_data_end+0xfffcded0>
   44554:	00800044 	movi	r2,1
   44558:	003dd006 	br	43c9c <__alt_data_end+0xfffce13c>
   4455c:	d8c00217 	ldw	r3,8(sp)
   44560:	00800d84 	movi	r2,54
   44564:	dd400917 	ldw	r21,36(sp)
   44568:	10c5c83a 	sub	r2,r2,r3
   4456c:	dd000817 	ldw	r20,32(sp)
   44570:	003d2f06 	br	43a30 <__alt_data_end+0xfffcded0>
   44574:	9029883a 	mov	r20,r18
   44578:	982b883a 	mov	r21,r19
   4457c:	04400084 	movi	r17,2
   44580:	003bc606 	br	4349c <__alt_data_end+0xfffcd93c>
   44584:	d8800617 	ldw	r2,24(sp)
   44588:	103efc26 	beq	r2,zero,4417c <__alt_data_end+0xfffce61c>
   4458c:	d8c00d17 	ldw	r3,52(sp)
   44590:	00fc890e 	bge	zero,r3,437b8 <__alt_data_end+0xfffcdc58>
   44594:	a80b883a 	mov	r5,r21
   44598:	a009883a 	mov	r4,r20
   4459c:	000d883a 	mov	r6,zero
   445a0:	01d00934 	movhi	r7,16420
   445a4:	004bf800 	call	4bf80 <__muldf3>
   445a8:	89000044 	addi	r4,r17,1
   445ac:	1029883a 	mov	r20,r2
   445b0:	182b883a 	mov	r21,r3
   445b4:	004d1440 	call	4d144 <__floatsidf>
   445b8:	a009883a 	mov	r4,r20
   445bc:	a80b883a 	mov	r5,r21
   445c0:	100d883a 	mov	r6,r2
   445c4:	180f883a 	mov	r7,r3
   445c8:	004bf800 	call	4bf80 <__muldf3>
   445cc:	1009883a 	mov	r4,r2
   445d0:	180b883a 	mov	r5,r3
   445d4:	000d883a 	mov	r6,zero
   445d8:	01d00734 	movhi	r7,16412
   445dc:	004ab200 	call	4ab20 <__adddf3>
   445e0:	d9000517 	ldw	r4,20(sp)
   445e4:	1023883a 	mov	r17,r2
   445e8:	00bf3034 	movhi	r2,64704
   445ec:	213fffc4 	addi	r4,r4,-1
   445f0:	1885883a 	add	r2,r3,r2
   445f4:	d9001215 	stw	r4,72(sp)
   445f8:	d8800e15 	stw	r2,56(sp)
   445fc:	da800d17 	ldw	r10,52(sp)
   44600:	003bc306 	br	43510 <__alt_data_end+0xfffcd9b0>
   44604:	b039883a 	mov	fp,r22
   44608:	01000e44 	movi	r4,57
   4460c:	8825883a 	mov	r18,r17
   44610:	9dc00044 	addi	r23,r19,1
   44614:	99000005 	stb	r4,0(r19)
   44618:	a023883a 	mov	r17,r20
   4461c:	003dae06 	br	43cd8 <__alt_data_end+0xfffce178>
   44620:	d9800e17 	ldw	r6,56(sp)
   44624:	d9c01117 	ldw	r7,68(sp)
   44628:	0009883a 	mov	r4,zero
   4462c:	014ff834 	movhi	r5,16352
   44630:	da001715 	stw	r8,92(sp)
   44634:	da401515 	stw	r9,84(sp)
   44638:	004c7ec0 	call	4c7ec <__subdf3>
   4463c:	da001717 	ldw	r8,92(sp)
   44640:	da401517 	ldw	r9,84(sp)
   44644:	1009883a 	mov	r4,r2
   44648:	180b883a 	mov	r5,r3
   4464c:	400d883a 	mov	r6,r8
   44650:	480f883a 	mov	r7,r9
   44654:	004bdc00 	call	4bdc0 <__gedf2>
   44658:	00bc570e 	bge	zero,r2,437b8 <__alt_data_end+0xfffcdc58>
   4465c:	01000c04 	movi	r4,48
   44660:	00000106 	br	44668 <_dtoa_r+0x1624>
   44664:	102f883a 	mov	r23,r2
   44668:	b8bfffc4 	addi	r2,r23,-1
   4466c:	10c00007 	ldb	r3,0(r2)
   44670:	193ffc26 	beq	r3,r4,44664 <__alt_data_end+0xfffceb04>
   44674:	d9801217 	ldw	r6,72(sp)
   44678:	d9800515 	stw	r6,20(sp)
   4467c:	003c1f06 	br	436fc <__alt_data_end+0xfffcdb9c>
   44680:	d8801217 	ldw	r2,72(sp)
   44684:	dc001117 	ldw	r16,68(sp)
   44688:	d8800515 	stw	r2,20(sp)
   4468c:	003cc906 	br	439b4 <__alt_data_end+0xfffcde54>
   44690:	dd801317 	ldw	r22,76(sp)
   44694:	dc001117 	ldw	r16,68(sp)
   44698:	dcc01417 	ldw	r19,80(sp)
   4469c:	dc801017 	ldw	r18,64(sp)
   446a0:	003c4506 	br	437b8 <__alt_data_end+0xfffcdc58>
   446a4:	103e5d1e 	bne	r2,zero,4401c <__alt_data_end+0xfffce4bc>
   446a8:	4080004c 	andi	r2,r8,1
   446ac:	103e5b26 	beq	r2,zero,4401c <__alt_data_end+0xfffce4bc>
   446b0:	003e5706 	br	44010 <__alt_data_end+0xfffce4b0>
   446b4:	d8c00317 	ldw	r3,12(sp)
   446b8:	00800084 	movi	r2,2
   446bc:	10c00a16 	blt	r2,r3,446e8 <_dtoa_r+0x16a4>
   446c0:	d9000d17 	ldw	r4,52(sp)
   446c4:	003e8306 	br	440d4 <__alt_data_end+0xfffce574>
   446c8:	04400084 	movi	r17,2
   446cc:	003b7306 	br	4349c <__alt_data_end+0xfffcd93c>
   446d0:	d9801217 	ldw	r6,72(sp)
   446d4:	d9800515 	stw	r6,20(sp)
   446d8:	003cb606 	br	439b4 <__alt_data_end+0xfffcde54>
   446dc:	d9001217 	ldw	r4,72(sp)
   446e0:	d9000515 	stw	r4,20(sp)
   446e4:	003c0506 	br	436fc <__alt_data_end+0xfffcdb9c>
   446e8:	d9800d17 	ldw	r6,52(sp)
   446ec:	d9800615 	stw	r6,24(sp)
   446f0:	003e8306 	br	44100 <__alt_data_end+0xfffce5a0>
   446f4:	d9800317 	ldw	r6,12(sp)
   446f8:	00800084 	movi	r2,2
   446fc:	11800216 	blt	r2,r6,44708 <_dtoa_r+0x16c4>
   44700:	d8800d17 	ldw	r2,52(sp)
   44704:	003da606 	br	43da0 <__alt_data_end+0xfffce240>
   44708:	d8800d17 	ldw	r2,52(sp)
   4470c:	d8800615 	stw	r2,24(sp)
   44710:	003e7b06 	br	44100 <__alt_data_end+0xfffce5a0>
   44714:	05000044 	movi	r20,1
   44718:	003b0506 	br	43330 <__alt_data_end+0xfffcd7d0>
   4471c:	8009883a 	mov	r4,r16
   44720:	80001115 	stw	zero,68(r16)
   44724:	000b883a 	mov	r5,zero
   44728:	00466800 	call	46680 <_Balloc>
   4472c:	d8800715 	stw	r2,28(sp)
   44730:	d8c00717 	ldw	r3,28(sp)
   44734:	00bfffc4 	movi	r2,-1
   44738:	01000044 	movi	r4,1
   4473c:	d8800615 	stw	r2,24(sp)
   44740:	80c01015 	stw	r3,64(r16)
   44744:	d9000b15 	stw	r4,44(sp)
   44748:	d8002215 	stw	zero,136(sp)
   4474c:	d8800d15 	stw	r2,52(sp)
   44750:	003c1906 	br	437b8 <__alt_data_end+0xfffcdc58>
   44754:	193d2926 	beq	r3,r4,43bfc <__alt_data_end+0xfffce09c>
   44758:	00c00f04 	movi	r3,60
   4475c:	1885c83a 	sub	r2,r3,r2
   44760:	003d7b06 	br	43d50 <__alt_data_end+0xfffce1f0>
   44764:	000b883a 	mov	r5,zero
   44768:	003b1006 	br	433ac <__alt_data_end+0xfffcd84c>

0004476c <_fflush_r>:
   4476c:	defffb04 	addi	sp,sp,-20
   44770:	dcc00315 	stw	r19,12(sp)
   44774:	dc000015 	stw	r16,0(sp)
   44778:	dfc00415 	stw	ra,16(sp)
   4477c:	dc800215 	stw	r18,8(sp)
   44780:	dc400115 	stw	r17,4(sp)
   44784:	2027883a 	mov	r19,r4
   44788:	2821883a 	mov	r16,r5
   4478c:	20000226 	beq	r4,zero,44798 <_fflush_r+0x2c>
   44790:	20800e17 	ldw	r2,56(r4)
   44794:	10005326 	beq	r2,zero,448e4 <_fflush_r+0x178>
   44798:	8080030b 	ldhu	r2,12(r16)
   4479c:	10ffffcc 	andi	r3,r2,65535
   447a0:	18e0001c 	xori	r3,r3,32768
   447a4:	18e00004 	addi	r3,r3,-32768
   447a8:	18002c26 	beq	r3,zero,4485c <_fflush_r+0xf0>
   447ac:	10c0020c 	andi	r3,r2,8
   447b0:	1800321e 	bne	r3,zero,4487c <_fflush_r+0x110>
   447b4:	80c00117 	ldw	r3,4(r16)
   447b8:	10820014 	ori	r2,r2,2048
   447bc:	8080030d 	sth	r2,12(r16)
   447c0:	00c0570e 	bge	zero,r3,44920 <_fflush_r+0x1b4>
   447c4:	82000a17 	ldw	r8,40(r16)
   447c8:	40002426 	beq	r8,zero,4485c <_fflush_r+0xf0>
   447cc:	9c400017 	ldw	r17,0(r19)
   447d0:	10c4000c 	andi	r3,r2,4096
   447d4:	98000015 	stw	zero,0(r19)
   447d8:	18004626 	beq	r3,zero,448f4 <_fflush_r+0x188>
   447dc:	81801417 	ldw	r6,80(r16)
   447e0:	10c0010c 	andi	r3,r2,4
   447e4:	18000626 	beq	r3,zero,44800 <_fflush_r+0x94>
   447e8:	80c00117 	ldw	r3,4(r16)
   447ec:	80800c17 	ldw	r2,48(r16)
   447f0:	30cdc83a 	sub	r6,r6,r3
   447f4:	10000226 	beq	r2,zero,44800 <_fflush_r+0x94>
   447f8:	80800f17 	ldw	r2,60(r16)
   447fc:	308dc83a 	sub	r6,r6,r2
   44800:	81400717 	ldw	r5,28(r16)
   44804:	9809883a 	mov	r4,r19
   44808:	000f883a 	mov	r7,zero
   4480c:	403ee83a 	callr	r8
   44810:	00ffffc4 	movi	r3,-1
   44814:	10c04526 	beq	r2,r3,4492c <_fflush_r+0x1c0>
   44818:	80c0030b 	ldhu	r3,12(r16)
   4481c:	81000417 	ldw	r4,16(r16)
   44820:	80000115 	stw	zero,4(r16)
   44824:	197dffcc 	andi	r5,r3,63487
   44828:	8140030d 	sth	r5,12(r16)
   4482c:	81000015 	stw	r4,0(r16)
   44830:	18c4000c 	andi	r3,r3,4096
   44834:	18000126 	beq	r3,zero,4483c <_fflush_r+0xd0>
   44838:	80801415 	stw	r2,80(r16)
   4483c:	81400c17 	ldw	r5,48(r16)
   44840:	9c400015 	stw	r17,0(r19)
   44844:	28000526 	beq	r5,zero,4485c <_fflush_r+0xf0>
   44848:	80801004 	addi	r2,r16,64
   4484c:	28800226 	beq	r5,r2,44858 <_fflush_r+0xec>
   44850:	9809883a 	mov	r4,r19
   44854:	0044e9c0 	call	44e9c <_free_r>
   44858:	80000c15 	stw	zero,48(r16)
   4485c:	0005883a 	mov	r2,zero
   44860:	dfc00417 	ldw	ra,16(sp)
   44864:	dcc00317 	ldw	r19,12(sp)
   44868:	dc800217 	ldw	r18,8(sp)
   4486c:	dc400117 	ldw	r17,4(sp)
   44870:	dc000017 	ldw	r16,0(sp)
   44874:	dec00504 	addi	sp,sp,20
   44878:	f800283a 	ret
   4487c:	84800417 	ldw	r18,16(r16)
   44880:	903ff626 	beq	r18,zero,4485c <__alt_data_end+0xfffcecfc>
   44884:	84400017 	ldw	r17,0(r16)
   44888:	108000cc 	andi	r2,r2,3
   4488c:	84800015 	stw	r18,0(r16)
   44890:	8ca3c83a 	sub	r17,r17,r18
   44894:	10001526 	beq	r2,zero,448ec <_fflush_r+0x180>
   44898:	0005883a 	mov	r2,zero
   4489c:	80800215 	stw	r2,8(r16)
   448a0:	04400316 	blt	zero,r17,448b0 <_fflush_r+0x144>
   448a4:	003fed06 	br	4485c <__alt_data_end+0xfffcecfc>
   448a8:	90a5883a 	add	r18,r18,r2
   448ac:	047feb0e 	bge	zero,r17,4485c <__alt_data_end+0xfffcecfc>
   448b0:	80800917 	ldw	r2,36(r16)
   448b4:	81400717 	ldw	r5,28(r16)
   448b8:	880f883a 	mov	r7,r17
   448bc:	900d883a 	mov	r6,r18
   448c0:	9809883a 	mov	r4,r19
   448c4:	103ee83a 	callr	r2
   448c8:	88a3c83a 	sub	r17,r17,r2
   448cc:	00bff616 	blt	zero,r2,448a8 <__alt_data_end+0xfffced48>
   448d0:	80c0030b 	ldhu	r3,12(r16)
   448d4:	00bfffc4 	movi	r2,-1
   448d8:	18c01014 	ori	r3,r3,64
   448dc:	80c0030d 	sth	r3,12(r16)
   448e0:	003fdf06 	br	44860 <__alt_data_end+0xfffced00>
   448e4:	0044d280 	call	44d28 <__sinit>
   448e8:	003fab06 	br	44798 <__alt_data_end+0xfffcec38>
   448ec:	80800517 	ldw	r2,20(r16)
   448f0:	003fea06 	br	4489c <__alt_data_end+0xfffced3c>
   448f4:	81400717 	ldw	r5,28(r16)
   448f8:	000d883a 	mov	r6,zero
   448fc:	9809883a 	mov	r4,r19
   44900:	01c00044 	movi	r7,1
   44904:	403ee83a 	callr	r8
   44908:	100d883a 	mov	r6,r2
   4490c:	00bfffc4 	movi	r2,-1
   44910:	30801326 	beq	r6,r2,44960 <_fflush_r+0x1f4>
   44914:	8080030b 	ldhu	r2,12(r16)
   44918:	82000a17 	ldw	r8,40(r16)
   4491c:	003fb006 	br	447e0 <__alt_data_end+0xfffcec80>
   44920:	80c00f17 	ldw	r3,60(r16)
   44924:	00ffa716 	blt	zero,r3,447c4 <__alt_data_end+0xfffcec64>
   44928:	003fcc06 	br	4485c <__alt_data_end+0xfffcecfc>
   4492c:	98c00017 	ldw	r3,0(r19)
   44930:	183fb926 	beq	r3,zero,44818 <__alt_data_end+0xfffcecb8>
   44934:	01000744 	movi	r4,29
   44938:	19000226 	beq	r3,r4,44944 <_fflush_r+0x1d8>
   4493c:	01000584 	movi	r4,22
   44940:	1900101e 	bne	r3,r4,44984 <_fflush_r+0x218>
   44944:	8080030b 	ldhu	r2,12(r16)
   44948:	80c00417 	ldw	r3,16(r16)
   4494c:	80000115 	stw	zero,4(r16)
   44950:	10bdffcc 	andi	r2,r2,63487
   44954:	8080030d 	sth	r2,12(r16)
   44958:	80c00015 	stw	r3,0(r16)
   4495c:	003fb706 	br	4483c <__alt_data_end+0xfffcecdc>
   44960:	98800017 	ldw	r2,0(r19)
   44964:	103feb26 	beq	r2,zero,44914 <__alt_data_end+0xfffcedb4>
   44968:	00c00744 	movi	r3,29
   4496c:	10c00226 	beq	r2,r3,44978 <_fflush_r+0x20c>
   44970:	00c00584 	movi	r3,22
   44974:	10ffd61e 	bne	r2,r3,448d0 <__alt_data_end+0xfffced70>
   44978:	9c400015 	stw	r17,0(r19)
   4497c:	0005883a 	mov	r2,zero
   44980:	003fb706 	br	44860 <__alt_data_end+0xfffced00>
   44984:	80c0030b 	ldhu	r3,12(r16)
   44988:	18c01014 	ori	r3,r3,64
   4498c:	80c0030d 	sth	r3,12(r16)
   44990:	003fb306 	br	44860 <__alt_data_end+0xfffced00>

00044994 <fflush>:
   44994:	20000526 	beq	r4,zero,449ac <fflush+0x18>
   44998:	00800174 	movhi	r2,5
   4499c:	10893604 	addi	r2,r2,9432
   449a0:	200b883a 	mov	r5,r4
   449a4:	11000017 	ldw	r4,0(r2)
   449a8:	004476c1 	jmpi	4476c <_fflush_r>
   449ac:	00800174 	movhi	r2,5
   449b0:	10893504 	addi	r2,r2,9428
   449b4:	11000017 	ldw	r4,0(r2)
   449b8:	01400134 	movhi	r5,4
   449bc:	2951db04 	addi	r5,r5,18284
   449c0:	00456e81 	jmpi	456e8 <_fwalk_reent>

000449c4 <__fp_lock>:
   449c4:	0005883a 	mov	r2,zero
   449c8:	f800283a 	ret

000449cc <__fp_unlock>:
   449cc:	0005883a 	mov	r2,zero
   449d0:	f800283a 	ret

000449d4 <_cleanup_r>:
   449d4:	01400174 	movhi	r5,5
   449d8:	2965bd04 	addi	r5,r5,-26892
   449dc:	00456301 	jmpi	45630 <_fwalk>

000449e0 <__sinit.part.1>:
   449e0:	defff604 	addi	sp,sp,-40
   449e4:	00c00134 	movhi	r3,4
   449e8:	dfc00915 	stw	ra,36(sp)
   449ec:	df000815 	stw	fp,32(sp)
   449f0:	ddc00715 	stw	r23,28(sp)
   449f4:	dd800615 	stw	r22,24(sp)
   449f8:	dd400515 	stw	r21,20(sp)
   449fc:	dd000415 	stw	r20,16(sp)
   44a00:	dcc00315 	stw	r19,12(sp)
   44a04:	dc800215 	stw	r18,8(sp)
   44a08:	dc400115 	stw	r17,4(sp)
   44a0c:	dc000015 	stw	r16,0(sp)
   44a10:	18d27504 	addi	r3,r3,18900
   44a14:	24000117 	ldw	r16,4(r4)
   44a18:	20c00f15 	stw	r3,60(r4)
   44a1c:	07000044 	movi	fp,1
   44a20:	00c000c4 	movi	r3,3
   44a24:	2080bb04 	addi	r2,r4,748
   44a28:	20c0b915 	stw	r3,740(r4)
   44a2c:	27000e15 	stw	fp,56(r4)
   44a30:	2080ba15 	stw	r2,744(r4)
   44a34:	2000b815 	stw	zero,736(r4)
   44a38:	05c00204 	movi	r23,8
   44a3c:	00800104 	movi	r2,4
   44a40:	2025883a 	mov	r18,r4
   44a44:	b80d883a 	mov	r6,r23
   44a48:	81001704 	addi	r4,r16,92
   44a4c:	000b883a 	mov	r5,zero
   44a50:	80000015 	stw	zero,0(r16)
   44a54:	80000115 	stw	zero,4(r16)
   44a58:	80000215 	stw	zero,8(r16)
   44a5c:	8080030d 	sth	r2,12(r16)
   44a60:	80001915 	stw	zero,100(r16)
   44a64:	8000038d 	sth	zero,14(r16)
   44a68:	80000415 	stw	zero,16(r16)
   44a6c:	80000515 	stw	zero,20(r16)
   44a70:	80000615 	stw	zero,24(r16)
   44a74:	004655c0 	call	4655c <memset>
   44a78:	05800134 	movhi	r22,4
   44a7c:	94400217 	ldw	r17,8(r18)
   44a80:	05400134 	movhi	r21,4
   44a84:	05000134 	movhi	r20,4
   44a88:	04c00134 	movhi	r19,4
   44a8c:	b59f4c04 	addi	r22,r22,32048
   44a90:	ad5f6304 	addi	r21,r21,32140
   44a94:	a51f8204 	addi	r20,r20,32264
   44a98:	9cdf9904 	addi	r19,r19,32356
   44a9c:	85800815 	stw	r22,32(r16)
   44aa0:	85400915 	stw	r21,36(r16)
   44aa4:	85000a15 	stw	r20,40(r16)
   44aa8:	84c00b15 	stw	r19,44(r16)
   44aac:	84000715 	stw	r16,28(r16)
   44ab0:	00800284 	movi	r2,10
   44ab4:	89001704 	addi	r4,r17,92
   44ab8:	b80d883a 	mov	r6,r23
   44abc:	000b883a 	mov	r5,zero
   44ac0:	88000015 	stw	zero,0(r17)
   44ac4:	88000115 	stw	zero,4(r17)
   44ac8:	88000215 	stw	zero,8(r17)
   44acc:	8880030d 	sth	r2,12(r17)
   44ad0:	88001915 	stw	zero,100(r17)
   44ad4:	8f00038d 	sth	fp,14(r17)
   44ad8:	88000415 	stw	zero,16(r17)
   44adc:	88000515 	stw	zero,20(r17)
   44ae0:	88000615 	stw	zero,24(r17)
   44ae4:	004655c0 	call	4655c <memset>
   44ae8:	94000317 	ldw	r16,12(r18)
   44aec:	00800484 	movi	r2,18
   44af0:	8c400715 	stw	r17,28(r17)
   44af4:	8d800815 	stw	r22,32(r17)
   44af8:	8d400915 	stw	r21,36(r17)
   44afc:	8d000a15 	stw	r20,40(r17)
   44b00:	8cc00b15 	stw	r19,44(r17)
   44b04:	8080030d 	sth	r2,12(r16)
   44b08:	00800084 	movi	r2,2
   44b0c:	80000015 	stw	zero,0(r16)
   44b10:	80000115 	stw	zero,4(r16)
   44b14:	80000215 	stw	zero,8(r16)
   44b18:	80001915 	stw	zero,100(r16)
   44b1c:	8080038d 	sth	r2,14(r16)
   44b20:	80000415 	stw	zero,16(r16)
   44b24:	80000515 	stw	zero,20(r16)
   44b28:	80000615 	stw	zero,24(r16)
   44b2c:	81001704 	addi	r4,r16,92
   44b30:	000b883a 	mov	r5,zero
   44b34:	b80d883a 	mov	r6,r23
   44b38:	004655c0 	call	4655c <memset>
   44b3c:	84000715 	stw	r16,28(r16)
   44b40:	85800815 	stw	r22,32(r16)
   44b44:	85400915 	stw	r21,36(r16)
   44b48:	85000a15 	stw	r20,40(r16)
   44b4c:	84c00b15 	stw	r19,44(r16)
   44b50:	dfc00917 	ldw	ra,36(sp)
   44b54:	df000817 	ldw	fp,32(sp)
   44b58:	ddc00717 	ldw	r23,28(sp)
   44b5c:	dd800617 	ldw	r22,24(sp)
   44b60:	dd400517 	ldw	r21,20(sp)
   44b64:	dd000417 	ldw	r20,16(sp)
   44b68:	dcc00317 	ldw	r19,12(sp)
   44b6c:	dc800217 	ldw	r18,8(sp)
   44b70:	dc400117 	ldw	r17,4(sp)
   44b74:	dc000017 	ldw	r16,0(sp)
   44b78:	dec00a04 	addi	sp,sp,40
   44b7c:	f800283a 	ret

00044b80 <__sfmoreglue>:
   44b80:	defffc04 	addi	sp,sp,-16
   44b84:	dc800215 	stw	r18,8(sp)
   44b88:	2825883a 	mov	r18,r5
   44b8c:	dc000015 	stw	r16,0(sp)
   44b90:	01401a04 	movi	r5,104
   44b94:	2021883a 	mov	r16,r4
   44b98:	9009883a 	mov	r4,r18
   44b9c:	dfc00315 	stw	ra,12(sp)
   44ba0:	dc400115 	stw	r17,4(sp)
   44ba4:	004095c0 	call	4095c <__mulsi3>
   44ba8:	8009883a 	mov	r4,r16
   44bac:	11400304 	addi	r5,r2,12
   44bb0:	1023883a 	mov	r17,r2
   44bb4:	0045a380 	call	45a38 <_malloc_r>
   44bb8:	1021883a 	mov	r16,r2
   44bbc:	10000726 	beq	r2,zero,44bdc <__sfmoreglue+0x5c>
   44bc0:	11000304 	addi	r4,r2,12
   44bc4:	10000015 	stw	zero,0(r2)
   44bc8:	14800115 	stw	r18,4(r2)
   44bcc:	11000215 	stw	r4,8(r2)
   44bd0:	000b883a 	mov	r5,zero
   44bd4:	880d883a 	mov	r6,r17
   44bd8:	004655c0 	call	4655c <memset>
   44bdc:	8005883a 	mov	r2,r16
   44be0:	dfc00317 	ldw	ra,12(sp)
   44be4:	dc800217 	ldw	r18,8(sp)
   44be8:	dc400117 	ldw	r17,4(sp)
   44bec:	dc000017 	ldw	r16,0(sp)
   44bf0:	dec00404 	addi	sp,sp,16
   44bf4:	f800283a 	ret

00044bf8 <__sfp>:
   44bf8:	00800174 	movhi	r2,5
   44bfc:	defffb04 	addi	sp,sp,-20
   44c00:	10893504 	addi	r2,r2,9428
   44c04:	dc800215 	stw	r18,8(sp)
   44c08:	14800017 	ldw	r18,0(r2)
   44c0c:	dcc00315 	stw	r19,12(sp)
   44c10:	dfc00415 	stw	ra,16(sp)
   44c14:	90800e17 	ldw	r2,56(r18)
   44c18:	dc400115 	stw	r17,4(sp)
   44c1c:	dc000015 	stw	r16,0(sp)
   44c20:	2027883a 	mov	r19,r4
   44c24:	1000021e 	bne	r2,zero,44c30 <__sfp+0x38>
   44c28:	9009883a 	mov	r4,r18
   44c2c:	00449e00 	call	449e0 <__sinit.part.1>
   44c30:	9480b804 	addi	r18,r18,736
   44c34:	047fffc4 	movi	r17,-1
   44c38:	91400117 	ldw	r5,4(r18)
   44c3c:	94000217 	ldw	r16,8(r18)
   44c40:	297fffc4 	addi	r5,r5,-1
   44c44:	28000a16 	blt	r5,zero,44c70 <__sfp+0x78>
   44c48:	8080030f 	ldh	r2,12(r16)
   44c4c:	10000c26 	beq	r2,zero,44c80 <__sfp+0x88>
   44c50:	80c01d04 	addi	r3,r16,116
   44c54:	00000206 	br	44c60 <__sfp+0x68>
   44c58:	18bfe60f 	ldh	r2,-104(r3)
   44c5c:	10000826 	beq	r2,zero,44c80 <__sfp+0x88>
   44c60:	297fffc4 	addi	r5,r5,-1
   44c64:	1c3ffd04 	addi	r16,r3,-12
   44c68:	18c01a04 	addi	r3,r3,104
   44c6c:	2c7ffa1e 	bne	r5,r17,44c58 <__alt_data_end+0xfffcf0f8>
   44c70:	90800017 	ldw	r2,0(r18)
   44c74:	10001d26 	beq	r2,zero,44cec <__sfp+0xf4>
   44c78:	1025883a 	mov	r18,r2
   44c7c:	003fee06 	br	44c38 <__alt_data_end+0xfffcf0d8>
   44c80:	00bfffc4 	movi	r2,-1
   44c84:	8080038d 	sth	r2,14(r16)
   44c88:	00800044 	movi	r2,1
   44c8c:	8080030d 	sth	r2,12(r16)
   44c90:	80001915 	stw	zero,100(r16)
   44c94:	80000015 	stw	zero,0(r16)
   44c98:	80000215 	stw	zero,8(r16)
   44c9c:	80000115 	stw	zero,4(r16)
   44ca0:	80000415 	stw	zero,16(r16)
   44ca4:	80000515 	stw	zero,20(r16)
   44ca8:	80000615 	stw	zero,24(r16)
   44cac:	81001704 	addi	r4,r16,92
   44cb0:	000b883a 	mov	r5,zero
   44cb4:	01800204 	movi	r6,8
   44cb8:	004655c0 	call	4655c <memset>
   44cbc:	8005883a 	mov	r2,r16
   44cc0:	80000c15 	stw	zero,48(r16)
   44cc4:	80000d15 	stw	zero,52(r16)
   44cc8:	80001115 	stw	zero,68(r16)
   44ccc:	80001215 	stw	zero,72(r16)
   44cd0:	dfc00417 	ldw	ra,16(sp)
   44cd4:	dcc00317 	ldw	r19,12(sp)
   44cd8:	dc800217 	ldw	r18,8(sp)
   44cdc:	dc400117 	ldw	r17,4(sp)
   44ce0:	dc000017 	ldw	r16,0(sp)
   44ce4:	dec00504 	addi	sp,sp,20
   44ce8:	f800283a 	ret
   44cec:	9809883a 	mov	r4,r19
   44cf0:	01400104 	movi	r5,4
   44cf4:	0044b800 	call	44b80 <__sfmoreglue>
   44cf8:	90800015 	stw	r2,0(r18)
   44cfc:	103fde1e 	bne	r2,zero,44c78 <__alt_data_end+0xfffcf118>
   44d00:	00800304 	movi	r2,12
   44d04:	98800015 	stw	r2,0(r19)
   44d08:	0005883a 	mov	r2,zero
   44d0c:	003ff006 	br	44cd0 <__alt_data_end+0xfffcf170>

00044d10 <_cleanup>:
   44d10:	00800174 	movhi	r2,5
   44d14:	10893504 	addi	r2,r2,9428
   44d18:	11000017 	ldw	r4,0(r2)
   44d1c:	01400174 	movhi	r5,5
   44d20:	2965bd04 	addi	r5,r5,-26892
   44d24:	00456301 	jmpi	45630 <_fwalk>

00044d28 <__sinit>:
   44d28:	20800e17 	ldw	r2,56(r4)
   44d2c:	10000126 	beq	r2,zero,44d34 <__sinit+0xc>
   44d30:	f800283a 	ret
   44d34:	00449e01 	jmpi	449e0 <__sinit.part.1>

00044d38 <__sfp_lock_acquire>:
   44d38:	f800283a 	ret

00044d3c <__sfp_lock_release>:
   44d3c:	f800283a 	ret

00044d40 <__sinit_lock_acquire>:
   44d40:	f800283a 	ret

00044d44 <__sinit_lock_release>:
   44d44:	f800283a 	ret

00044d48 <__fp_lock_all>:
   44d48:	00800174 	movhi	r2,5
   44d4c:	10893604 	addi	r2,r2,9432
   44d50:	11000017 	ldw	r4,0(r2)
   44d54:	01400134 	movhi	r5,4
   44d58:	29527104 	addi	r5,r5,18884
   44d5c:	00456301 	jmpi	45630 <_fwalk>

00044d60 <__fp_unlock_all>:
   44d60:	00800174 	movhi	r2,5
   44d64:	10893604 	addi	r2,r2,9432
   44d68:	11000017 	ldw	r4,0(r2)
   44d6c:	01400134 	movhi	r5,4
   44d70:	29527304 	addi	r5,r5,18892
   44d74:	00456301 	jmpi	45630 <_fwalk>

00044d78 <_malloc_trim_r>:
   44d78:	defffb04 	addi	sp,sp,-20
   44d7c:	dcc00315 	stw	r19,12(sp)
   44d80:	04c00174 	movhi	r19,5
   44d84:	dc800215 	stw	r18,8(sp)
   44d88:	dc400115 	stw	r17,4(sp)
   44d8c:	dc000015 	stw	r16,0(sp)
   44d90:	dfc00415 	stw	ra,16(sp)
   44d94:	2821883a 	mov	r16,r5
   44d98:	9cc38004 	addi	r19,r19,3584
   44d9c:	2025883a 	mov	r18,r4
   44da0:	004d8fc0 	call	4d8fc <__malloc_lock>
   44da4:	98800217 	ldw	r2,8(r19)
   44da8:	14400117 	ldw	r17,4(r2)
   44dac:	00bfff04 	movi	r2,-4
   44db0:	88a2703a 	and	r17,r17,r2
   44db4:	8c21c83a 	sub	r16,r17,r16
   44db8:	8403fbc4 	addi	r16,r16,4079
   44dbc:	8020d33a 	srli	r16,r16,12
   44dc0:	0083ffc4 	movi	r2,4095
   44dc4:	843fffc4 	addi	r16,r16,-1
   44dc8:	8020933a 	slli	r16,r16,12
   44dcc:	1400060e 	bge	r2,r16,44de8 <_malloc_trim_r+0x70>
   44dd0:	9009883a 	mov	r4,r18
   44dd4:	000b883a 	mov	r5,zero
   44dd8:	0047cdc0 	call	47cdc <_sbrk_r>
   44ddc:	98c00217 	ldw	r3,8(r19)
   44de0:	1c47883a 	add	r3,r3,r17
   44de4:	10c00a26 	beq	r2,r3,44e10 <_malloc_trim_r+0x98>
   44de8:	9009883a 	mov	r4,r18
   44dec:	004d91c0 	call	4d91c <__malloc_unlock>
   44df0:	0005883a 	mov	r2,zero
   44df4:	dfc00417 	ldw	ra,16(sp)
   44df8:	dcc00317 	ldw	r19,12(sp)
   44dfc:	dc800217 	ldw	r18,8(sp)
   44e00:	dc400117 	ldw	r17,4(sp)
   44e04:	dc000017 	ldw	r16,0(sp)
   44e08:	dec00504 	addi	sp,sp,20
   44e0c:	f800283a 	ret
   44e10:	9009883a 	mov	r4,r18
   44e14:	040bc83a 	sub	r5,zero,r16
   44e18:	0047cdc0 	call	47cdc <_sbrk_r>
   44e1c:	00ffffc4 	movi	r3,-1
   44e20:	10c00d26 	beq	r2,r3,44e58 <_malloc_trim_r+0xe0>
   44e24:	00c00174 	movhi	r3,5
   44e28:	18d03f04 	addi	r3,r3,16636
   44e2c:	18800017 	ldw	r2,0(r3)
   44e30:	99000217 	ldw	r4,8(r19)
   44e34:	8c23c83a 	sub	r17,r17,r16
   44e38:	8c400054 	ori	r17,r17,1
   44e3c:	1421c83a 	sub	r16,r2,r16
   44e40:	24400115 	stw	r17,4(r4)
   44e44:	9009883a 	mov	r4,r18
   44e48:	1c000015 	stw	r16,0(r3)
   44e4c:	004d91c0 	call	4d91c <__malloc_unlock>
   44e50:	00800044 	movi	r2,1
   44e54:	003fe706 	br	44df4 <__alt_data_end+0xfffcf294>
   44e58:	9009883a 	mov	r4,r18
   44e5c:	000b883a 	mov	r5,zero
   44e60:	0047cdc0 	call	47cdc <_sbrk_r>
   44e64:	99000217 	ldw	r4,8(r19)
   44e68:	014003c4 	movi	r5,15
   44e6c:	1107c83a 	sub	r3,r2,r4
   44e70:	28ffdd0e 	bge	r5,r3,44de8 <__alt_data_end+0xfffcf288>
   44e74:	01400174 	movhi	r5,5
   44e78:	29493804 	addi	r5,r5,9440
   44e7c:	29400017 	ldw	r5,0(r5)
   44e80:	18c00054 	ori	r3,r3,1
   44e84:	20c00115 	stw	r3,4(r4)
   44e88:	00c00174 	movhi	r3,5
   44e8c:	1145c83a 	sub	r2,r2,r5
   44e90:	18d03f04 	addi	r3,r3,16636
   44e94:	18800015 	stw	r2,0(r3)
   44e98:	003fd306 	br	44de8 <__alt_data_end+0xfffcf288>

00044e9c <_free_r>:
   44e9c:	28004c26 	beq	r5,zero,44fd0 <_free_r+0x134>
   44ea0:	defffd04 	addi	sp,sp,-12
   44ea4:	dc400115 	stw	r17,4(sp)
   44ea8:	dc000015 	stw	r16,0(sp)
   44eac:	2023883a 	mov	r17,r4
   44eb0:	2821883a 	mov	r16,r5
   44eb4:	dfc00215 	stw	ra,8(sp)
   44eb8:	004d8fc0 	call	4d8fc <__malloc_lock>
   44ebc:	813fff17 	ldw	r4,-4(r16)
   44ec0:	00bfff84 	movi	r2,-2
   44ec4:	02400174 	movhi	r9,5
   44ec8:	81bffe04 	addi	r6,r16,-8
   44ecc:	2084703a 	and	r2,r4,r2
   44ed0:	4a438004 	addi	r9,r9,3584
   44ed4:	308b883a 	add	r5,r6,r2
   44ed8:	2a000117 	ldw	r8,4(r5)
   44edc:	49c00217 	ldw	r7,8(r9)
   44ee0:	00ffff04 	movi	r3,-4
   44ee4:	40c6703a 	and	r3,r8,r3
   44ee8:	39405326 	beq	r7,r5,45038 <_free_r+0x19c>
   44eec:	28c00115 	stw	r3,4(r5)
   44ef0:	2100004c 	andi	r4,r4,1
   44ef4:	2000091e 	bne	r4,zero,44f1c <_free_r+0x80>
   44ef8:	81fffe17 	ldw	r7,-8(r16)
   44efc:	4a000204 	addi	r8,r9,8
   44f00:	31cdc83a 	sub	r6,r6,r7
   44f04:	31000217 	ldw	r4,8(r6)
   44f08:	11c5883a 	add	r2,r2,r7
   44f0c:	22006126 	beq	r4,r8,45094 <_free_r+0x1f8>
   44f10:	31c00317 	ldw	r7,12(r6)
   44f14:	21c00315 	stw	r7,12(r4)
   44f18:	39000215 	stw	r4,8(r7)
   44f1c:	28c9883a 	add	r4,r5,r3
   44f20:	21c00117 	ldw	r7,4(r4)
   44f24:	39c0004c 	andi	r7,r7,1
   44f28:	38000d1e 	bne	r7,zero,44f60 <_free_r+0xc4>
   44f2c:	29000217 	ldw	r4,8(r5)
   44f30:	10c5883a 	add	r2,r2,r3
   44f34:	00c00174 	movhi	r3,5
   44f38:	18c38204 	addi	r3,r3,3592
   44f3c:	20c07526 	beq	r4,r3,45114 <_free_r+0x278>
   44f40:	29c00317 	ldw	r7,12(r5)
   44f44:	11400054 	ori	r5,r2,1
   44f48:	3087883a 	add	r3,r6,r2
   44f4c:	21c00315 	stw	r7,12(r4)
   44f50:	39000215 	stw	r4,8(r7)
   44f54:	31400115 	stw	r5,4(r6)
   44f58:	18800015 	stw	r2,0(r3)
   44f5c:	00000406 	br	44f70 <_free_r+0xd4>
   44f60:	10c00054 	ori	r3,r2,1
   44f64:	30c00115 	stw	r3,4(r6)
   44f68:	3087883a 	add	r3,r6,r2
   44f6c:	18800015 	stw	r2,0(r3)
   44f70:	00c07fc4 	movi	r3,511
   44f74:	18801736 	bltu	r3,r2,44fd4 <_free_r+0x138>
   44f78:	1004d0fa 	srli	r2,r2,3
   44f7c:	01400044 	movi	r5,1
   44f80:	49000117 	ldw	r4,4(r9)
   44f84:	1087883a 	add	r3,r2,r2
   44f88:	18c7883a 	add	r3,r3,r3
   44f8c:	1005d0ba 	srai	r2,r2,2
   44f90:	18c7883a 	add	r3,r3,r3
   44f94:	1a47883a 	add	r3,r3,r9
   44f98:	19c00217 	ldw	r7,8(r3)
   44f9c:	2884983a 	sll	r2,r5,r2
   44fa0:	30c00315 	stw	r3,12(r6)
   44fa4:	31c00215 	stw	r7,8(r6)
   44fa8:	1104b03a 	or	r2,r2,r4
   44fac:	19800215 	stw	r6,8(r3)
   44fb0:	48800115 	stw	r2,4(r9)
   44fb4:	39800315 	stw	r6,12(r7)
   44fb8:	8809883a 	mov	r4,r17
   44fbc:	dfc00217 	ldw	ra,8(sp)
   44fc0:	dc400117 	ldw	r17,4(sp)
   44fc4:	dc000017 	ldw	r16,0(sp)
   44fc8:	dec00304 	addi	sp,sp,12
   44fcc:	004d91c1 	jmpi	4d91c <__malloc_unlock>
   44fd0:	f800283a 	ret
   44fd4:	1006d27a 	srli	r3,r2,9
   44fd8:	01000104 	movi	r4,4
   44fdc:	20c04036 	bltu	r4,r3,450e0 <_free_r+0x244>
   44fe0:	1006d1ba 	srli	r3,r2,6
   44fe4:	19400e04 	addi	r5,r3,56
   44fe8:	2947883a 	add	r3,r5,r5
   44fec:	18c7883a 	add	r3,r3,r3
   44ff0:	18c7883a 	add	r3,r3,r3
   44ff4:	1a49883a 	add	r4,r3,r9
   44ff8:	20c00217 	ldw	r3,8(r4)
   44ffc:	01c00174 	movhi	r7,5
   45000:	39c38004 	addi	r7,r7,3584
   45004:	19003b26 	beq	r3,r4,450f4 <_free_r+0x258>
   45008:	01ffff04 	movi	r7,-4
   4500c:	19400117 	ldw	r5,4(r3)
   45010:	29ca703a 	and	r5,r5,r7
   45014:	1140022e 	bgeu	r2,r5,45020 <_free_r+0x184>
   45018:	18c00217 	ldw	r3,8(r3)
   4501c:	20fffb1e 	bne	r4,r3,4500c <__alt_data_end+0xfffcf4ac>
   45020:	18800317 	ldw	r2,12(r3)
   45024:	30800315 	stw	r2,12(r6)
   45028:	30c00215 	stw	r3,8(r6)
   4502c:	11800215 	stw	r6,8(r2)
   45030:	19800315 	stw	r6,12(r3)
   45034:	003fe006 	br	44fb8 <__alt_data_end+0xfffcf458>
   45038:	2100004c 	andi	r4,r4,1
   4503c:	1885883a 	add	r2,r3,r2
   45040:	2000071e 	bne	r4,zero,45060 <_free_r+0x1c4>
   45044:	817ffe17 	ldw	r5,-8(r16)
   45048:	314dc83a 	sub	r6,r6,r5
   4504c:	30c00317 	ldw	r3,12(r6)
   45050:	31000217 	ldw	r4,8(r6)
   45054:	1145883a 	add	r2,r2,r5
   45058:	20c00315 	stw	r3,12(r4)
   4505c:	19000215 	stw	r4,8(r3)
   45060:	10c00054 	ori	r3,r2,1
   45064:	30c00115 	stw	r3,4(r6)
   45068:	00c00174 	movhi	r3,5
   4506c:	18c93904 	addi	r3,r3,9444
   45070:	18c00017 	ldw	r3,0(r3)
   45074:	49800215 	stw	r6,8(r9)
   45078:	10ffcf36 	bltu	r2,r3,44fb8 <__alt_data_end+0xfffcf458>
   4507c:	00800174 	movhi	r2,5
   45080:	10903604 	addi	r2,r2,16600
   45084:	11400017 	ldw	r5,0(r2)
   45088:	8809883a 	mov	r4,r17
   4508c:	0044d780 	call	44d78 <_malloc_trim_r>
   45090:	003fc906 	br	44fb8 <__alt_data_end+0xfffcf458>
   45094:	28c9883a 	add	r4,r5,r3
   45098:	21000117 	ldw	r4,4(r4)
   4509c:	2100004c 	andi	r4,r4,1
   450a0:	20000a1e 	bne	r4,zero,450cc <_free_r+0x230>
   450a4:	29000317 	ldw	r4,12(r5)
   450a8:	29400217 	ldw	r5,8(r5)
   450ac:	10c5883a 	add	r2,r2,r3
   450b0:	10c00054 	ori	r3,r2,1
   450b4:	29000315 	stw	r4,12(r5)
   450b8:	21400215 	stw	r5,8(r4)
   450bc:	30c00115 	stw	r3,4(r6)
   450c0:	308d883a 	add	r6,r6,r2
   450c4:	30800015 	stw	r2,0(r6)
   450c8:	003fbb06 	br	44fb8 <__alt_data_end+0xfffcf458>
   450cc:	10c00054 	ori	r3,r2,1
   450d0:	30c00115 	stw	r3,4(r6)
   450d4:	308d883a 	add	r6,r6,r2
   450d8:	30800015 	stw	r2,0(r6)
   450dc:	003fb606 	br	44fb8 <__alt_data_end+0xfffcf458>
   450e0:	01000504 	movi	r4,20
   450e4:	20c01436 	bltu	r4,r3,45138 <_free_r+0x29c>
   450e8:	194016c4 	addi	r5,r3,91
   450ec:	2947883a 	add	r3,r5,r5
   450f0:	003fbe06 	br	44fec <__alt_data_end+0xfffcf48c>
   450f4:	280bd0ba 	srai	r5,r5,2
   450f8:	00800044 	movi	r2,1
   450fc:	39000117 	ldw	r4,4(r7)
   45100:	114a983a 	sll	r5,r2,r5
   45104:	1805883a 	mov	r2,r3
   45108:	2908b03a 	or	r4,r5,r4
   4510c:	39000115 	stw	r4,4(r7)
   45110:	003fc406 	br	45024 <__alt_data_end+0xfffcf4c4>
   45114:	49800515 	stw	r6,20(r9)
   45118:	49800415 	stw	r6,16(r9)
   4511c:	10c00054 	ori	r3,r2,1
   45120:	31000315 	stw	r4,12(r6)
   45124:	31000215 	stw	r4,8(r6)
   45128:	30c00115 	stw	r3,4(r6)
   4512c:	308d883a 	add	r6,r6,r2
   45130:	30800015 	stw	r2,0(r6)
   45134:	003fa006 	br	44fb8 <__alt_data_end+0xfffcf458>
   45138:	01001504 	movi	r4,84
   4513c:	20c00436 	bltu	r4,r3,45150 <_free_r+0x2b4>
   45140:	1006d33a 	srli	r3,r2,12
   45144:	19401b84 	addi	r5,r3,110
   45148:	2947883a 	add	r3,r5,r5
   4514c:	003fa706 	br	44fec <__alt_data_end+0xfffcf48c>
   45150:	01005504 	movi	r4,340
   45154:	20c00436 	bltu	r4,r3,45168 <_free_r+0x2cc>
   45158:	1006d3fa 	srli	r3,r2,15
   4515c:	19401dc4 	addi	r5,r3,119
   45160:	2947883a 	add	r3,r5,r5
   45164:	003fa106 	br	44fec <__alt_data_end+0xfffcf48c>
   45168:	01015504 	movi	r4,1364
   4516c:	20c00436 	bltu	r4,r3,45180 <_free_r+0x2e4>
   45170:	1006d4ba 	srli	r3,r2,18
   45174:	19401f04 	addi	r5,r3,124
   45178:	2947883a 	add	r3,r5,r5
   4517c:	003f9b06 	br	44fec <__alt_data_end+0xfffcf48c>
   45180:	00c03f04 	movi	r3,252
   45184:	01401f84 	movi	r5,126
   45188:	003f9806 	br	44fec <__alt_data_end+0xfffcf48c>

0004518c <__sfvwrite_r>:
   4518c:	30800217 	ldw	r2,8(r6)
   45190:	10004526 	beq	r2,zero,452a8 <__sfvwrite_r+0x11c>
   45194:	28c0030b 	ldhu	r3,12(r5)
   45198:	defff404 	addi	sp,sp,-48
   4519c:	dd400715 	stw	r21,28(sp)
   451a0:	dcc00515 	stw	r19,20(sp)
   451a4:	dc000215 	stw	r16,8(sp)
   451a8:	dfc00b15 	stw	ra,44(sp)
   451ac:	df000a15 	stw	fp,40(sp)
   451b0:	ddc00915 	stw	r23,36(sp)
   451b4:	dd800815 	stw	r22,32(sp)
   451b8:	dd000615 	stw	r20,24(sp)
   451bc:	dc800415 	stw	r18,16(sp)
   451c0:	dc400315 	stw	r17,12(sp)
   451c4:	1880020c 	andi	r2,r3,8
   451c8:	2821883a 	mov	r16,r5
   451cc:	202b883a 	mov	r21,r4
   451d0:	3027883a 	mov	r19,r6
   451d4:	10002526 	beq	r2,zero,4526c <__sfvwrite_r+0xe0>
   451d8:	28800417 	ldw	r2,16(r5)
   451dc:	10002326 	beq	r2,zero,4526c <__sfvwrite_r+0xe0>
   451e0:	1880008c 	andi	r2,r3,2
   451e4:	9c400017 	ldw	r17,0(r19)
   451e8:	10003126 	beq	r2,zero,452b0 <__sfvwrite_r+0x124>
   451ec:	0029883a 	mov	r20,zero
   451f0:	0025883a 	mov	r18,zero
   451f4:	05810004 	movi	r22,1024
   451f8:	a00d883a 	mov	r6,r20
   451fc:	a809883a 	mov	r4,r21
   45200:	90002526 	beq	r18,zero,45298 <__sfvwrite_r+0x10c>
   45204:	900f883a 	mov	r7,r18
   45208:	81400717 	ldw	r5,28(r16)
   4520c:	b480012e 	bgeu	r22,r18,45214 <__sfvwrite_r+0x88>
   45210:	01c10004 	movi	r7,1024
   45214:	80800917 	ldw	r2,36(r16)
   45218:	103ee83a 	callr	r2
   4521c:	0080510e 	bge	zero,r2,45364 <__sfvwrite_r+0x1d8>
   45220:	98c00217 	ldw	r3,8(r19)
   45224:	a0a9883a 	add	r20,r20,r2
   45228:	90a5c83a 	sub	r18,r18,r2
   4522c:	1885c83a 	sub	r2,r3,r2
   45230:	98800215 	stw	r2,8(r19)
   45234:	103ff01e 	bne	r2,zero,451f8 <__alt_data_end+0xfffcf698>
   45238:	0005883a 	mov	r2,zero
   4523c:	dfc00b17 	ldw	ra,44(sp)
   45240:	df000a17 	ldw	fp,40(sp)
   45244:	ddc00917 	ldw	r23,36(sp)
   45248:	dd800817 	ldw	r22,32(sp)
   4524c:	dd400717 	ldw	r21,28(sp)
   45250:	dd000617 	ldw	r20,24(sp)
   45254:	dcc00517 	ldw	r19,20(sp)
   45258:	dc800417 	ldw	r18,16(sp)
   4525c:	dc400317 	ldw	r17,12(sp)
   45260:	dc000217 	ldw	r16,8(sp)
   45264:	dec00c04 	addi	sp,sp,48
   45268:	f800283a 	ret
   4526c:	a809883a 	mov	r4,r21
   45270:	800b883a 	mov	r5,r16
   45274:	0042cec0 	call	42cec <__swsetup_r>
   45278:	80c0030b 	ldhu	r3,12(r16)
   4527c:	103fd826 	beq	r2,zero,451e0 <__alt_data_end+0xfffcf680>
   45280:	18c01014 	ori	r3,r3,64
   45284:	80c0030d 	sth	r3,12(r16)
   45288:	00c00244 	movi	r3,9
   4528c:	00bfffc4 	movi	r2,-1
   45290:	a8c00015 	stw	r3,0(r21)
   45294:	003fe906 	br	4523c <__alt_data_end+0xfffcf6dc>
   45298:	8d000017 	ldw	r20,0(r17)
   4529c:	8c800117 	ldw	r18,4(r17)
   452a0:	8c400204 	addi	r17,r17,8
   452a4:	003fd406 	br	451f8 <__alt_data_end+0xfffcf698>
   452a8:	0005883a 	mov	r2,zero
   452ac:	f800283a 	ret
   452b0:	1880004c 	andi	r2,r3,1
   452b4:	1000301e 	bne	r2,zero,45378 <__sfvwrite_r+0x1ec>
   452b8:	002f883a 	mov	r23,zero
   452bc:	0025883a 	mov	r18,zero
   452c0:	90001c26 	beq	r18,zero,45334 <__sfvwrite_r+0x1a8>
   452c4:	1880800c 	andi	r2,r3,512
   452c8:	85000217 	ldw	r20,8(r16)
   452cc:	10006c26 	beq	r2,zero,45480 <__sfvwrite_r+0x2f4>
   452d0:	a02d883a 	mov	r22,r20
   452d4:	95008536 	bltu	r18,r20,454ec <__sfvwrite_r+0x360>
   452d8:	1881200c 	andi	r2,r3,1152
   452dc:	10009d1e 	bne	r2,zero,45554 <__sfvwrite_r+0x3c8>
   452e0:	81000017 	ldw	r4,0(r16)
   452e4:	a039883a 	mov	fp,r20
   452e8:	9029883a 	mov	r20,r18
   452ec:	b80b883a 	mov	r5,r23
   452f0:	b00d883a 	mov	r6,r22
   452f4:	00464000 	call	46400 <memmove>
   452f8:	80c00217 	ldw	r3,8(r16)
   452fc:	81000017 	ldw	r4,0(r16)
   45300:	9005883a 	mov	r2,r18
   45304:	1f39c83a 	sub	fp,r3,fp
   45308:	258f883a 	add	r7,r4,r22
   4530c:	87000215 	stw	fp,8(r16)
   45310:	81c00015 	stw	r7,0(r16)
   45314:	98c00217 	ldw	r3,8(r19)
   45318:	b8af883a 	add	r23,r23,r2
   4531c:	90a5c83a 	sub	r18,r18,r2
   45320:	1d05c83a 	sub	r2,r3,r20
   45324:	98800215 	stw	r2,8(r19)
   45328:	103fc326 	beq	r2,zero,45238 <__alt_data_end+0xfffcf6d8>
   4532c:	80c0030b 	ldhu	r3,12(r16)
   45330:	903fe41e 	bne	r18,zero,452c4 <__alt_data_end+0xfffcf764>
   45334:	8dc00017 	ldw	r23,0(r17)
   45338:	8c800117 	ldw	r18,4(r17)
   4533c:	8c400204 	addi	r17,r17,8
   45340:	003fdf06 	br	452c0 <__alt_data_end+0xfffcf760>
   45344:	00476c80 	call	476c8 <_realloc_r>
   45348:	102d883a 	mov	r22,r2
   4534c:	1000a01e 	bne	r2,zero,455d0 <__sfvwrite_r+0x444>
   45350:	81400417 	ldw	r5,16(r16)
   45354:	a809883a 	mov	r4,r21
   45358:	0044e9c0 	call	44e9c <_free_r>
   4535c:	00800304 	movi	r2,12
   45360:	a8800015 	stw	r2,0(r21)
   45364:	80c0030b 	ldhu	r3,12(r16)
   45368:	00bfffc4 	movi	r2,-1
   4536c:	18c01014 	ori	r3,r3,64
   45370:	80c0030d 	sth	r3,12(r16)
   45374:	003fb106 	br	4523c <__alt_data_end+0xfffcf6dc>
   45378:	0029883a 	mov	r20,zero
   4537c:	0011883a 	mov	r8,zero
   45380:	0039883a 	mov	fp,zero
   45384:	0025883a 	mov	r18,zero
   45388:	90001f26 	beq	r18,zero,45408 <__sfvwrite_r+0x27c>
   4538c:	40006826 	beq	r8,zero,45530 <__sfvwrite_r+0x3a4>
   45390:	a02f883a 	mov	r23,r20
   45394:	9500012e 	bgeu	r18,r20,4539c <__sfvwrite_r+0x210>
   45398:	902f883a 	mov	r23,r18
   4539c:	81000017 	ldw	r4,0(r16)
   453a0:	80800417 	ldw	r2,16(r16)
   453a4:	b82d883a 	mov	r22,r23
   453a8:	81800217 	ldw	r6,8(r16)
   453ac:	81c00517 	ldw	r7,20(r16)
   453b0:	1100022e 	bgeu	r2,r4,453bc <__sfvwrite_r+0x230>
   453b4:	31c7883a 	add	r3,r6,r7
   453b8:	1dc01816 	blt	r3,r23,4541c <__sfvwrite_r+0x290>
   453bc:	b9c03f16 	blt	r23,r7,454bc <__sfvwrite_r+0x330>
   453c0:	80800917 	ldw	r2,36(r16)
   453c4:	81400717 	ldw	r5,28(r16)
   453c8:	a809883a 	mov	r4,r21
   453cc:	da000115 	stw	r8,4(sp)
   453d0:	e00d883a 	mov	r6,fp
   453d4:	103ee83a 	callr	r2
   453d8:	102d883a 	mov	r22,r2
   453dc:	da000117 	ldw	r8,4(sp)
   453e0:	00bfe00e 	bge	zero,r2,45364 <__alt_data_end+0xfffcf804>
   453e4:	a5a9c83a 	sub	r20,r20,r22
   453e8:	a0001f26 	beq	r20,zero,45468 <__sfvwrite_r+0x2dc>
   453ec:	98800217 	ldw	r2,8(r19)
   453f0:	e5b9883a 	add	fp,fp,r22
   453f4:	95a5c83a 	sub	r18,r18,r22
   453f8:	15adc83a 	sub	r22,r2,r22
   453fc:	9d800215 	stw	r22,8(r19)
   45400:	b03f8d26 	beq	r22,zero,45238 <__alt_data_end+0xfffcf6d8>
   45404:	903fe11e 	bne	r18,zero,4538c <__alt_data_end+0xfffcf82c>
   45408:	8f000017 	ldw	fp,0(r17)
   4540c:	8c800117 	ldw	r18,4(r17)
   45410:	0011883a 	mov	r8,zero
   45414:	8c400204 	addi	r17,r17,8
   45418:	003fdb06 	br	45388 <__alt_data_end+0xfffcf828>
   4541c:	180d883a 	mov	r6,r3
   45420:	e00b883a 	mov	r5,fp
   45424:	da000115 	stw	r8,4(sp)
   45428:	d8c00015 	stw	r3,0(sp)
   4542c:	00464000 	call	46400 <memmove>
   45430:	d8c00017 	ldw	r3,0(sp)
   45434:	80800017 	ldw	r2,0(r16)
   45438:	a809883a 	mov	r4,r21
   4543c:	800b883a 	mov	r5,r16
   45440:	10c5883a 	add	r2,r2,r3
   45444:	80800015 	stw	r2,0(r16)
   45448:	d8c00015 	stw	r3,0(sp)
   4544c:	004476c0 	call	4476c <_fflush_r>
   45450:	d8c00017 	ldw	r3,0(sp)
   45454:	da000117 	ldw	r8,4(sp)
   45458:	103fc21e 	bne	r2,zero,45364 <__alt_data_end+0xfffcf804>
   4545c:	182d883a 	mov	r22,r3
   45460:	a5a9c83a 	sub	r20,r20,r22
   45464:	a03fe11e 	bne	r20,zero,453ec <__alt_data_end+0xfffcf88c>
   45468:	a809883a 	mov	r4,r21
   4546c:	800b883a 	mov	r5,r16
   45470:	004476c0 	call	4476c <_fflush_r>
   45474:	103fbb1e 	bne	r2,zero,45364 <__alt_data_end+0xfffcf804>
   45478:	0011883a 	mov	r8,zero
   4547c:	003fdb06 	br	453ec <__alt_data_end+0xfffcf88c>
   45480:	81000017 	ldw	r4,0(r16)
   45484:	80800417 	ldw	r2,16(r16)
   45488:	1100012e 	bgeu	r2,r4,45490 <__sfvwrite_r+0x304>
   4548c:	a4805a36 	bltu	r20,r18,455f8 <__sfvwrite_r+0x46c>
   45490:	81c00517 	ldw	r7,20(r16)
   45494:	91c01a36 	bltu	r18,r7,45500 <__sfvwrite_r+0x374>
   45498:	80800917 	ldw	r2,36(r16)
   4549c:	81400717 	ldw	r5,28(r16)
   454a0:	a809883a 	mov	r4,r21
   454a4:	b80d883a 	mov	r6,r23
   454a8:	103ee83a 	callr	r2
   454ac:	1029883a 	mov	r20,r2
   454b0:	00bfac0e 	bge	zero,r2,45364 <__alt_data_end+0xfffcf804>
   454b4:	a005883a 	mov	r2,r20
   454b8:	003f9606 	br	45314 <__alt_data_end+0xfffcf7b4>
   454bc:	b80d883a 	mov	r6,r23
   454c0:	e00b883a 	mov	r5,fp
   454c4:	da000115 	stw	r8,4(sp)
   454c8:	00464000 	call	46400 <memmove>
   454cc:	80800217 	ldw	r2,8(r16)
   454d0:	80c00017 	ldw	r3,0(r16)
   454d4:	da000117 	ldw	r8,4(sp)
   454d8:	15c5c83a 	sub	r2,r2,r23
   454dc:	1def883a 	add	r23,r3,r23
   454e0:	80800215 	stw	r2,8(r16)
   454e4:	85c00015 	stw	r23,0(r16)
   454e8:	003fbe06 	br	453e4 <__alt_data_end+0xfffcf884>
   454ec:	81000017 	ldw	r4,0(r16)
   454f0:	9039883a 	mov	fp,r18
   454f4:	9029883a 	mov	r20,r18
   454f8:	902d883a 	mov	r22,r18
   454fc:	003f7b06 	br	452ec <__alt_data_end+0xfffcf78c>
   45500:	b80b883a 	mov	r5,r23
   45504:	900d883a 	mov	r6,r18
   45508:	00464000 	call	46400 <memmove>
   4550c:	80c00217 	ldw	r3,8(r16)
   45510:	80800017 	ldw	r2,0(r16)
   45514:	9029883a 	mov	r20,r18
   45518:	1c87c83a 	sub	r3,r3,r18
   4551c:	1485883a 	add	r2,r2,r18
   45520:	80800015 	stw	r2,0(r16)
   45524:	80c00215 	stw	r3,8(r16)
   45528:	9005883a 	mov	r2,r18
   4552c:	003f7906 	br	45314 <__alt_data_end+0xfffcf7b4>
   45530:	e009883a 	mov	r4,fp
   45534:	01400284 	movi	r5,10
   45538:	900d883a 	mov	r6,r18
   4553c:	00461e00 	call	461e0 <memchr>
   45540:	10003826 	beq	r2,zero,45624 <__sfvwrite_r+0x498>
   45544:	10800044 	addi	r2,r2,1
   45548:	1729c83a 	sub	r20,r2,fp
   4554c:	02000044 	movi	r8,1
   45550:	003f8f06 	br	45390 <__alt_data_end+0xfffcf830>
   45554:	80800517 	ldw	r2,20(r16)
   45558:	81400417 	ldw	r5,16(r16)
   4555c:	87000017 	ldw	fp,0(r16)
   45560:	10a9883a 	add	r20,r2,r2
   45564:	a085883a 	add	r2,r20,r2
   45568:	1028d7fa 	srli	r20,r2,31
   4556c:	e179c83a 	sub	fp,fp,r5
   45570:	e1000044 	addi	r4,fp,1
   45574:	a085883a 	add	r2,r20,r2
   45578:	1029d07a 	srai	r20,r2,1
   4557c:	2485883a 	add	r2,r4,r18
   45580:	a00d883a 	mov	r6,r20
   45584:	a080022e 	bgeu	r20,r2,45590 <__sfvwrite_r+0x404>
   45588:	1029883a 	mov	r20,r2
   4558c:	100d883a 	mov	r6,r2
   45590:	18c1000c 	andi	r3,r3,1024
   45594:	a809883a 	mov	r4,r21
   45598:	183f6a26 	beq	r3,zero,45344 <__alt_data_end+0xfffcf7e4>
   4559c:	300b883a 	mov	r5,r6
   455a0:	0045a380 	call	45a38 <_malloc_r>
   455a4:	102d883a 	mov	r22,r2
   455a8:	103f6c26 	beq	r2,zero,4535c <__alt_data_end+0xfffcf7fc>
   455ac:	81400417 	ldw	r5,16(r16)
   455b0:	1009883a 	mov	r4,r2
   455b4:	e00d883a 	mov	r6,fp
   455b8:	00462c80 	call	462c8 <memcpy>
   455bc:	8080030b 	ldhu	r2,12(r16)
   455c0:	00fedfc4 	movi	r3,-1153
   455c4:	10c4703a 	and	r2,r2,r3
   455c8:	10802014 	ori	r2,r2,128
   455cc:	8080030d 	sth	r2,12(r16)
   455d0:	b709883a 	add	r4,r22,fp
   455d4:	a707c83a 	sub	r3,r20,fp
   455d8:	85800415 	stw	r22,16(r16)
   455dc:	85000515 	stw	r20,20(r16)
   455e0:	81000015 	stw	r4,0(r16)
   455e4:	9039883a 	mov	fp,r18
   455e8:	80c00215 	stw	r3,8(r16)
   455ec:	9029883a 	mov	r20,r18
   455f0:	902d883a 	mov	r22,r18
   455f4:	003f3d06 	br	452ec <__alt_data_end+0xfffcf78c>
   455f8:	b80b883a 	mov	r5,r23
   455fc:	a00d883a 	mov	r6,r20
   45600:	00464000 	call	46400 <memmove>
   45604:	80800017 	ldw	r2,0(r16)
   45608:	a809883a 	mov	r4,r21
   4560c:	800b883a 	mov	r5,r16
   45610:	1505883a 	add	r2,r2,r20
   45614:	80800015 	stw	r2,0(r16)
   45618:	004476c0 	call	4476c <_fflush_r>
   4561c:	103fa526 	beq	r2,zero,454b4 <__alt_data_end+0xfffcf954>
   45620:	003f5006 	br	45364 <__alt_data_end+0xfffcf804>
   45624:	95000044 	addi	r20,r18,1
   45628:	02000044 	movi	r8,1
   4562c:	003f5806 	br	45390 <__alt_data_end+0xfffcf830>

00045630 <_fwalk>:
   45630:	defff804 	addi	sp,sp,-32
   45634:	dd400515 	stw	r21,20(sp)
   45638:	2540b804 	addi	r21,r4,736
   4563c:	dd800615 	stw	r22,24(sp)
   45640:	dd000415 	stw	r20,16(sp)
   45644:	dfc00715 	stw	ra,28(sp)
   45648:	dcc00315 	stw	r19,12(sp)
   4564c:	dc800215 	stw	r18,8(sp)
   45650:	dc400115 	stw	r17,4(sp)
   45654:	dc000015 	stw	r16,0(sp)
   45658:	2829883a 	mov	r20,r5
   4565c:	002d883a 	mov	r22,zero
   45660:	0044d380 	call	44d38 <__sfp_lock_acquire>
   45664:	a8001426 	beq	r21,zero,456b8 <_fwalk+0x88>
   45668:	04ffffc4 	movi	r19,-1
   4566c:	ac400117 	ldw	r17,4(r21)
   45670:	ac800217 	ldw	r18,8(r21)
   45674:	8c7fffc4 	addi	r17,r17,-1
   45678:	88000d16 	blt	r17,zero,456b0 <_fwalk+0x80>
   4567c:	94000304 	addi	r16,r18,12
   45680:	94800384 	addi	r18,r18,14
   45684:	80c0000f 	ldh	r3,0(r16)
   45688:	8c7fffc4 	addi	r17,r17,-1
   4568c:	813ffd04 	addi	r4,r16,-12
   45690:	18000426 	beq	r3,zero,456a4 <_fwalk+0x74>
   45694:	90c0000f 	ldh	r3,0(r18)
   45698:	1cc00226 	beq	r3,r19,456a4 <_fwalk+0x74>
   4569c:	a03ee83a 	callr	r20
   456a0:	b0acb03a 	or	r22,r22,r2
   456a4:	84001a04 	addi	r16,r16,104
   456a8:	94801a04 	addi	r18,r18,104
   456ac:	8cfff51e 	bne	r17,r19,45684 <__alt_data_end+0xfffcfb24>
   456b0:	ad400017 	ldw	r21,0(r21)
   456b4:	a83fed1e 	bne	r21,zero,4566c <__alt_data_end+0xfffcfb0c>
   456b8:	0044d3c0 	call	44d3c <__sfp_lock_release>
   456bc:	b005883a 	mov	r2,r22
   456c0:	dfc00717 	ldw	ra,28(sp)
   456c4:	dd800617 	ldw	r22,24(sp)
   456c8:	dd400517 	ldw	r21,20(sp)
   456cc:	dd000417 	ldw	r20,16(sp)
   456d0:	dcc00317 	ldw	r19,12(sp)
   456d4:	dc800217 	ldw	r18,8(sp)
   456d8:	dc400117 	ldw	r17,4(sp)
   456dc:	dc000017 	ldw	r16,0(sp)
   456e0:	dec00804 	addi	sp,sp,32
   456e4:	f800283a 	ret

000456e8 <_fwalk_reent>:
   456e8:	defff804 	addi	sp,sp,-32
   456ec:	dd400515 	stw	r21,20(sp)
   456f0:	2540b804 	addi	r21,r4,736
   456f4:	dd800615 	stw	r22,24(sp)
   456f8:	dd000415 	stw	r20,16(sp)
   456fc:	dcc00315 	stw	r19,12(sp)
   45700:	dfc00715 	stw	ra,28(sp)
   45704:	dc800215 	stw	r18,8(sp)
   45708:	dc400115 	stw	r17,4(sp)
   4570c:	dc000015 	stw	r16,0(sp)
   45710:	2027883a 	mov	r19,r4
   45714:	2829883a 	mov	r20,r5
   45718:	002d883a 	mov	r22,zero
   4571c:	0044d380 	call	44d38 <__sfp_lock_acquire>
   45720:	a8001326 	beq	r21,zero,45770 <_fwalk_reent+0x88>
   45724:	04bfffc4 	movi	r18,-1
   45728:	ac400117 	ldw	r17,4(r21)
   4572c:	ac000217 	ldw	r16,8(r21)
   45730:	8c7fffc4 	addi	r17,r17,-1
   45734:	88000c16 	blt	r17,zero,45768 <_fwalk_reent+0x80>
   45738:	84000304 	addi	r16,r16,12
   4573c:	80c0000f 	ldh	r3,0(r16)
   45740:	8c7fffc4 	addi	r17,r17,-1
   45744:	817ffd04 	addi	r5,r16,-12
   45748:	18000526 	beq	r3,zero,45760 <_fwalk_reent+0x78>
   4574c:	80c0008f 	ldh	r3,2(r16)
   45750:	9809883a 	mov	r4,r19
   45754:	1c800226 	beq	r3,r18,45760 <_fwalk_reent+0x78>
   45758:	a03ee83a 	callr	r20
   4575c:	b0acb03a 	or	r22,r22,r2
   45760:	84001a04 	addi	r16,r16,104
   45764:	8cbff51e 	bne	r17,r18,4573c <__alt_data_end+0xfffcfbdc>
   45768:	ad400017 	ldw	r21,0(r21)
   4576c:	a83fee1e 	bne	r21,zero,45728 <__alt_data_end+0xfffcfbc8>
   45770:	0044d3c0 	call	44d3c <__sfp_lock_release>
   45774:	b005883a 	mov	r2,r22
   45778:	dfc00717 	ldw	ra,28(sp)
   4577c:	dd800617 	ldw	r22,24(sp)
   45780:	dd400517 	ldw	r21,20(sp)
   45784:	dd000417 	ldw	r20,16(sp)
   45788:	dcc00317 	ldw	r19,12(sp)
   4578c:	dc800217 	ldw	r18,8(sp)
   45790:	dc400117 	ldw	r17,4(sp)
   45794:	dc000017 	ldw	r16,0(sp)
   45798:	dec00804 	addi	sp,sp,32
   4579c:	f800283a 	ret

000457a0 <_setlocale_r>:
   457a0:	30001b26 	beq	r6,zero,45810 <_setlocale_r+0x70>
   457a4:	01400174 	movhi	r5,5
   457a8:	defffe04 	addi	sp,sp,-8
   457ac:	2941b704 	addi	r5,r5,1756
   457b0:	3009883a 	mov	r4,r6
   457b4:	dc000015 	stw	r16,0(sp)
   457b8:	dfc00115 	stw	ra,4(sp)
   457bc:	3021883a 	mov	r16,r6
   457c0:	0047e6c0 	call	47e6c <strcmp>
   457c4:	1000061e 	bne	r2,zero,457e0 <_setlocale_r+0x40>
   457c8:	00800174 	movhi	r2,5
   457cc:	1081b604 	addi	r2,r2,1752
   457d0:	dfc00117 	ldw	ra,4(sp)
   457d4:	dc000017 	ldw	r16,0(sp)
   457d8:	dec00204 	addi	sp,sp,8
   457dc:	f800283a 	ret
   457e0:	01400174 	movhi	r5,5
   457e4:	2941b604 	addi	r5,r5,1752
   457e8:	8009883a 	mov	r4,r16
   457ec:	0047e6c0 	call	47e6c <strcmp>
   457f0:	103ff526 	beq	r2,zero,457c8 <__alt_data_end+0xfffcfc68>
   457f4:	01400174 	movhi	r5,5
   457f8:	2941a104 	addi	r5,r5,1668
   457fc:	8009883a 	mov	r4,r16
   45800:	0047e6c0 	call	47e6c <strcmp>
   45804:	103ff026 	beq	r2,zero,457c8 <__alt_data_end+0xfffcfc68>
   45808:	0005883a 	mov	r2,zero
   4580c:	003ff006 	br	457d0 <__alt_data_end+0xfffcfc70>
   45810:	00800174 	movhi	r2,5
