
cancion_doble.elf:     file format elf32-littlenios2
cancion_doble.elf
architecture: nios2:r1, flags 0x00000112:
EXEC_P, HAS_SYMS, D_PAGED
start address 0x0004022c

Program Header:
    LOAD off    0x00001000 vaddr 0x00040000 paddr 0x00040000 align 2**12
         filesz 0x00000020 memsz 0x00000020 flags r-x
    LOAD off    0x00001020 vaddr 0x00040020 paddr 0x00040020 align 2**12
         filesz 0x0000f47c memsz 0x0000f47c flags r-x
    LOAD off    0x0001049c vaddr 0x0004f49c paddr 0x00051060 align 2**12
         filesz 0x00001bc4 memsz 0x00001bc4 flags rw-
    LOAD off    0x00012c24 vaddr 0x00052c24 paddr 0x00052c24 align 2**12
         filesz 0x00000000 memsz 0x000093dc flags rw-

Sections:
Idx Name          Size      VMA       LMA       File off  Algn
  0 .entry        00000020  00040000  00040000  00001000  2**5
                  CONTENTS, ALLOC, LOAD, READONLY, CODE
  1 .exceptions   0000020c  00040020  00040020  00001020  2**2
                  CONTENTS, ALLOC, LOAD, READONLY, CODE
  2 .text         0000f0f4  0004022c  0004022c  0000122c  2**2
                  CONTENTS, ALLOC, LOAD, READONLY, CODE
  3 .rodata       0000017c  0004f320  0004f320  00010320  2**2
                  CONTENTS, ALLOC, LOAD, READONLY, DATA
  4 .rwdata       00001bc4  0004f49c  00051060  0001049c  2**2
                  CONTENTS, ALLOC, LOAD, DATA, SMALL_DATA
  5 .bss          000093dc  00052c24  00052c24  00012c24  2**2
                  ALLOC, SMALL_DATA
  6 .RAM_jesus    00000000  0005c000  0005c000  00012060  2**0
                  CONTENTS
  7 .comment      00000023  00000000  00000000  00012060  2**0
                  CONTENTS, READONLY
  8 .debug_aranges 00000b78  00000000  00000000  00012088  2**3
                  CONTENTS, READONLY, DEBUGGING
  9 .debug_info   000213e3  00000000  00000000  00012c00  2**0
                  CONTENTS, READONLY, DEBUGGING
 10 .debug_abbrev 00008151  00000000  00000000  00033fe3  2**0
                  CONTENTS, READONLY, DEBUGGING
 11 .debug_line   00009783  00000000  00000000  0003c134  2**0
                  CONTENTS, READONLY, DEBUGGING
 12 .debug_frame  00002894  00000000  00000000  000458b8  2**2
                  CONTENTS, READONLY, DEBUGGING
 13 .debug_str    00003b2f  00000000  00000000  0004814c  2**0
                  CONTENTS, READONLY, DEBUGGING
 14 .debug_loc    00004721  00000000  00000000  0004bc7b  2**0
                  CONTENTS, READONLY, DEBUGGING
 15 .debug_alt_sim_info 00000010  00000000  00000000  0005039c  2**2
                  CONTENTS, READONLY, DEBUGGING
 16 .debug_ranges 00000328  00000000  00000000  000503b0  2**3
                  CONTENTS, READONLY, DEBUGGING
 17 .thread_model 00000006  00000000  00000000  000547b6  2**0
                  CONTENTS, READONLY
 18 .cpu          00000003  00000000  00000000  000547bc  2**0
                  CONTENTS, READONLY
 19 .qsys         00000001  00000000  00000000  000547bf  2**0
                  CONTENTS, READONLY
 20 .simulation_enabled 00000001  00000000  00000000  000547c0  2**0
                  CONTENTS, READONLY
 21 .stderr_dev   00000009  00000000  00000000  000547c1  2**0
                  CONTENTS, READONLY
 22 .stdin_dev    00000009  00000000  00000000  000547ca  2**0
                  CONTENTS, READONLY
 23 .stdout_dev   00000009  00000000  00000000  000547d3  2**0
                  CONTENTS, READONLY
 24 .sopc_system_name 0000000d  00000000  00000000  000547dc  2**0
                  CONTENTS, READONLY
 25 .quartus_project_dir 00000044  00000000  00000000  000547e9  2**0
                  CONTENTS, READONLY
 26 .jdi          00003b78  00000000  00000000  0005482d  2**0
                  CONTENTS, READONLY
 27 .sopcinfo     000717e6  00000000  00000000  000583a5  2**0
                  CONTENTS, READONLY
SYMBOL TABLE:
00040000 l    d  .entry	00000000 .entry
00040020 l    d  .exceptions	00000000 .exceptions
0004022c l    d  .text	00000000 .text
0004f320 l    d  .rodata	00000000 .rodata
0004f49c l    d  .rwdata	00000000 .rwdata
00052c24 l    d  .bss	00000000 .bss
0005c000 l    d  .RAM_jesus	00000000 .RAM_jesus
00000000 l    d  .comment	00000000 .comment
00000000 l    d  .debug_aranges	00000000 .debug_aranges
00000000 l    d  .debug_info	00000000 .debug_info
00000000 l    d  .debug_abbrev	00000000 .debug_abbrev
00000000 l    d  .debug_line	00000000 .debug_line
00000000 l    d  .debug_frame	00000000 .debug_frame
00000000 l    d  .debug_str	00000000 .debug_str
00000000 l    d  .debug_loc	00000000 .debug_loc
00000000 l    d  .debug_alt_sim_info	00000000 .debug_alt_sim_info
00000000 l    d  .debug_ranges	00000000 .debug_ranges
00000000 l    df *ABS*	00000000 ../cancion_doble_bsp//obj/HAL/src/crt0.o
00040264 l       .text	00000000 alt_after_alt_main
00000000 l    df *ABS*	00000000 alt_irq_handler.c
00000000 l    df *ABS*	00000000 alt_instruction_exception_entry.c
00000000 l    df *ABS*	00000000 hello_ucosii.c
00000000 l    df *ABS*	00000000 puts.c
00000000 l    df *ABS*	00000000 strlen.c
00000000 l    df *ABS*	00000000 fvwrite.c
00000000 l    df *ABS*	00000000 impure.c
0004f49c l     O .rwdata	00000424 impure_data
00000000 l    df *ABS*	00000000 mallocr.c
00000000 l    df *ABS*	00000000 memchr.c
00000000 l    df *ABS*	00000000 memcpy.c
00000000 l    df *ABS*	00000000 memmove.c
00000000 l    df *ABS*	00000000 mallocr.c
00000000 l    df *ABS*	00000000 sbrkr.c
00000000 l    df *ABS*	00000000 wsetup.c
00000000 l    df *ABS*	00000000 fflush.c
00000000 l    df *ABS*	00000000 findfp.c
00042598 l     F .text	00000008 __fp_lock
000425a0 l     F .text	00000008 __fp_unlock
000425b4 l     F .text	000001a0 __sinit.part.1
00000000 l    df *ABS*	00000000 mallocr.c
00000000 l    df *ABS*	00000000 fwalk.c
00000000 l    df *ABS*	00000000 int_errno.c
00000000 l    df *ABS*	00000000 makebuf.c
00000000 l    df *ABS*	00000000 memset.c
00000000 l    df *ABS*	00000000 stdio.c
00000000 l    df *ABS*	00000000 writer.c
00000000 l    df *ABS*	00000000 closer.c
00000000 l    df *ABS*	00000000 fclose.c
00000000 l    df *ABS*	00000000 fstatr.c
00000000 l    df *ABS*	00000000 isattyr.c
00000000 l    df *ABS*	00000000 lseekr.c
00000000 l    df *ABS*	00000000 readr.c
00000000 l    df *ABS*	00000000 lib2-mul.c
00000000 l    df *ABS*	00000000 alt_close.c
00043638 l     F .text	00000050 alt_get_errno
00000000 l    df *ABS*	00000000 alt_dev.c
00043760 l     F .text	0000002c alt_dev_null_write
00000000 l    df *ABS*	00000000 alt_errno.c
00000000 l    df *ABS*	00000000 alt_fstat.c
0004378c l     F .text	00000050 alt_get_errno
00000000 l    df *ABS*	00000000 alt_isatty.c
00043894 l     F .text	00000050 alt_get_errno
00000000 l    df *ABS*	00000000 alt_load.c
00043990 l     F .text	00000064 alt_load_section
00000000 l    df *ABS*	00000000 alt_lseek.c
00043a74 l     F .text	00000050 alt_get_errno
00000000 l    df *ABS*	00000000 alt_main.c
00000000 l    df *ABS*	00000000 alt_read.c
00043c74 l     F .text	00000050 alt_get_errno
00000000 l    df *ABS*	00000000 alt_release_fd.c
00000000 l    df *ABS*	00000000 alt_sbrk.c
00050fd4 l     O .rwdata	00000004 heap_end
00000000 l    df *ABS*	00000000 alt_write.c
00043ef8 l     F .text	00000050 alt_get_errno
00000000 l    df *ABS*	00000000 alt_env_lock.c
00050fd8 l     O .rwdata	00000004 lockid
00052c44 l     O .bss	00000004 locks
00000000 l    df *ABS*	00000000 alt_malloc_lock.c
00050fdc l     O .rwdata	00000004 lockid
00052c4c l     O .bss	00000004 locks
00000000 l    df *ABS*	00000000 os_core.c
00045934 l     F .text	00000044 OS_InitMisc
00045978 l     F .text	00000068 OS_InitRdyList
00045ad8 l     F .text	000000e0 OS_InitTCBList
00045858 l     F .text	000000dc OS_InitEventList
000459e0 l     F .text	0000007c OS_InitTaskIdle
00045a5c l     F .text	0000007c OS_InitTaskStat
00045d38 l     F .text	00000070 OS_SchedNew
00000000 l    df *ABS*	00000000 os_dbg.c
00000000 l    df *ABS*	00000000 os_flag.c
00047b2c l     F .text	00000110 OS_FlagTaskRdy
00047884 l     F .text	000001c4 OS_FlagBlock
00000000 l    df *ABS*	00000000 os_mem.c
00000000 l    df *ABS*	00000000 os_q.c
00000000 l    df *ABS*	00000000 os_sem.c
00000000 l    df *ABS*	00000000 os_task.c
00000000 l    df *ABS*	00000000 os_time.c
00000000 l    df *ABS*	00000000 alt_sys_init.c
0004bffc l     F .text	00000038 alt_dev_reg
0004fe70 l     O .rwdata	0000106c jtag_uart
00050edc l     O .rwdata	000000d0 uart
00000000 l    df *ABS*	00000000 altera_avalon_jtag_uart_fd.c
00000000 l    df *ABS*	00000000 altera_avalon_jtag_uart_init.c
0004c390 l     F .text	000002a4 altera_avalon_jtag_uart_irq
0004c634 l     F .text	00000110 altera_avalon_jtag_uart_timeout
00000000 l    df *ABS*	00000000 altera_avalon_jtag_uart_ioctl.c
00000000 l    df *ABS*	00000000 altera_avalon_jtag_uart_read.c
00000000 l    df *ABS*	00000000 altera_avalon_jtag_uart_write.c
00000000 l    df *ABS*	00000000 altera_avalon_timer_sc.c
0004ce0c l     F .text	00000074 alt_avalon_timer_sc_irq
00000000 l    df *ABS*	00000000 altera_avalon_uart_fd.c
00000000 l    df *ABS*	00000000 altera_avalon_uart_init.c
0004d174 l     F .text	00000098 altera_avalon_uart_irq
0004d20c l     F .text	00000138 altera_avalon_uart_rxirq
0004d344 l     F .text	000001a4 altera_avalon_uart_txirq
00000000 l    df *ABS*	00000000 altera_avalon_uart_read.c
0004d53c l     F .text	00000050 alt_get_errno
00000000 l    df *ABS*	00000000 altera_avalon_uart_write.c
0004d7f4 l     F .text	00000050 alt_get_errno
00000000 l    df *ABS*	00000000 alt_alarm_start.c
00000000 l    df *ABS*	00000000 alt_dcache_flush_all.c
00000000 l    df *ABS*	00000000 alt_dev_llist_insert.c
0004dbd8 l     F .text	00000050 alt_get_errno
00000000 l    df *ABS*	00000000 alt_do_ctors.c
00000000 l    df *ABS*	00000000 alt_do_dtors.c
00000000 l    df *ABS*	00000000 alt_icache_flush_all.c
00000000 l    df *ABS*	00000000 alt_iic.c
00000000 l    df *ABS*	00000000 alt_iic_isr_register.c
00000000 l    df *ABS*	00000000 alt_io_redirect.c
0004e070 l     F .text	000000e0 alt_open_fd
00000000 l    df *ABS*	00000000 alt_irq_vars.c
00000000 l    df *ABS*	00000000 alt_open.c
0004e1c8 l     F .text	00000050 alt_get_errno
0004e218 l     F .text	000000f4 alt_file_locked
00000000 l    df *ABS*	00000000 alt_tick.c
00000000 l    df *ABS*	00000000 altera_nios2_gen2_irq.c
00000000 l    df *ABS*	00000000 os_cpu_a.o
00000040 l       *ABS*	00000000 OSCtxSw_SWITCH_PC
00000000 l    df *ABS*	00000000 os_cpu_c.c
00000014 l       *ABS*	00000000 OSTCBNext_OFFSET
00000032 l       *ABS*	00000000 OSTCBPrio_OFFSET
00000000 l       *ABS*	00000000 OSTCBStkPtr_OFFSET
00000000 l    df *ABS*	00000000 alt_find_dev.c
00000000 l    df *ABS*	00000000 alt_find_file.c
00000000 l    df *ABS*	00000000 alt_get_fd.c
00000000 l    df *ABS*	00000000 atexit.c
00000000 l    df *ABS*	00000000 exit.c
00000000 l    df *ABS*	00000000 memcmp.c
00000000 l    df *ABS*	00000000 __atexit.c
00000000 l    df *ABS*	00000000 __call_atexit.c
00000000 l    df *ABS*	00000000 lib2-divmod.c
0004f1b8 l     F .text	0000006c udivmodsi4
00000000 l    df *ABS*	00000000 alt_exit.c
00052cb0 g     O .bss	00000004 alt_instruction_exception_handler
0005102a g     O .rwdata	00000002 OSTaskNameSize
00043504 g     F .text	00000054 _isatty_r
00043ba0 g     F .text	000000d4 alt_main
00040af0 g     F .text	000000b8 _puts_r
0005bf00 g     O .bss	00000100 alt_irq
00043558 g     F .text	0000005c _lseek_r
00048390 g     F .text	000000dc OS_MemInit
00051060 g       *ABS*	00000000 __flash_rwdata_start
0004bf98 g     F .text	00000064 OSTimeSet
000445b0 g     F .text	00000610 OSEventPendMulti
0005c000 g       *ABS*	00000000 __alt_heap_start
0004e9ec g     F .text	00000020 OSTaskCreateHook
00052cdc g     O .bss	00002000 task1_stk
00051002 g     O .rwdata	00000002 OSMboxEn
00044c14 g     F .text	0000007c OSIntEnter
00043284 g     F .text	0000005c __sseek
000428fc g     F .text	00000010 __sinit
00051012 g     O .rwdata	00000002 OSQEn
00042754 g     F .text	00000078 __sfmoreglue
00044284 g     F .text	000000d0 __malloc_unlock
0004ea48 g     F .text	0000001c OSTaskStatHook
00052c54 g     O .bss	00000001 OSLockNesting
00051050 g     O .rwdata	00000002 OSDataSize
00052c55 g     O .bss	00000001 OSRunning
00041ac0 g     F .text	0000015c memmove
0004ea80 g     F .text	0000001c OSInitHookBegin
00051048 g     O .rwdata	00000002 OSTmrSize
000428e4 g     F .text	00000018 _cleanup
00052c58 g     O .bss	00000004 OSIdleCtr
0004e608 g     F .text	00000020 altera_nios2_gen2_irq_init
0004e6d4 g       .text	00000000 OSStartTsk
00000000  w      *UND*	00000000 __errno
00046060 g     F .text	000002d4 OS_TCBInit
00040000 g     F .entry	0000000c __reset
0005104e g     O .rwdata	00000002 OSTmrWheelTblSize
00040020 g       *ABS*	00000000 __flash_exceptions_start
00050fee g     O .rwdata	00000002 OSEventSize
00052c5c g     O .bss	00000001 OSPrioHighRdy
000434ac g     F .text	00000058 _fstat_r
0004ea0c g     F .text	00000020 OSTaskDelHook
00052c30 g     O .bss	00000004 errno
00043200 g     F .text	00000008 __seofread
0004e6b4 g       .text	00000000 OSStartHighRdy
0004a880 g     F .text	000001ec OSTaskCreateExt
000473d0 g     F .text	00000068 OSFlagPendGetFlagsRdy
0005102e g     O .rwdata	00000002 OSTaskStatStkSize
000464c0 g     F .text	00000308 OSFlagAccept
00048a70 g     F .text	000000b8 OSQFlush
0004846c g     F .text	00000140 OSQAccept
00052c3c g     O .bss	00000004 alt_argv
00058fac g       *ABS*	00000000 _gp
0004a6c4 g     F .text	000001bc OSTaskCreate
0004a184 g     F .text	00000540 OSTaskChangePrio
00052c50 g     O .bss	00000004 alt_heapsem
000402e0 g     F .text	00000078 play_tone1
00046334 g     F .text	0000018c OSDebugInit
0004aa6c g     F .text	000003e0 OSTaskDel
0004fcf0 g     O .rwdata	00000180 alt_fd_list
00058cdc g     O .bss	00000370 OSFlagTbl
00045644 g     F .text	000000b4 OS_EventTaskRemove
0004eaf4 g     F .text	00000090 alt_find_dev
00041988 g     F .text	00000138 memcpy
00051018 g     O .rwdata	00000002 OSRdyTblSize
000425a8 g     F .text	0000000c _cleanup_r
0004e150 g     F .text	00000078 alt_io_redirect
0004f320 g       *ABS*	00000000 __DTOR_END__
00040ba8 g     F .text	00000014 puts
0004edac g     F .text	0000009c alt_exception_cause_generated_bad_addr
00044354 g     F .text	00000120 OSEventNameGet
00050ffc g     O .rwdata	00000002 OSFlagMax
00044c90 g     F .text	000000f4 OSIntExit
00051036 g     O .rwdata	00000002 OSTCBSize
00052c5d g     O .bss	00000001 OSPrioCur
0004c898 g     F .text	000002b4 altera_avalon_jtag_uart_read
00000000  w      *UND*	00000000 malloc
0004f2d4 g     F .text	00000008 .hidden __udivsi3
000438e4 g     F .text	000000ac isatty
0005101c g     O .rwdata	00000002 OSStkWidth
00051010 g     O .rwdata	00000002 OSPtrSize
00050ff0 g     O .rwdata	00000002 OSEventTblSize
0004e628 g       .text	00000000 OSCtxSw
00052c2c g     O .bss	00000004 __malloc_top_pad
00052c60 g     O .bss	00000004 OSTCBList
00052c34 g     O .bss	00000004 alt_fd_list_lock
00040c54 g     F .text	000004a4 __sfvwrite_r
0005904c g     O .bss	00000c30 OSMemTbl
00052c64 g     O .bss	00000001 OSTickStepState
000421bc g     F .text	00000054 _sbrk_r
00051014 g     O .rwdata	00000002 OSQMax
00059c7c g     O .bss	00000800 OSTaskStatStk
00047fc0 g     F .text	000000f8 OSMemNameGet
00050ff4 g     O .rwdata	00000002 OSFlagEn
000435b4 g     F .text	0000005c _read_r
0005103a g     O .rwdata	00000002 OSTimeTickHookEn
00048f90 g     F .text	00000168 OSQPost
00047c3c g     F .text	000000a0 OS_FlagUnlink
00050fcc g     O .rwdata	00000004 alt_max_fd
00045c08 g     F .text	00000064 OS_MemCopy
00045c6c g     F .text	000000cc OS_Sched
00043398 g     F .text	00000100 _fclose_r
00047ed0 g     F .text	000000f0 OSMemGet
0004b14c g     F .text	000001c0 OSTaskNameSet
00042568 g     F .text	00000030 fflush
00052c28 g     O .bss	00000004 __malloc_max_sbrked_mem
00052c68 g     O .bss	00000004 OSCtxSwCtr
0004ea64 g     F .text	0000001c OSTimeTickHook
00050ffe g     O .rwdata	00000002 OSFlagNameSize
000456f8 g     F .text	000000fc OS_EventTaskRemoveMulti
000454f8 g     F .text	0000014c OS_EventTaskWaitMulti
00051016 g     O .rwdata	00000002 OSQSize
00043ac4 g     F .text	000000dc lseek
00049a94 g     F .text	00000268 OSSemPend
00050fac g     O .rwdata	00000004 _global_impure_ptr
00041c1c g     F .text	000005a0 _realloc_r
00051000 g     O .rwdata	00000002 OSLowestPrio
0005c000 g       *ABS*	00000000 __bss_end
0004df80 g     F .text	000000f0 alt_iic_isr_register
0004ead4 g     F .text	00000020 OSTCBInitHook
00051046 g     O .rwdata	00000002 OSTmrCfgTicksPerSec
0004e504 g     F .text	00000104 alt_tick
00050fe8 g     O .rwdata	00000002 OSEventEn
00051042 g     O .rwdata	00000002 OSTmrCfgNameSize
0004d018 g     F .text	0000015c altera_avalon_uart_init
0004291c g     F .text	00000018 __fp_lock_all
0004df34 g     F .text	0000004c alt_ic_irq_enabled
00047a48 g     F .text	000000e4 OS_FlagInit
0004e46c g     F .text	00000098 alt_alarm_stop
00051024 g     O .rwdata	00000002 OSTaskIdleStkSize
00052ca4 g     O .bss	00000004 alt_irq_active
0004967c g     F .text	000000b0 OSSemAccept
000481d0 g     F .text	000000d8 OSMemPut
00047cdc g     F .text	000001f4 OSMemCreate
00052c6c g     O .bss	00000004 OSIdleCtrMax
000400fc g     F .exceptions	000000d0 alt_irq_handler
0004fcc8 g     O .rwdata	00000028 alt_dev_null
00051038 g     O .rwdata	00000002 OSTicksPerSec
0004e628 g       .text	00000000 OSIntCtxSw
0004dbbc g     F .text	0000001c alt_dcache_flush_all
00052c70 g     O .bss	00000004 OSTCBFreeList
00051060 g       *ABS*	00000000 __ram_rwdata_end
00049cfc g     F .text	0000016c OSSemPendAbort
00050fc4 g     O .rwdata	00000008 alt_dev_list
00043f48 g     F .text	00000100 write
0005103c g     O .rwdata	00000002 OSVersionNbr
0004f49c g       *ABS*	00000000 __ram_rodata_end
000437dc g     F .text	000000b8 fstat
00050fe4 g     O .rwdata	00000004 OSEndiannessTest
0004f2dc g     F .text	00000008 .hidden __umodsi3
00050ff6 g     O .rwdata	00000002 OSFlagGrpSize
0005c000 g       *ABS*	00000000 end
0004d844 g     F .text	00000238 altera_avalon_uart_write
0004c244 g     F .text	0000014c altera_avalon_jtag_uart_init
00045ecc g     F .text	000000cc OS_TaskStat
000401cc g     F .exceptions	00000060 alt_instruction_exception_entry
00040268 g     F .text	00000078 play_tone
0004f320 g       *ABS*	00000000 __CTOR_LIST__
00075b60 g       *ABS*	00000000 __alt_stack_pointer
0004ce80 g     F .text	00000088 alt_avalon_timer_sc_init
0004cf68 g     F .text	00000060 altera_avalon_uart_write_fd
0004cfc8 g     F .text	00000050 altera_avalon_uart_close_fd
0004cb4c g     F .text	000002c0 altera_avalon_jtag_uart_write
0004290c g     F .text	00000004 __sfp_lock_acquire
000418a0 g     F .text	000000e8 memchr
00045bb8 g     F .text	00000050 OS_MemClr
0004e6f8 g     F .text	000002f4 OSTaskStkInit
00040358 g     F .text	000000a4 task1
00042a70 g     F .text	000002f0 _free_r
00045254 g     F .text	00000198 OS_EventTaskRdy
0004f024 g     F .text	00000194 __call_exitprocs
00052c74 g     O .bss	00000001 OSCPUUsage
00050fb4 g     O .rwdata	00000004 __malloc_sbrk_base
0004022c g     F .text	0000003c _start
000403fc g     F .text	00000390 task2
00052ca8 g     O .bss	00000004 _alt_tick_rate
00048b28 g     F .text	000002fc OSQPend
0004ba78 g     F .text	00000148 OSTimeDly
00052cac g     O .bss	00000004 _alt_nticks
00043cc4 g     F .text	00000104 read
0004c068 g     F .text	00000078 alt_sys_init
0004ef10 g     F .text	00000114 __register_exitproc
00052c75 g     O .bss	00000001 OSTaskCtr
0004bbc0 g     F .text	00000184 OSTimeDlyHMSM
0004c744 g     F .text	00000068 altera_avalon_jtag_uart_close
00043610 g     F .text	00000028 .hidden __mulsi3
0004f49c g       *ABS*	00000000 __ram_rwdata_start
0004f320 g       *ABS*	00000000 __ram_rodata_start
00052cb4 g     O .bss	00000028 __malloc_current_mallinfo
00050fea g     O .rwdata	00000002 OSEventMax
00049e68 g     F .text	00000110 OSSemPost
00044e0c g     F .text	000000d8 OSSchedUnlock
0004c0e0 g     F .text	00000060 altera_avalon_jtag_uart_read_fd
0004ec98 g     F .text	00000114 alt_get_fd
00052c78 g     O .bss	00000004 OSMemFreeList
00044f50 g     F .text	000000ac OSStatInit
000477c0 g     F .text	000000c4 OSFlagQuery
00051020 g     O .rwdata	00000002 OSTaskCreateExtEn
00043344 g     F .text	00000054 _close_r
0004ee94 g     F .text	0000007c memcmp
00045238 g     F .text	0000001c OS_Dummy
0004c1a0 g     F .text	00000050 altera_avalon_jtag_uart_close_fd
0005c000 g       *ABS*	00000000 __alt_stack_base
0004c1f0 g     F .text	00000054 altera_avalon_jtag_uart_ioctl_fd
0004078c g     F .text	00000278 leds_task
00042210 g     F .text	00000130 __swsetup_r
0005a47c g     O .bss	000001e0 OSQTbl
000427cc g     F .text	00000118 __sfp
0004f8c0 g     O .rwdata	00000408 __malloc_av_
00042918 g     F .text	00000004 __sinit_lock_release
00052c7c g     O .bss	00000004 OSTCBHighRdy
000431ac g     F .text	00000054 __sread
00052c80 g     O .bss	00000004 OSQFreeList
0004eb84 g     F .text	00000114 alt_find_file
0004dc28 g     F .text	000000a4 alt_dev_llist_insert
00044164 g     F .text	00000120 __malloc_lock
00043e48 g     F .text	000000b0 sbrk
00044474 g     F .text	0000013c OSEventNameSet
00042340 g     F .text	00000228 _fflush_r
00052c84 g     O .bss	00000001 OSRdyGrp
00052c24 g       *ABS*	00000000 __bss_start
00043088 g     F .text	00000124 memset
00040a04 g     F .text	000000ec main
00052c40 g     O .bss	00000004 alt_envp
00052c24 g     O .bss	00000004 __malloc_max_total_mem
0004c140 g     F .text	00000060 altera_avalon_jtag_uart_write_fd
0004f35c g     O .rodata	00000100 OSUnMapTbl
00040000 g       *ABS*	00000000 __alt_mem_RAM_jesus
0005101a g     O .rwdata	00000002 OSSemEn
00047438 g     F .text	00000388 OSFlagPost
000432e0 g     F .text	00000008 __sclose
00075b60 g       *ABS*	00000000 __alt_heap_limit
00043498 g     F .text	00000014 fclose
000453ec g     F .text	0000010c OS_EventTaskWait
00054cdc g     O .bss	00002000 task2_stk
00045f98 g     F .text	000000c8 OS_TaskStatStkChk
0004ae4c g     F .text	00000158 OSTaskDelReq
000410f8 g     F .text	000007a8 _malloc_r
00050fd0 g     O .rwdata	00000004 alt_errno
00044ee4 g     F .text	0000006c OSStart
00044108 g     F .text	0000005c __env_unlock
00042d60 g     F .text	000000b8 _fwalk
0004b30c g     F .text	000001f8 OSTaskResume
000482a8 g     F .text	000000e8 OSMemQuery
0005102c g     O .rwdata	00000002 OSTaskStatEn
00051006 g     O .rwdata	00000002 OSMemMax
000490f8 g     F .text	00000170 OSQPostFront
0004f224 g     F .text	00000054 .hidden __divsi3
00052c85 g     O .bss	00000003 OSRdyTbl
00050fe0 g     O .rwdata	00000002 OSDebugEn
0004294c g     F .text	00000124 _malloc_trim_r
0004f320 g       *ABS*	00000000 __CTOR_END__
00050ff8 g     O .rwdata	00000002 OSFlagNodeSize
00051040 g     O .rwdata	00000002 OSTmrCfgMax
000485ac g     F .text	000001fc OSQCreate
0004afa4 g     F .text	000001a8 OSTaskNameGet
0004f320 g       *ABS*	00000000 __flash_rodata_start
00049268 g     F .text	0000020c OSQPostOpt
00044ffc g     F .text	0000021c OSTimeTick
00051028 g     O .rwdata	00000002 OSTaskMax
0004f320 g       *ABS*	00000000 __DTOR_LIST__
0004972c g     F .text	00000100 OSSemCreate
0005104c g     O .rwdata	00000002 OSTmrWheelSize
00051022 g     O .rwdata	00000002 OSTaskDelEn
00049f78 g     F .text	00000110 OSSemQuery
000487a8 g     F .text	000002c8 OSQDel
00048e24 g     F .text	0000016c OSQPendAbort
0004c034 g     F .text	00000034 alt_irq_init
00043dc8 g     F .text	00000080 alt_release_fd
0004ee48 g     F .text	00000014 atexit
000432e8 g     F .text	0000005c _write_r
00044d84 g     F .text	00000088 OSSchedLock
000467c8 g     F .text	00000128 OSFlagCreate
00050fb0 g     O .rwdata	00000004 _impure_ptr
00052c38 g     O .bss	00000004 alt_argc
0004dd28 g     F .text	0000005c _do_dtors
00050ff2 g     O .rwdata	00000002 OSEventMultiEn
000468f0 g     F .text	00000270 OSFlagDel
00052c88 g     O .bss	00000004 OSEventFreeList
00040020 g       .exceptions	00000000 alt_irq_entry
00046de0 g     F .text	000005f0 OSFlagPend
0005103e g     O .rwdata	00000002 OSTmrEn
00042934 g     F .text	00000018 __fp_unlock_all
00050fbc g     O .rwdata	00000008 alt_fs_list
00045da8 g     F .text	00000074 OS_StrCopy
00051008 g     O .rwdata	00000002 OSMemNameSize
0004ea9c g     F .text	0000001c OSInitHookEnd
00040020 g       *ABS*	00000000 __ram_exceptions_start
00051034 g     O .rwdata	00000002 OSTCBPrioTblMax
00051030 g     O .rwdata	00000002 OSTaskStatStkChkEn
0004dda0 g     F .text	00000050 alt_ic_isr_register
00051004 g     O .rwdata	00000002 OSMemEn
0005100e g     O .rwdata	00000002 OSMutexEn
00051060 g       *ABS*	00000000 _edata
0004cf08 g     F .text	00000060 altera_avalon_uart_read_fd
0005c000 g       *ABS*	00000000 _end
00052c8c g     O .bss	00000001 OSIntNesting
0004022c g       *ABS*	00000000 __ram_exceptions_end
0004c7ac g     F .text	000000ec altera_avalon_jtag_uart_ioctl
0004bd44 g     F .text	000001f0 OSTimeDlyResume
00046c90 g     F .text	00000150 OSFlagNameSet
0004b504 g     F .text	000001c8 OSTaskStkChk
0004de90 g     F .text	000000a4 alt_ic_irq_disable
0005100a g     O .rwdata	00000002 OSMemSize
00043208 g     F .text	0000007c __swrite
00050fb8 g     O .rwdata	00000004 __malloc_trim_threshold
00052c90 g     O .bss	00000004 OSTCBCur
0004ee5c g     F .text	00000038 exit
0005100c g     O .rwdata	00000002 OSMemTblSize
00042e18 g     F .text	000000b8 _fwalk_reent
0004f278 g     F .text	0000005c .hidden __modsi3
00075b60 g       *ABS*	00000000 __alt_data_end
00040020 g     F .exceptions	00000000 alt_exception
00042910 g     F .text	00000004 __sfp_lock_release
00056cdc g     O .bss	00002000 leds_stk
00044bc0 g     F .text	00000054 OSInit
0004b8e0 g     F .text	0000012c OSTaskQuery
000495d0 g     F .text	000000ac OS_QInit
00045e1c g     F .text	00000054 OS_StrLen
000480b8 g     F .text	00000118 OSMemNameSet
00051026 g     O .rwdata	00000002 OSTaskProfileEn
00052c94 g     O .bss	00000004 OSTime
0004d4e8 g     F .text	00000054 altera_avalon_uart_close
0005a65c g     O .bss	00000800 OSTaskIdleStk
0004f2e4 g     F .text	0000003c _exit
0004da7c g     F .text	00000140 alt_alarm_start
00046b60 g     F .text	00000130 OSFlagNameGet
0004bf34 g     F .text	00000064 OSTimeGet
00042ed0 g     F .text	000001b8 __smakebuf_r
00040bbc g     F .text	00000098 strlen
0004ea2c g     F .text	0000001c OSTaskSwHook
0004e30c g     F .text	00000160 open
0005ae5c g     O .bss	00000b40 OSEventTbl
0005b99c g     O .bss	00000510 OSTCBTbl
0004a088 g     F .text	000000fc OSSemSet
0004dd84 g     F .text	0000001c alt_icache_flush_all
00051054 g     O .rwdata	00000004 alt_priority_mask
0004982c g     F .text	00000268 OSSemDel
00052c98 g     O .bss	00000004 OSFlagFreeList
0004ddf0 g     F .text	000000a0 alt_ic_irq_enable
00050fec g     O .rwdata	00000002 OSEventNameSize
00052c9c g     O .bss	00000001 OSStatRdy
0005beac g     O .bss	00000054 OSTCBPrioTbl
0004d58c g     F .text	00000268 altera_avalon_uart_read
00044048 g     F .text	000000c0 __env_lock
00051032 g     O .rwdata	00000002 OSTaskSwHookEn
00051058 g     O .rwdata	00000008 alt_alarm_list
00050ffa g     O .rwdata	00000002 OSFlagWidth
0004dccc g     F .text	0000005c _do_ctors
00043688 g     F .text	000000d8 close
00052c48 g     O .bss	00000004 alt_envsem
00052ca0 g     O .bss	00000004 OSIdleCtrRun
00045218 g     F .text	00000020 OSVersion
00051044 g     O .rwdata	00000002 OSTmrCfgWheelSize
000439f4 g     F .text	00000080 alt_load
0004ba0c g     F .text	0000006c OS_TaskStkClr
0005101e g     O .rwdata	00000002 OSTaskCreateEn
000457f4 g     F .text	00000064 OS_EventWaitListInit
0004eab8 g     F .text	0000001c OSTaskIdleHook
00000000  w      *UND*	00000000 free
00042914 g     F .text	00000004 __sinit_lock_acquire
0004b6cc g     F .text	00000214 OSTaskSuspend
00045e70 g     F .text	0000005c OS_TaskIdle
0005104a g     O .rwdata	00000002 OSTmrTblSize
00049474 g     F .text	0000015c OSQQuery



Disassembly of section .entry:

00040000 <__reset>:
 * Jump to the _start entry point in the .text section if reset code
 * is allowed or if optimizing for RTL simulation.
 */
#if defined(ALT_ALLOW_CODE_AT_RESET) || defined(ALT_SIM_OPTIMIZE)
    /* Jump to the _start entry point in the .text section. */
    movhi r1, %hi(_start)
   40000:	00400134 	movhi	at,4
    ori r1, r1, %lo(_start)
   40004:	08408b14 	ori	at,at,556
    jmp r1
   40008:	0800683a 	jmp	at
	...

Disassembly of section .exceptions:

00040020 <alt_exception>:

#else /* ALT_EXCEPTION_STACK disabled */
        /* 
         * Reserve space on normal stack for registers about to be pushed.
         */
        addi  sp, sp, -76
   40020:	deffed04 	addi	sp,sp,-76
         * documentation for details).
         *
         * Leave a gap in the stack frame at 4(sp) for the muldiv handler to
         * store zero into.
         */
        stw   ra,  0(sp)
   40024:	dfc00015 	stw	ra,0(sp)
        stw   r1,   8(sp)
   40028:	d8400215 	stw	at,8(sp)
        stw   r2,  12(sp)
   4002c:	d8800315 	stw	r2,12(sp)
        stw   r3,  16(sp)
   40030:	d8c00415 	stw	r3,16(sp)
        stw   r4,  20(sp)
   40034:	d9000515 	stw	r4,20(sp)
        stw   r5,  24(sp)
   40038:	d9400615 	stw	r5,24(sp)
        stw   r6,  28(sp)
   4003c:	d9800715 	stw	r6,28(sp)
        stw   r7,  32(sp)
   40040:	d9c00815 	stw	r7,32(sp)
        rdctl r5, estatus   /* Read early to avoid usage stall */
   40044:	000b307a 	rdctl	r5,estatus
        stw   r8,  36(sp)
   40048:	da000915 	stw	r8,36(sp)
        stw   r9,  40(sp)
   4004c:	da400a15 	stw	r9,40(sp)
        stw   r10, 44(sp)
   40050:	da800b15 	stw	r10,44(sp)
        stw   r11, 48(sp)
   40054:	dac00c15 	stw	r11,48(sp)
        stw   r12, 52(sp)
   40058:	db000d15 	stw	r12,52(sp)
        stw   r13, 56(sp)
   4005c:	db400e15 	stw	r13,56(sp)
        stw   r14, 60(sp)
   40060:	db800f15 	stw	r14,60(sp)
        stw   r15, 64(sp)
   40064:	dbc01015 	stw	r15,64(sp)
        /*
         * ea-4 contains the address of the instruction being executed
         * when the exception occured. For interrupt exceptions, we will
         * will be re-issue the isntruction. Store it in 72(sp)
         */
        stw   r5,  68(sp)  /* estatus */
   40068:	d9401115 	stw	r5,68(sp)
        addi  r15, ea, -4  /* instruction that caused exception */
   4006c:	ebffff04 	addi	r15,ea,-4
        stw   r15,  72(sp)
   40070:	dbc01215 	stw	r15,72(sp)
#else
        /*
         * Test to see if the exception was a software exception or caused 
         * by an external interrupt, and vector accordingly.
         */
        rdctl r4, ipending
   40074:	0009313a 	rdctl	r4,ipending
        andi  r2, r5, 1
   40078:	2880004c 	andi	r2,r5,1
        beq   r2, zero, .Lnot_irq
   4007c:	10000326 	beq	r2,zero,4008c <alt_exception+0x6c>
        beq   r4, zero, .Lnot_irq
   40080:	20000226 	beq	r4,zero,4008c <alt_exception+0x6c>
        /*
         * Now that all necessary registers have been preserved, call 
         * alt_irq_handler() to process the interrupts.
         */

        call alt_irq_handler
   40084:	00400fc0 	call	400fc <alt_irq_handler>

        .section .exceptions.irqreturn, "xa"

        br    .Lexception_exit
   40088:	00000706 	br	400a8 <alt_exception+0x88>
         * upon completion, so we write ea (address of instruction *after*
         * the one where the exception occured) into 72(sp). The actual
         * instruction that caused the exception is written in r2, which these
         * handlers will utilize.
         */
        stw   ea,  72(sp)  /* Don't re-issue */
   4008c:	df401215 	stw	ea,72(sp)
        ldhu.n  r2, 0(r4)
        ldhu.n  r3, 2(r4)
        slli.n  r3, r3, 16
        or.n    r2, r2, r3 /* Instruction that caused exception */
#else
        ldw   r2, -4(ea)   /* Instruction that caused exception */
   40090:	e8bfff17 	ldw	r2,-4(ea)
         * debugger is present) or go into an infinite loop since the
         * handling behavior is undefined; in that case we will not return here.
         */

        /* Load exception-causing address as first argument (r4) */
        addi   r4, ea, -4
   40094:	e93fff04 	addi	r4,ea,-4

        /* Call the instruction-exception entry */
        call   alt_instruction_exception_entry
   40098:	00401cc0 	call	401cc <alt_instruction_exception_entry>
         * instruction
         *
         * Return code was 0: Skip. The instruction after the exception is
         * already stored in 72(sp).
         */
        bne   r2, r0, .Lexception_exit
   4009c:	1000021e 	bne	r2,zero,400a8 <alt_exception+0x88>

        /*
         * Otherwise, modify 72(sp) to re-issue the instruction that caused the
         * exception.
         */
        addi  r15, ea, -4  /* instruction that caused exception */
   400a0:	ebffff04 	addi	r15,ea,-4
        stw   r15,  72(sp)
   400a4:	dbc01215 	stw	r15,72(sp)
        /* 
         * Restore the saved registers, so that all general purpose registers 
         * have been restored to their state at the time the interrupt occured.
         */

        ldw   r5,  68(sp)
   400a8:	d9401117 	ldw	r5,68(sp)
        ldw   ea,  72(sp)  /* This becomes the PC once eret is executed */
   400ac:	df401217 	ldw	ea,72(sp)
        ldw   ra,   0(sp)
   400b0:	dfc00017 	ldw	ra,0(sp)

        wrctl estatus, r5
   400b4:	2801707a 	wrctl	estatus,r5

        ldw   r1,   8(sp)
   400b8:	d8400217 	ldw	at,8(sp)
        ldw   r2,  12(sp)
   400bc:	d8800317 	ldw	r2,12(sp)
        ldw   r3,  16(sp)
   400c0:	d8c00417 	ldw	r3,16(sp)
        ldw   r4,  20(sp)
   400c4:	d9000517 	ldw	r4,20(sp)
        ldw   r5,  24(sp)
   400c8:	d9400617 	ldw	r5,24(sp)
        ldw   r6,  28(sp)
   400cc:	d9800717 	ldw	r6,28(sp)
        ldw   r7,  32(sp)
   400d0:	d9c00817 	ldw	r7,32(sp)

#if defined(ALT_EXCEPTION_STACK) && defined(ALT_STACK_CHECK)
        ldw   et, %gprel(alt_exception_old_stack_limit)(gp)
#endif

        ldw   r8,  36(sp)
   400d4:	da000917 	ldw	r8,36(sp)
        ldw   r9,  40(sp)
   400d8:	da400a17 	ldw	r9,40(sp)
        ldw   r10, 44(sp)
   400dc:	da800b17 	ldw	r10,44(sp)
        ldw   r11, 48(sp)
   400e0:	dac00c17 	ldw	r11,48(sp)
        ldw   r12, 52(sp)
   400e4:	db000d17 	ldw	r12,52(sp)
        ldw   r13, 56(sp)
   400e8:	db400e17 	ldw	r13,56(sp)
        ldw   r14, 60(sp)
   400ec:	db800f17 	ldw	r14,60(sp)
        ldw   r15, 64(sp)
   400f0:	dbc01017 	ldw	r15,64(sp)
        stw   et, %gprel(alt_stack_limit_value)(gp)
        stw   zero, %gprel(alt_exception_old_stack_limit)(gp)
#endif /* ALT_STACK_CHECK */
        ldw   sp,  76(sp)
#else /* ALT_EXCEPTION_STACK disabled */
        addi  sp, sp, 76
   400f4:	dec01304 	addi	sp,sp,76

        /*
         * Return to the interrupted instruction.
         */

        eret
   400f8:	ef80083a 	eret

000400fc <alt_irq_handler>:
 * instruction is present if the macro ALT_CI_INTERRUPT_VECTOR defined.
 */

void alt_irq_handler (void) __attribute__ ((section (".exceptions")));
void alt_irq_handler (void)
{
   400fc:	defff904 	addi	sp,sp,-28
   40100:	dfc00615 	stw	ra,24(sp)
   40104:	df000515 	stw	fp,20(sp)
   40108:	df000504 	addi	fp,sp,20
  
  /*
   * Notify the operating system that we are at interrupt level.
   */ 
  
  ALT_OS_INT_ENTER();
   4010c:	0044c140 	call	44c14 <OSIntEnter>
#ifndef NIOS2_EIC_PRESENT
static ALT_INLINE alt_u32 ALT_ALWAYS_INLINE alt_irq_pending (void)
{
  alt_u32 active;

  NIOS2_READ_IPENDING (active);
   40110:	0005313a 	rdctl	r2,ipending
   40114:	e0bffe15 	stw	r2,-8(fp)

  return active;
   40118:	e0bffe17 	ldw	r2,-8(fp)
   * Consider the case where the high priority interupt is asserted during
   * the interrupt entry sequence for a lower priority interrupt to see why
   * this is the case.
   */

  active = alt_irq_pending ();
   4011c:	e0bffb15 	stw	r2,-20(fp)

  do
  {
    i = 0;
   40120:	e03ffd15 	stw	zero,-12(fp)
    mask = 1;
   40124:	00800044 	movi	r2,1
   40128:	e0bffc15 	stw	r2,-16(fp)
     * called to clear the interrupt condition.
     */

    do
    {
      if (active & mask)
   4012c:	e0fffb17 	ldw	r3,-20(fp)
   40130:	e0bffc17 	ldw	r2,-16(fp)
   40134:	1884703a 	and	r2,r3,r2
   40138:	10001426 	beq	r2,zero,4018c <alt_irq_handler+0x90>
      { 
#ifdef ALT_ENHANCED_INTERRUPT_API_PRESENT
        alt_irq[i].handler(alt_irq[i].context); 
   4013c:	008001b4 	movhi	r2,6
   40140:	10afc004 	addi	r2,r2,-16640
   40144:	e0fffd17 	ldw	r3,-12(fp)
   40148:	180690fa 	slli	r3,r3,3
   4014c:	10c5883a 	add	r2,r2,r3
   40150:	10c00017 	ldw	r3,0(r2)
   40154:	008001b4 	movhi	r2,6
   40158:	10afc004 	addi	r2,r2,-16640
   4015c:	e13ffd17 	ldw	r4,-12(fp)
   40160:	200890fa 	slli	r4,r4,3
   40164:	1105883a 	add	r2,r2,r4
   40168:	10800104 	addi	r2,r2,4
   4016c:	10800017 	ldw	r2,0(r2)
   40170:	1009883a 	mov	r4,r2
   40174:	183ee83a 	callr	r3
#else
        alt_irq[i].handler(alt_irq[i].context, i); 
#endif
        break;
   40178:	0001883a 	nop
#ifndef NIOS2_EIC_PRESENT
static ALT_INLINE alt_u32 ALT_ALWAYS_INLINE alt_irq_pending (void)
{
  alt_u32 active;

  NIOS2_READ_IPENDING (active);
   4017c:	0005313a 	rdctl	r2,ipending
   40180:	e0bfff15 	stw	r2,-4(fp)

  return active;
   40184:	e0bfff17 	ldw	r2,-4(fp)
   40188:	00000706 	br	401a8 <alt_irq_handler+0xac>
      }
      mask <<= 1;
   4018c:	e0bffc17 	ldw	r2,-16(fp)
   40190:	1085883a 	add	r2,r2,r2
   40194:	e0bffc15 	stw	r2,-16(fp)
      i++;
   40198:	e0bffd17 	ldw	r2,-12(fp)
   4019c:	10800044 	addi	r2,r2,1
   401a0:	e0bffd15 	stw	r2,-12(fp)

    } while (1);
   401a4:	003fe106 	br	4012c <__alt_data_end+0xfffca5cc>

    active = alt_irq_pending ();
   401a8:	e0bffb15 	stw	r2,-20(fp)
    
  } while (active);
   401ac:	e0bffb17 	ldw	r2,-20(fp)
   401b0:	103fdb1e 	bne	r2,zero,40120 <__alt_data_end+0xfffca5c0>

  /*
   * Notify the operating system that interrupt processing is complete.
   */ 

  ALT_OS_INT_EXIT();
   401b4:	0044c900 	call	44c90 <OSIntExit>
}
   401b8:	e037883a 	mov	sp,fp
   401bc:	dfc00117 	ldw	ra,4(sp)
   401c0:	df000017 	ldw	fp,0(sp)
   401c4:	dec00204 	addi	sp,sp,8
   401c8:	f800283a 	ret

000401cc <alt_instruction_exception_entry>:
 * that handler if it has been registered. Absent a handler, it will
 * break break or hang as discussed below.
 */
int 
alt_instruction_exception_entry (alt_u32 exception_pc)
{
   401cc:	defffb04 	addi	sp,sp,-20
   401d0:	dfc00415 	stw	ra,16(sp)
   401d4:	df000315 	stw	fp,12(sp)
   401d8:	df000304 	addi	fp,sp,12
   401dc:	e13fff15 	stw	r4,-4(fp)
  cause = ( (cause & NIOS2_EXCEPTION_REG_CAUSE_MASK) >>
              NIOS2_EXCEPTION_REG_CAUSE_OFST );

  NIOS2_READ_BADADDR(badaddr);
#else
  cause = NIOS2_EXCEPTION_CAUSE_NOT_PRESENT;
   401e0:	00bfffc4 	movi	r2,-1
   401e4:	e0bffd15 	stw	r2,-12(fp)
  badaddr = 0;
   401e8:	e03ffe15 	stw	zero,-8(fp)
#endif /* NIOS2_HAS_EXTRA_EXCEPTION_INFO */

  if(alt_instruction_exception_handler) {
   401ec:	d0a74117 	ldw	r2,-25340(gp)
   401f0:	10000726 	beq	r2,zero,40210 <alt_instruction_exception_entry+0x44>
     * Call handler. Its return value indicates whether the exception-causing
     * instruction should be re-issued. The code that called us,
     * alt_eceptions_entry.S, will look at this value and adjust the ea
     * register as necessary
     */
    return alt_instruction_exception_handler(cause, exception_pc, badaddr);
   401f4:	d0a74117 	ldw	r2,-25340(gp)
   401f8:	e0fffd17 	ldw	r3,-12(fp)
   401fc:	1809883a 	mov	r4,r3
   40200:	e17fff17 	ldw	r5,-4(fp)
   40204:	e1bffe17 	ldw	r6,-8(fp)
   40208:	103ee83a 	callr	r2
   4020c:	00000206 	br	40218 <alt_instruction_exception_entry+0x4c>
   *    (a peripheral which negates its interrupt output before its
   *    interrupt handler has been executed will cause spurious interrupts)
   */
  else {
#ifdef NIOS2_HAS_DEBUG_STUB
    NIOS2_BREAK();
   40210:	003da03a 	break	0
      ;
#endif /* NIOS2_HAS_DEBUG_STUB */
  }

  /* We should not get here. Remove compiler warning. */
  return NIOS2_EXCEPTION_RETURN_REISSUE_INST;
   40214:	0005883a 	mov	r2,zero
}
   40218:	e037883a 	mov	sp,fp
   4021c:	dfc00117 	ldw	ra,4(sp)
   40220:	df000017 	ldw	fp,0(sp)
   40224:	dec00204 	addi	sp,sp,8
   40228:	f800283a 	ret

Disassembly of section .text:

0004022c <_start>:

    /*
     * Now that the caches are initialized, set up the stack pointer and global pointer.
     * The values provided by the linker are assumed to be correctly aligned.
     */
    movhi sp, %hi(__alt_stack_pointer)
   4022c:	06c001f4 	movhi	sp,7
    ori sp, sp, %lo(__alt_stack_pointer)
   40230:	ded6d814 	ori	sp,sp,23392
    movhi gp, %hi(_gp)
   40234:	06800174 	movhi	gp,5
    ori gp, gp, %lo(_gp)
   40238:	d6a3eb14 	ori	gp,gp,36780
 */
#ifndef ALT_SIM_OPTIMIZE
    /* Log that the BSS is about to be cleared. */
    ALT_LOG_PUTS(alt_log_msg_bss)

    movhi r2, %hi(__bss_start)
   4023c:	00800174 	movhi	r2,5
    ori r2, r2, %lo(__bss_start)
   40240:	108b0914 	ori	r2,r2,11300

    movhi r3, %hi(__bss_end)
   40244:	00c00174 	movhi	r3,5
    ori r3, r3, %lo(__bss_end)
   40248:	18f00014 	ori	r3,r3,49152

    beq r2, r3, 1f
   4024c:	10c00326 	beq	r2,r3,4025c <_start+0x30>

0:
    stw zero, (r2)
   40250:	10000015 	stw	zero,0(r2)
    addi r2, r2, 4
   40254:	10800104 	addi	r2,r2,4
    bltu r2, r3, 0b
   40258:	10fffd36 	bltu	r2,r3,40250 <__alt_data_end+0xfffca6f0>
     * section aren't defined until alt_load() has been called).
     */
    mov   et, zero
#endif

    call alt_load
   4025c:	00439f40 	call	439f4 <alt_load>

    /* Log that alt_main is about to be called. */
    ALT_LOG_PUTS(alt_log_msg_alt_main)

    /* Call the C entry point. It should never return. */
    call alt_main
   40260:	0043ba00 	call	43ba0 <alt_main>

00040264 <alt_after_alt_main>:

    /* Wait in infinite loop in case alt_main does return. */
alt_after_alt_main:
    br alt_after_alt_main
   40264:	003fff06 	br	40264 <__alt_data_end+0xfffca704>

00040268 <play_tone>:

#define TASK1_PRIORITY      1
#define TASK2_PRIORITY      2
#define LEDS_PRIORITY       3

void play_tone(int nota, int time_ms){
   40268:	defffc04 	addi	sp,sp,-16
   4026c:	dfc00315 	stw	ra,12(sp)
   40270:	df000215 	stw	fp,8(sp)
   40274:	df000204 	addi	fp,sp,8
   40278:	e13ffe15 	stw	r4,-8(fp)
   4027c:	e17fff15 	stw	r5,-4(fp)
	IOWR(DIV_FREQ_BASE,0,nota);
   40280:	00841c04 	movi	r2,4208
   40284:	e0fffe17 	ldw	r3,-8(fp)
   40288:	10c00035 	stwio	r3,0(r2)
	OSTimeDlyHMSM(0, 0, 0, time_ms*2);
   4028c:	e0bfff17 	ldw	r2,-4(fp)
   40290:	1085883a 	add	r2,r2,r2
   40294:	10bfffcc 	andi	r2,r2,65535
   40298:	0009883a 	mov	r4,zero
   4029c:	000b883a 	mov	r5,zero
   402a0:	000d883a 	mov	r6,zero
   402a4:	100f883a 	mov	r7,r2
   402a8:	004bbc00 	call	4bbc0 <OSTimeDlyHMSM>
	IOWR(DIV_FREQ_BASE,0,silence);
   402ac:	00c00044 	movi	r3,1
   402b0:	00841c04 	movi	r2,4208
   402b4:	10c00035 	stwio	r3,0(r2)
	OSTimeDlyHMSM(0, 0, 0, 10);
   402b8:	0009883a 	mov	r4,zero
   402bc:	000b883a 	mov	r5,zero
   402c0:	000d883a 	mov	r6,zero
   402c4:	01c00284 	movi	r7,10
   402c8:	004bbc00 	call	4bbc0 <OSTimeDlyHMSM>
}
   402cc:	e037883a 	mov	sp,fp
   402d0:	dfc00117 	ldw	ra,4(sp)
   402d4:	df000017 	ldw	fp,0(sp)
   402d8:	dec00204 	addi	sp,sp,8
   402dc:	f800283a 	ret

000402e0 <play_tone1>:
void play_tone1(int nota, int time_ms){
   402e0:	defffc04 	addi	sp,sp,-16
   402e4:	dfc00315 	stw	ra,12(sp)
   402e8:	df000215 	stw	fp,8(sp)
   402ec:	df000204 	addi	fp,sp,8
   402f0:	e13ffe15 	stw	r4,-8(fp)
   402f4:	e17fff15 	stw	r5,-4(fp)
	IOWR(DIV_FREQ1_BASE,0,nota);
   402f8:	00841804 	movi	r2,4192
   402fc:	e0fffe17 	ldw	r3,-8(fp)
   40300:	10c00035 	stwio	r3,0(r2)
	OSTimeDlyHMSM(0, 0, 0, time_ms*2);
   40304:	e0bfff17 	ldw	r2,-4(fp)
   40308:	1085883a 	add	r2,r2,r2
   4030c:	10bfffcc 	andi	r2,r2,65535
   40310:	0009883a 	mov	r4,zero
   40314:	000b883a 	mov	r5,zero
   40318:	000d883a 	mov	r6,zero
   4031c:	100f883a 	mov	r7,r2
   40320:	004bbc00 	call	4bbc0 <OSTimeDlyHMSM>
	IOWR(DIV_FREQ1_BASE,0,silence);
   40324:	00c00044 	movi	r3,1
   40328:	00841804 	movi	r2,4192
   4032c:	10c00035 	stwio	r3,0(r2)
	OSTimeDlyHMSM(0, 0, 0, 10);
   40330:	0009883a 	mov	r4,zero
   40334:	000b883a 	mov	r5,zero
   40338:	000d883a 	mov	r6,zero
   4033c:	01c00284 	movi	r7,10
   40340:	004bbc00 	call	4bbc0 <OSTimeDlyHMSM>
}
   40344:	e037883a 	mov	sp,fp
   40348:	dfc00117 	ldw	ra,4(sp)
   4034c:	df000017 	ldw	fp,0(sp)
   40350:	dec00204 	addi	sp,sp,8
   40354:	f800283a 	ret

00040358 <task1>:
/* Prints "Hello World" and sleeps for three seconds */
void task1(void* pdata)
{
   40358:	defffb04 	addi	sp,sp,-20
   4035c:	dfc00415 	stw	ra,16(sp)
   40360:	df000315 	stw	fp,12(sp)
   40364:	df000304 	addi	fp,sp,12
   40368:	e13fff15 	stw	r4,-4(fp)
	unsigned char counter=0;
   4036c:	e03ffd05 	stb	zero,-12(fp)
	  while (1)
	  {
		  int est= IORD(SW_BASE,0);
   40370:	00842404 	movi	r2,4240
   40374:	10800037 	ldwio	r2,0(r2)
   40378:	e0bffe15 	stw	r2,-8(fp)
		//  counter= IORD(LEDS_BASE,0);
		  if(est==0){
   4037c:	e0bffe17 	ldw	r2,-8(fp)
   40380:	10000f1e 	bne	r2,zero,403c0 <task1+0x68>
			printf("Hola led ++\n");
   40384:	01000174 	movhi	r4,5
   40388:	213cc804 	addi	r4,r4,-3296
   4038c:	0040ba80 	call	40ba8 <puts>
			IOWR(LEDS_BASE,0,counter);
   40390:	e0fffd03 	ldbu	r3,-12(fp)
   40394:	00842004 	movi	r2,4224
   40398:	10c00035 	stwio	r3,0(r2)
			counter++;
   4039c:	e0bffd03 	ldbu	r2,-12(fp)
   403a0:	10800044 	addi	r2,r2,1
   403a4:	e0bffd05 	stb	r2,-12(fp)
			OSTimeDlyHMSM(0, 0, 0, 100);
   403a8:	0009883a 	mov	r4,zero
   403ac:	000b883a 	mov	r5,zero
   403b0:	000d883a 	mov	r6,zero
   403b4:	01c01904 	movi	r7,100
   403b8:	004bbc00 	call	4bbc0 <OSTimeDlyHMSM>
   403bc:	00000e06 	br	403f8 <task1+0xa0>
		  }
		  else{
			printf("Hola led --\n");
   403c0:	01000174 	movhi	r4,5
   403c4:	213ccb04 	addi	r4,r4,-3284
   403c8:	0040ba80 	call	40ba8 <puts>
			IOWR(LEDS_BASE,0,counter);
   403cc:	e0fffd03 	ldbu	r3,-12(fp)
   403d0:	00842004 	movi	r2,4224
   403d4:	10c00035 	stwio	r3,0(r2)
			counter--;
   403d8:	e0bffd03 	ldbu	r2,-12(fp)
   403dc:	10bfffc4 	addi	r2,r2,-1
   403e0:	e0bffd05 	stb	r2,-12(fp)
			OSTimeDlyHMSM(0, 0, 0, 100);
   403e4:	0009883a 	mov	r4,zero
   403e8:	000b883a 	mov	r5,zero
   403ec:	000d883a 	mov	r6,zero
   403f0:	01c01904 	movi	r7,100
   403f4:	004bbc00 	call	4bbc0 <OSTimeDlyHMSM>

		  }
	  }
   403f8:	003fdd06 	br	40370 <__alt_data_end+0xfffca810>

000403fc <task2>:
}
/* Prints "Hello World" and sleeps for three seconds */
void task2(void* pdata)
{
   403fc:	defffd04 	addi	sp,sp,-12
   40400:	dfc00215 	stw	ra,8(sp)
   40404:	df000115 	stw	fp,4(sp)
   40408:	df000104 	addi	fp,sp,4
   4040c:	e13fff15 	stw	r4,-4(fp)

		  while (1)
		  {


			  play_tone(la, 500);
   40410:	01377c54 	movui	r4,56817
   40414:	01407d04 	movi	r5,500
   40418:	00402680 	call	40268 <play_tone>
			  	play_tone(la, 500);
   4041c:	01377c54 	movui	r4,56817
   40420:	01407d04 	movi	r5,500
   40424:	00402680 	call	40268 <play_tone>
			  	play_tone(la, 500);
   40428:	01377c54 	movui	r4,56817
   4042c:	01407d04 	movi	r5,500
   40430:	00402680 	call	40268 <play_tone>
			  	play_tone(fa, 350);
   40434:	01000074 	movhi	r4,1
   40438:	2105e844 	addi	r4,r4,6049
   4043c:	01405784 	movi	r5,350
   40440:	00402680 	call	40268 <play_tone>
			  	play_tone(doh, 150);
   40444:	012eabd4 	movui	r4,47791
   40448:	01402584 	movi	r5,150
   4044c:	00402680 	call	40268 <play_tone>

			  	play_tone(la, 500);
   40450:	01377c54 	movui	r4,56817
   40454:	01407d04 	movi	r5,500
   40458:	00402680 	call	40268 <play_tone>
			  	play_tone(fa, 350);
   4045c:	01000074 	movhi	r4,1
   40460:	2105e844 	addi	r4,r4,6049
   40464:	01405784 	movi	r5,350
   40468:	00402680 	call	40268 <play_tone>
			  	play_tone(doh, 150);
   4046c:	012eabd4 	movui	r4,47791
   40470:	01402584 	movi	r5,150
   40474:	00402680 	call	40268 <play_tone>
			  	play_tone(la, 1000);
   40478:	01377c54 	movui	r4,56817
   4047c:	0140fa04 	movi	r5,1000
   40480:	00402680 	call	40268 <play_tone>
			  	//first bi

			  	play_tone(mih, 500);
   40484:	01250bd4 	movui	r4,37935
   40488:	01407d04 	movi	r5,500
   4048c:	00402680 	call	40268 <play_tone>
			  	play_tone(mih, 500);
   40490:	01250bd4 	movui	r4,37935
   40494:	01407d04 	movi	r5,500
   40498:	00402680 	call	40268 <play_tone>
			  	play_tone(mih, 500);
   4049c:	01250bd4 	movui	r4,37935
   404a0:	01407d04 	movi	r5,500
   404a4:	00402680 	call	40268 <play_tone>
			  	play_tone(fah, 350);
   404a8:	0122f9d4 	movui	r4,35815
   404ac:	01405784 	movi	r5,350
   404b0:	00402680 	call	40268 <play_tone>
			  	play_tone(doh, 150);
   404b4:	012eabd4 	movui	r4,47791
   404b8:	01402584 	movi	r5,150
   404bc:	00402680 	call	40268 <play_tone>

			  	play_tone(sols, 500);
   404c0:	013ad194 	movui	r4,60230
   404c4:	01407d04 	movi	r5,500
   404c8:	00402680 	call	40268 <play_tone>
			  	play_tone(fa, 350);
   404cc:	01000074 	movhi	r4,1
   404d0:	2105e844 	addi	r4,r4,6049
   404d4:	01405784 	movi	r5,350
   404d8:	00402680 	call	40268 <play_tone>
			  	play_tone(doh, 150);
   404dc:	012eabd4 	movui	r4,47791
   404e0:	01402584 	movi	r5,150
   404e4:	00402680 	call	40268 <play_tone>
			  	play_tone(la, 1000);
   404e8:	01377c54 	movui	r4,56817
   404ec:	0140fa04 	movi	r5,1000
   404f0:	00402680 	call	40268 <play_tone>
			  	//second b..

			  	play_tone(lah, 500);
   404f4:	011bbe04 	movi	r4,28408
   404f8:	01407d04 	movi	r5,500
   404fc:	00402680 	call	40268 <play_tone>
			  	play_tone(la, 350);
   40500:	01377c54 	movui	r4,56817
   40504:	01405784 	movi	r5,350
   40508:	00402680 	call	40268 <play_tone>
			  	play_tone(la, 150);
   4050c:	01377c54 	movui	r4,56817
   40510:	01402584 	movi	r5,150
   40514:	00402680 	call	40268 <play_tone>
			  	play_tone(lah, 500);
   40518:	011bbe04 	movi	r4,28408
   4051c:	01407d04 	movi	r5,500
   40520:	00402680 	call	40268 <play_tone>
			  	play_tone(solsh, 250);
   40524:	011d69c4 	movi	r4,30119
   40528:	01403e84 	movi	r5,250
   4052c:	00402680 	call	40268 <play_tone>
			  	play_tone(solh, 250);
   40530:	011f2384 	movi	r4,31886
   40534:	01403e84 	movi	r5,250
   40538:	00402680 	call	40268 <play_tone>

			  	play_tone(fash, 125);
   4053c:	0120fd94 	movui	r4,33782
   40540:	01401f44 	movi	r5,125
   40544:	00402680 	call	40268 <play_tone>
			  	play_tone(fah, 125);
   40548:	0122f9d4 	movui	r4,35815
   4054c:	01401f44 	movi	r5,125
   40550:	00402680 	call	40268 <play_tone>
			  	play_tone(fash, 250);
   40554:	0120fd94 	movui	r4,33782
   40558:	01403e84 	movi	r5,250
   4055c:	00402680 	call	40268 <play_tone>
			  	play_tone(silence,250);
   40560:	01000044 	movi	r4,1
   40564:	01403e84 	movi	r5,250
   40568:	00402680 	call	40268 <play_tone>
			  	play_tone(las, 250);
   4056c:	0135a5d4 	movui	r4,54935
   40570:	01403e84 	movi	r5,250
   40574:	00402680 	call	40268 <play_tone>
			  	play_tone(resh, 500);
   40578:	01273fd4 	movui	r4,40191
   4057c:	01407d04 	movi	r5,500
   40580:	00402680 	call	40268 <play_tone>
			  	play_tone(reh, 250);
   40584:	01250bd4 	movui	r4,37935
   40588:	01403e84 	movi	r5,250
   4058c:	00402680 	call	40268 <play_tone>
			  	play_tone(dosh, 250);
   40590:	012c0f14 	movui	r4,45116
   40594:	01403e84 	movi	r5,250
   40598:	00402680 	call	40268 <play_tone>
			  	//start of the interesting bit

			  	play_tone(doh, 125);
   4059c:	012eabd4 	movui	r4,47791
   405a0:	01401f44 	movi	r5,125
   405a4:	00402680 	call	40268 <play_tone>
			  	play_tone(si, 125);
   405a8:	01316ed4 	movui	r4,50619
   405ac:	01401f44 	movi	r5,125
   405b0:	00402680 	call	40268 <play_tone>
			  	play_tone(doh, 250);
   405b4:	012eabd4 	movui	r4,47791
   405b8:	01403e84 	movi	r5,250
   405bc:	00402680 	call	40268 <play_tone>
			  	play_tone(silence,250);
   405c0:	01000044 	movi	r4,1
   405c4:	01403e84 	movi	r5,250
   405c8:	00402680 	call	40268 <play_tone>
			  	play_tone(fa, 125);
   405cc:	01000074 	movhi	r4,1
   405d0:	2105e844 	addi	r4,r4,6049
   405d4:	01401f44 	movi	r5,125
   405d8:	00402680 	call	40268 <play_tone>
			  	play_tone(sols, 500);
   405dc:	013ad194 	movui	r4,60230
   405e0:	01407d04 	movi	r5,500
   405e4:	00402680 	call	40268 <play_tone>
			  	play_tone(fa, 375);
   405e8:	01000074 	movhi	r4,1
   405ec:	2105e844 	addi	r4,r4,6049
   405f0:	01405dc4 	movi	r5,375
   405f4:	00402680 	call	40268 <play_tone>
			  	play_tone(la, 125);
   405f8:	01377c54 	movui	r4,56817
   405fc:	01401f44 	movi	r5,125
   40600:	00402680 	call	40268 <play_tone>

			  	play_tone(doh, 500);
   40604:	012eabd4 	movui	r4,47791
   40608:	01407d04 	movi	r5,500
   4060c:	00402680 	call	40268 <play_tone>
			  	play_tone(la, 375);
   40610:	01377c54 	movui	r4,56817
   40614:	01405dc4 	movi	r5,375
   40618:	00402680 	call	40268 <play_tone>
			  	play_tone(doh, 125);
   4061c:	012eabd4 	movui	r4,47791
   40620:	01401f44 	movi	r5,125
   40624:	00402680 	call	40268 <play_tone>
			  	play_tone(mih, 1000);
   40628:	01250bd4 	movui	r4,37935
   4062c:	0140fa04 	movi	r5,1000
   40630:	00402680 	call	40268 <play_tone>
			  	//more interesting stuff (this doesn't quite get it right somehow)

			  	play_tone(lah, 500);
   40634:	011bbe04 	movi	r4,28408
   40638:	01407d04 	movi	r5,500
   4063c:	00402680 	call	40268 <play_tone>
			  	play_tone(la, 350);
   40640:	01377c54 	movui	r4,56817
   40644:	01405784 	movi	r5,350
   40648:	00402680 	call	40268 <play_tone>
			  	play_tone(la, 150);
   4064c:	01377c54 	movui	r4,56817
   40650:	01402584 	movi	r5,150
   40654:	00402680 	call	40268 <play_tone>
			  	play_tone(lah, 500);
   40658:	011bbe04 	movi	r4,28408
   4065c:	01407d04 	movi	r5,500
   40660:	00402680 	call	40268 <play_tone>
			  	play_tone(solsh, 250);
   40664:	011d69c4 	movi	r4,30119
   40668:	01403e84 	movi	r5,250
   4066c:	00402680 	call	40268 <play_tone>
			  	play_tone(solh, 250);
   40670:	011f2384 	movi	r4,31886
   40674:	01403e84 	movi	r5,250
   40678:	00402680 	call	40268 <play_tone>

			  	play_tone(fash, 125);
   4067c:	0120fd94 	movui	r4,33782
   40680:	01401f44 	movi	r5,125
   40684:	00402680 	call	40268 <play_tone>
			  	play_tone(fah, 125);
   40688:	0122f9d4 	movui	r4,35815
   4068c:	01401f44 	movi	r5,125
   40690:	00402680 	call	40268 <play_tone>
			  	play_tone(fash, 250);
   40694:	0120fd94 	movui	r4,33782
   40698:	01403e84 	movi	r5,250
   4069c:	00402680 	call	40268 <play_tone>
			  	play_tone(silence,250);
   406a0:	01000044 	movi	r4,1
   406a4:	01403e84 	movi	r5,250
   406a8:	00402680 	call	40268 <play_tone>
			  	play_tone(las, 250);
   406ac:	0135a5d4 	movui	r4,54935
   406b0:	01403e84 	movi	r5,250
   406b4:	00402680 	call	40268 <play_tone>
			  	play_tone(resh, 500);
   406b8:	01273fd4 	movui	r4,40191
   406bc:	01407d04 	movi	r5,500
   406c0:	00402680 	call	40268 <play_tone>
			  	play_tone(reh, 250);
   406c4:	01250bd4 	movui	r4,37935
   406c8:	01403e84 	movi	r5,250
   406cc:	00402680 	call	40268 <play_tone>
			  	play_tone(dosh, 250);
   406d0:	012c0f14 	movui	r4,45116
   406d4:	01403e84 	movi	r5,250
   406d8:	00402680 	call	40268 <play_tone>
			  	//repeat... repeat

			  	play_tone(doh, 125);
   406dc:	012eabd4 	movui	r4,47791
   406e0:	01401f44 	movi	r5,125
   406e4:	00402680 	call	40268 <play_tone>
			  	play_tone(si, 125);
   406e8:	01316ed4 	movui	r4,50619
   406ec:	01401f44 	movi	r5,125
   406f0:	00402680 	call	40268 <play_tone>
			  	play_tone(doh, 250);
   406f4:	012eabd4 	movui	r4,47791
   406f8:	01403e84 	movi	r5,250
   406fc:	00402680 	call	40268 <play_tone>
			  	play_tone(silence,250);
   40700:	01000044 	movi	r4,1
   40704:	01403e84 	movi	r5,250
   40708:	00402680 	call	40268 <play_tone>
			  	play_tone(fa, 250);
   4070c:	01000074 	movhi	r4,1
   40710:	2105e844 	addi	r4,r4,6049
   40714:	01403e84 	movi	r5,250
   40718:	00402680 	call	40268 <play_tone>
			  	play_tone(sols, 500);
   4071c:	013ad194 	movui	r4,60230
   40720:	01407d04 	movi	r5,500
   40724:	00402680 	call	40268 <play_tone>
			  	play_tone(fa, 375);
   40728:	01000074 	movhi	r4,1
   4072c:	2105e844 	addi	r4,r4,6049
   40730:	01405dc4 	movi	r5,375
   40734:	00402680 	call	40268 <play_tone>
			  	play_tone(doh, 125);
   40738:	012eabd4 	movui	r4,47791
   4073c:	01401f44 	movi	r5,125
   40740:	00402680 	call	40268 <play_tone>

			  	play_tone(la, 500);
   40744:	01377c54 	movui	r4,56817
   40748:	01407d04 	movi	r5,500
   4074c:	00402680 	call	40268 <play_tone>
			  	play_tone(fa, 375);
   40750:	01000074 	movhi	r4,1
   40754:	2105e844 	addi	r4,r4,6049
   40758:	01405dc4 	movi	r5,375
   4075c:	00402680 	call	40268 <play_tone>
			  	play_tone(do, 125);
   40760:	01000074 	movhi	r4,1
   40764:	211d5344 	addi	r4,r4,30029
   40768:	01401f44 	movi	r5,125
   4076c:	00402680 	call	40268 <play_tone>
			  	play_tone(la, 1000);
   40770:	01377c54 	movui	r4,56817
   40774:	0140fa04 	movi	r5,1000
   40778:	00402680 	call	40268 <play_tone>
			  	play_tone(silence,400);
   4077c:	01000044 	movi	r4,1
   40780:	01406404 	movi	r5,400
   40784:	00402680 	call	40268 <play_tone>
		  }
   40788:	003f2106 	br	40410 <__alt_data_end+0xfffca8b0>

0004078c <leds_task>:
}
void leds_task(void* pdata)
{
   4078c:	defffd04 	addi	sp,sp,-12
   40790:	dfc00215 	stw	ra,8(sp)
   40794:	df000115 	stw	fp,4(sp)
   40798:	df000104 	addi	fp,sp,4
   4079c:	e13fff15 	stw	r4,-4(fp)

  while (1)
  {
	    play_tone1(do,400);
   407a0:	01000074 	movhi	r4,1
   407a4:	211d5344 	addi	r4,r4,30029
   407a8:	01406404 	movi	r5,400
   407ac:	00402e00 	call	402e0 <play_tone1>
		play_tone1(fa,200);
   407b0:	01000074 	movhi	r4,1
   407b4:	2105e844 	addi	r4,r4,6049
   407b8:	01403204 	movi	r5,200
   407bc:	00402e00 	call	402e0 <play_tone1>
		play_tone1(fa,200);
   407c0:	01000074 	movhi	r4,1
   407c4:	2105e844 	addi	r4,r4,6049
   407c8:	01403204 	movi	r5,200
   407cc:	00402e00 	call	402e0 <play_tone1>
		play_tone1(fa,600);
   407d0:	01000074 	movhi	r4,1
   407d4:	2105e844 	addi	r4,r4,6049
   407d8:	01409604 	movi	r5,600
   407dc:	00402e00 	call	402e0 <play_tone1>
		play_tone1(sol,400);
   407e0:	013e47d4 	movui	r4,63775
   407e4:	01406404 	movi	r5,400
   407e8:	00402e00 	call	402e0 <play_tone1>
		play_tone1(la,200);
   407ec:	01377c54 	movui	r4,56817
   407f0:	01403204 	movi	r5,200
   407f4:	00402e00 	call	402e0 <play_tone1>
		play_tone1(la,200);
   407f8:	01377c54 	movui	r4,56817
   407fc:	01403204 	movi	r5,200
   40800:	00402e00 	call	402e0 <play_tone1>
		play_tone1(la,600);
   40804:	01377c54 	movui	r4,56817
   40808:	01409604 	movi	r5,600
   4080c:	00402e00 	call	402e0 <play_tone1>
		play_tone1(la,200);
   40810:	01377c54 	movui	r4,56817
   40814:	01403204 	movi	r5,200
   40818:	00402e00 	call	402e0 <play_tone1>
		play_tone1(sol,200);
   4081c:	013e47d4 	movui	r4,63775
   40820:	01403204 	movi	r5,200
   40824:	00402e00 	call	402e0 <play_tone1>
		play_tone1(sol,200);
   40828:	013e47d4 	movui	r4,63775
   4082c:	01403204 	movi	r5,200
   40830:	00402e00 	call	402e0 <play_tone1>
		play_tone1(si,600);
   40834:	01316ed4 	movui	r4,50619
   40838:	01409604 	movi	r5,600
   4083c:	00402e00 	call	402e0 <play_tone1>
		play_tone1(mi,400);
   40840:	01000074 	movhi	r4,1
   40844:	210a1084 	addi	r4,r4,10306
   40848:	01406404 	movi	r5,400
   4084c:	00402e00 	call	402e0 <play_tone1>
		play_tone1(sol,400);
   40850:	013e47d4 	movui	r4,63775
   40854:	01406404 	movi	r5,400
   40858:	00402e00 	call	402e0 <play_tone1>
		play_tone1(fa,1000);
   4085c:	01000074 	movhi	r4,1
   40860:	2105e844 	addi	r4,r4,6049
   40864:	0140fa04 	movi	r5,1000
   40868:	00402e00 	call	402e0 <play_tone1>
		play_tone1(do,400);
   4086c:	01000074 	movhi	r4,1
   40870:	211d5344 	addi	r4,r4,30029
   40874:	01406404 	movi	r5,400
   40878:	00402e00 	call	402e0 <play_tone1>
		play_tone1(fa,200);
   4087c:	01000074 	movhi	r4,1
   40880:	2105e844 	addi	r4,r4,6049
   40884:	01403204 	movi	r5,200
   40888:	00402e00 	call	402e0 <play_tone1>
		play_tone1(fa,200);
   4088c:	01000074 	movhi	r4,1
   40890:	2105e844 	addi	r4,r4,6049
   40894:	01403204 	movi	r5,200
   40898:	00402e00 	call	402e0 <play_tone1>
		play_tone1(fa,600);
   4089c:	01000074 	movhi	r4,1
   408a0:	2105e844 	addi	r4,r4,6049
   408a4:	01409604 	movi	r5,600
   408a8:	00402e00 	call	402e0 <play_tone1>
		play_tone1(sol,400);
   408ac:	013e47d4 	movui	r4,63775
   408b0:	01406404 	movi	r5,400
   408b4:	00402e00 	call	402e0 <play_tone1>
		play_tone1(la,200);
   408b8:	01377c54 	movui	r4,56817
   408bc:	01403204 	movi	r5,200
   408c0:	00402e00 	call	402e0 <play_tone1>
		play_tone1(la,200);
   408c4:	01377c54 	movui	r4,56817
   408c8:	01403204 	movi	r5,200
   408cc:	00402e00 	call	402e0 <play_tone1>
		play_tone1(la,600);
   408d0:	01377c54 	movui	r4,56817
   408d4:	01409604 	movi	r5,600
   408d8:	00402e00 	call	402e0 <play_tone1>
		play_tone1(la,200);
   408dc:	01377c54 	movui	r4,56817
   408e0:	01403204 	movi	r5,200
   408e4:	00402e00 	call	402e0 <play_tone1>
		play_tone1(sol,200);
   408e8:	013e47d4 	movui	r4,63775
   408ec:	01403204 	movi	r5,200
   408f0:	00402e00 	call	402e0 <play_tone1>
		play_tone1(la,200);
   408f4:	01377c54 	movui	r4,56817
   408f8:	01403204 	movi	r5,200
   408fc:	00402e00 	call	402e0 <play_tone1>
		play_tone1(si,600);
   40900:	01316ed4 	movui	r4,50619
   40904:	01409604 	movi	r5,600
   40908:	00402e00 	call	402e0 <play_tone1>
		play_tone1(mi,400);
   4090c:	01000074 	movhi	r4,1
   40910:	210a1084 	addi	r4,r4,10306
   40914:	01406404 	movi	r5,400
   40918:	00402e00 	call	402e0 <play_tone1>
		play_tone1(sol,400);
   4091c:	013e47d4 	movui	r4,63775
   40920:	01406404 	movi	r5,400
   40924:	00402e00 	call	402e0 <play_tone1>
		play_tone1(fa,1000);
   40928:	01000074 	movhi	r4,1
   4092c:	2105e844 	addi	r4,r4,6049
   40930:	0140fa04 	movi	r5,1000
   40934:	00402e00 	call	402e0 <play_tone1>
		//
		play_tone1(do,200);
   40938:	01000074 	movhi	r4,1
   4093c:	211d5344 	addi	r4,r4,30029
   40940:	01403204 	movi	r5,200
   40944:	00402e00 	call	402e0 <play_tone1>
		play_tone1(do,200);
   40948:	01000074 	movhi	r4,1
   4094c:	211d5344 	addi	r4,r4,30029
   40950:	01403204 	movi	r5,200
   40954:	00402e00 	call	402e0 <play_tone1>
		play_tone1(la,200);
   40958:	01377c54 	movui	r4,56817
   4095c:	01403204 	movi	r5,200
   40960:	00402e00 	call	402e0 <play_tone1>
		play_tone1(rem,400);
   40964:	01299154 	movui	r4,42565
   40968:	01406404 	movi	r5,400
   4096c:	00402e00 	call	402e0 <play_tone1>
		play_tone1(dom,200);
   40970:	012ea854 	movui	r4,47777
   40974:	01403204 	movi	r5,200
   40978:	00402e00 	call	402e0 <play_tone1>
		play_tone1(dom,200);
   4097c:	012ea854 	movui	r4,47777
   40980:	01403204 	movi	r5,200
   40984:	00402e00 	call	402e0 <play_tone1>
		play_tone1(si,200);
   40988:	01316ed4 	movui	r4,50619
   4098c:	01403204 	movi	r5,200
   40990:	00402e00 	call	402e0 <play_tone1>
		play_tone1(si,400);
   40994:	01316ed4 	movui	r4,50619
   40998:	01406404 	movi	r5,400
   4099c:	00402e00 	call	402e0 <play_tone1>
		play_tone1(si,200);
   409a0:	01316ed4 	movui	r4,50619
   409a4:	01403204 	movi	r5,200
   409a8:	00402e00 	call	402e0 <play_tone1>
		play_tone1(si,200);
   409ac:	01316ed4 	movui	r4,50619
   409b0:	01403204 	movi	r5,200
   409b4:	00402e00 	call	402e0 <play_tone1>
		play_tone1(sol,200);
   409b8:	013e47d4 	movui	r4,63775
   409bc:	01403204 	movi	r5,200
   409c0:	00402e00 	call	402e0 <play_tone1>
		play_tone1(dom,400);
   409c4:	012ea854 	movui	r4,47777
   409c8:	01406404 	movi	r5,400
   409cc:	00402e00 	call	402e0 <play_tone1>
		play_tone1(si,200);
   409d0:	01316ed4 	movui	r4,50619
   409d4:	01403204 	movi	r5,200
   409d8:	00402e00 	call	402e0 <play_tone1>
		play_tone1(si,200);
   409dc:	01316ed4 	movui	r4,50619
   409e0:	01403204 	movi	r5,200
   409e4:	00402e00 	call	402e0 <play_tone1>
		play_tone1(la,200);
   409e8:	01377c54 	movui	r4,56817
   409ec:	01403204 	movi	r5,200
   409f0:	00402e00 	call	402e0 <play_tone1>
		play_tone1(la,400);
   409f4:	01377c54 	movui	r4,56817
   409f8:	01406404 	movi	r5,400
   409fc:	00402e00 	call	402e0 <play_tone1>
  }
   40a00:	003f6706 	br	407a0 <__alt_data_end+0xfffcac40>

00040a04 <main>:
}
/* The main function creates two task and starts multi-tasking */
int main(void)
{
   40a04:	defff904 	addi	sp,sp,-28
   40a08:	dfc00615 	stw	ra,24(sp)
   40a0c:	df000515 	stw	fp,20(sp)
   40a10:	df000504 	addi	fp,sp,20
  
  OSTaskCreateExt(task1,
   40a14:	00800044 	movi	r2,1
   40a18:	d8800015 	stw	r2,0(sp)
   40a1c:	00800174 	movhi	r2,5
   40a20:	108b3704 	addi	r2,r2,11484
   40a24:	d8800115 	stw	r2,4(sp)
   40a28:	00820004 	movi	r2,2048
   40a2c:	d8800215 	stw	r2,8(sp)
   40a30:	d8000315 	stw	zero,12(sp)
   40a34:	d8000415 	stw	zero,16(sp)
   40a38:	01000134 	movhi	r4,4
   40a3c:	2100d604 	addi	r4,r4,856
   40a40:	000b883a 	mov	r5,zero
   40a44:	01800174 	movhi	r6,5
   40a48:	31933604 	addi	r6,r6,19672
   40a4c:	01c00044 	movi	r7,1
   40a50:	004a8800 	call	4a880 <OSTaskCreateExt>
                  TASK_STACKSIZE,
                  NULL,
                  0);
              
               
  OSTaskCreateExt(task2,
   40a54:	00800084 	movi	r2,2
   40a58:	d8800015 	stw	r2,0(sp)
   40a5c:	00800174 	movhi	r2,5
   40a60:	10933704 	addi	r2,r2,19676
   40a64:	d8800115 	stw	r2,4(sp)
   40a68:	00820004 	movi	r2,2048
   40a6c:	d8800215 	stw	r2,8(sp)
   40a70:	d8000315 	stw	zero,12(sp)
   40a74:	d8000415 	stw	zero,16(sp)
   40a78:	01000134 	movhi	r4,4
   40a7c:	2100ff04 	addi	r4,r4,1020
   40a80:	000b883a 	mov	r5,zero
   40a84:	01800174 	movhi	r6,5
   40a88:	319b3604 	addi	r6,r6,27864
   40a8c:	01c00084 	movi	r7,2
   40a90:	004a8800 	call	4a880 <OSTaskCreateExt>
                  TASK2_PRIORITY,
                  task2_stk,
                  TASK_STACKSIZE,
                  NULL,
                  0);
  OSTaskCreateExt(leds_task,
   40a94:	008000c4 	movi	r2,3
   40a98:	d8800015 	stw	r2,0(sp)
   40a9c:	00800174 	movhi	r2,5
   40aa0:	109b3704 	addi	r2,r2,27868
   40aa4:	d8800115 	stw	r2,4(sp)
   40aa8:	00820004 	movi	r2,2048
   40aac:	d8800215 	stw	r2,8(sp)
   40ab0:	d8000315 	stw	zero,12(sp)
   40ab4:	d8000415 	stw	zero,16(sp)
   40ab8:	01000134 	movhi	r4,4
   40abc:	2101e304 	addi	r4,r4,1932
   40ac0:	000b883a 	mov	r5,zero
   40ac4:	018001b4 	movhi	r6,6
   40ac8:	31a33604 	addi	r6,r6,-29480
   40acc:	01c000c4 	movi	r7,3
   40ad0:	004a8800 	call	4a880 <OSTaskCreateExt>
                   LEDS_PRIORITY,
                   leds_stk,
                   TASK_STACKSIZE,
                   NULL,
                   0);
  OSStart();
   40ad4:	0044ee40 	call	44ee4 <OSStart>
  return 0;
   40ad8:	0005883a 	mov	r2,zero
}
   40adc:	e037883a 	mov	sp,fp
   40ae0:	dfc00117 	ldw	ra,4(sp)
   40ae4:	df000017 	ldw	fp,0(sp)
   40ae8:	dec00204 	addi	sp,sp,8
   40aec:	f800283a 	ret

00040af0 <_puts_r>:
   40af0:	defff604 	addi	sp,sp,-40
   40af4:	dc000715 	stw	r16,28(sp)
   40af8:	2021883a 	mov	r16,r4
   40afc:	2809883a 	mov	r4,r5
   40b00:	dc400815 	stw	r17,32(sp)
   40b04:	dfc00915 	stw	ra,36(sp)
   40b08:	2823883a 	mov	r17,r5
   40b0c:	0040bbc0 	call	40bbc <strlen>
   40b10:	00c00174 	movhi	r3,5
   40b14:	18c3ec04 	addi	r3,r3,4016
   40b18:	18c00017 	ldw	r3,0(r3)
   40b1c:	11000044 	addi	r4,r2,1
   40b20:	d8800115 	stw	r2,4(sp)
   40b24:	18c00217 	ldw	r3,8(r3)
   40b28:	01400174 	movhi	r5,5
   40b2c:	297cce04 	addi	r5,r5,-3272
   40b30:	1880030b 	ldhu	r2,12(r3)
   40b34:	d9400215 	stw	r5,8(sp)
   40b38:	d9000615 	stw	r4,24(sp)
   40b3c:	01400044 	movi	r5,1
   40b40:	01000084 	movi	r4,2
   40b44:	d9000515 	stw	r4,20(sp)
   40b48:	dc400015 	stw	r17,0(sp)
   40b4c:	d9400315 	stw	r5,12(sp)
   40b50:	dec00415 	stw	sp,16(sp)
   40b54:	1108000c 	andi	r4,r2,8192
   40b58:	2000061e 	bne	r4,zero,40b74 <_puts_r+0x84>
   40b5c:	19401917 	ldw	r5,100(r3)
   40b60:	0137ffc4 	movi	r4,-8193
   40b64:	10880014 	ori	r2,r2,8192
   40b68:	2908703a 	and	r4,r5,r4
   40b6c:	1880030d 	sth	r2,12(r3)
   40b70:	19001915 	stw	r4,100(r3)
   40b74:	81400217 	ldw	r5,8(r16)
   40b78:	8009883a 	mov	r4,r16
   40b7c:	d9800404 	addi	r6,sp,16
   40b80:	0040c540 	call	40c54 <__sfvwrite_r>
   40b84:	1000061e 	bne	r2,zero,40ba0 <_puts_r+0xb0>
   40b88:	00800284 	movi	r2,10
   40b8c:	dfc00917 	ldw	ra,36(sp)
   40b90:	dc400817 	ldw	r17,32(sp)
   40b94:	dc000717 	ldw	r16,28(sp)
   40b98:	dec00a04 	addi	sp,sp,40
   40b9c:	f800283a 	ret
   40ba0:	00bfffc4 	movi	r2,-1
   40ba4:	003ff906 	br	40b8c <__alt_data_end+0xfffcb02c>

00040ba8 <puts>:
   40ba8:	00800174 	movhi	r2,5
   40bac:	1083ec04 	addi	r2,r2,4016
   40bb0:	200b883a 	mov	r5,r4
   40bb4:	11000017 	ldw	r4,0(r2)
   40bb8:	0040af01 	jmpi	40af0 <_puts_r>

00040bbc <strlen>:
   40bbc:	208000cc 	andi	r2,r4,3
   40bc0:	10002026 	beq	r2,zero,40c44 <strlen+0x88>
   40bc4:	20800007 	ldb	r2,0(r4)
   40bc8:	10002026 	beq	r2,zero,40c4c <strlen+0x90>
   40bcc:	2005883a 	mov	r2,r4
   40bd0:	00000206 	br	40bdc <strlen+0x20>
   40bd4:	10c00007 	ldb	r3,0(r2)
   40bd8:	18001826 	beq	r3,zero,40c3c <strlen+0x80>
   40bdc:	10800044 	addi	r2,r2,1
   40be0:	10c000cc 	andi	r3,r2,3
   40be4:	183ffb1e 	bne	r3,zero,40bd4 <__alt_data_end+0xfffcb074>
   40be8:	10c00017 	ldw	r3,0(r2)
   40bec:	01ffbff4 	movhi	r7,65279
   40bf0:	39ffbfc4 	addi	r7,r7,-257
   40bf4:	00ca303a 	nor	r5,zero,r3
   40bf8:	01a02074 	movhi	r6,32897
   40bfc:	19c7883a 	add	r3,r3,r7
   40c00:	31a02004 	addi	r6,r6,-32640
   40c04:	1946703a 	and	r3,r3,r5
   40c08:	1986703a 	and	r3,r3,r6
   40c0c:	1800091e 	bne	r3,zero,40c34 <strlen+0x78>
   40c10:	10800104 	addi	r2,r2,4
   40c14:	10c00017 	ldw	r3,0(r2)
   40c18:	19cb883a 	add	r5,r3,r7
   40c1c:	00c6303a 	nor	r3,zero,r3
   40c20:	28c6703a 	and	r3,r5,r3
   40c24:	1986703a 	and	r3,r3,r6
   40c28:	183ff926 	beq	r3,zero,40c10 <__alt_data_end+0xfffcb0b0>
   40c2c:	00000106 	br	40c34 <strlen+0x78>
   40c30:	10800044 	addi	r2,r2,1
   40c34:	10c00007 	ldb	r3,0(r2)
   40c38:	183ffd1e 	bne	r3,zero,40c30 <__alt_data_end+0xfffcb0d0>
   40c3c:	1105c83a 	sub	r2,r2,r4
   40c40:	f800283a 	ret
   40c44:	2005883a 	mov	r2,r4
   40c48:	003fe706 	br	40be8 <__alt_data_end+0xfffcb088>
   40c4c:	0005883a 	mov	r2,zero
   40c50:	f800283a 	ret

00040c54 <__sfvwrite_r>:
   40c54:	30800217 	ldw	r2,8(r6)
   40c58:	10004526 	beq	r2,zero,40d70 <__sfvwrite_r+0x11c>
   40c5c:	28c0030b 	ldhu	r3,12(r5)
   40c60:	defff404 	addi	sp,sp,-48
   40c64:	dd400715 	stw	r21,28(sp)
   40c68:	dcc00515 	stw	r19,20(sp)
   40c6c:	dc000215 	stw	r16,8(sp)
   40c70:	dfc00b15 	stw	ra,44(sp)
   40c74:	df000a15 	stw	fp,40(sp)
   40c78:	ddc00915 	stw	r23,36(sp)
   40c7c:	dd800815 	stw	r22,32(sp)
   40c80:	dd000615 	stw	r20,24(sp)
   40c84:	dc800415 	stw	r18,16(sp)
   40c88:	dc400315 	stw	r17,12(sp)
   40c8c:	1880020c 	andi	r2,r3,8
   40c90:	2821883a 	mov	r16,r5
   40c94:	202b883a 	mov	r21,r4
   40c98:	3027883a 	mov	r19,r6
   40c9c:	10002526 	beq	r2,zero,40d34 <__sfvwrite_r+0xe0>
   40ca0:	28800417 	ldw	r2,16(r5)
   40ca4:	10002326 	beq	r2,zero,40d34 <__sfvwrite_r+0xe0>
   40ca8:	1880008c 	andi	r2,r3,2
   40cac:	9c400017 	ldw	r17,0(r19)
   40cb0:	10003126 	beq	r2,zero,40d78 <__sfvwrite_r+0x124>
   40cb4:	0029883a 	mov	r20,zero
   40cb8:	0025883a 	mov	r18,zero
   40cbc:	05810004 	movi	r22,1024
   40cc0:	a00d883a 	mov	r6,r20
   40cc4:	a809883a 	mov	r4,r21
   40cc8:	90002526 	beq	r18,zero,40d60 <__sfvwrite_r+0x10c>
   40ccc:	900f883a 	mov	r7,r18
   40cd0:	81400717 	ldw	r5,28(r16)
   40cd4:	b480012e 	bgeu	r22,r18,40cdc <__sfvwrite_r+0x88>
   40cd8:	01c10004 	movi	r7,1024
   40cdc:	80800917 	ldw	r2,36(r16)
   40ce0:	103ee83a 	callr	r2
   40ce4:	0080510e 	bge	zero,r2,40e2c <__sfvwrite_r+0x1d8>
   40ce8:	98c00217 	ldw	r3,8(r19)
   40cec:	a0a9883a 	add	r20,r20,r2
   40cf0:	90a5c83a 	sub	r18,r18,r2
   40cf4:	1885c83a 	sub	r2,r3,r2
   40cf8:	98800215 	stw	r2,8(r19)
   40cfc:	103ff01e 	bne	r2,zero,40cc0 <__alt_data_end+0xfffcb160>
   40d00:	0005883a 	mov	r2,zero
   40d04:	dfc00b17 	ldw	ra,44(sp)
   40d08:	df000a17 	ldw	fp,40(sp)
   40d0c:	ddc00917 	ldw	r23,36(sp)
   40d10:	dd800817 	ldw	r22,32(sp)
   40d14:	dd400717 	ldw	r21,28(sp)
   40d18:	dd000617 	ldw	r20,24(sp)
   40d1c:	dcc00517 	ldw	r19,20(sp)
   40d20:	dc800417 	ldw	r18,16(sp)
   40d24:	dc400317 	ldw	r17,12(sp)
   40d28:	dc000217 	ldw	r16,8(sp)
   40d2c:	dec00c04 	addi	sp,sp,48
   40d30:	f800283a 	ret
   40d34:	a809883a 	mov	r4,r21
   40d38:	800b883a 	mov	r5,r16
   40d3c:	00422100 	call	42210 <__swsetup_r>
   40d40:	80c0030b 	ldhu	r3,12(r16)
   40d44:	103fd826 	beq	r2,zero,40ca8 <__alt_data_end+0xfffcb148>
   40d48:	18c01014 	ori	r3,r3,64
   40d4c:	80c0030d 	sth	r3,12(r16)
   40d50:	00c00244 	movi	r3,9
   40d54:	00bfffc4 	movi	r2,-1
   40d58:	a8c00015 	stw	r3,0(r21)
   40d5c:	003fe906 	br	40d04 <__alt_data_end+0xfffcb1a4>
   40d60:	8d000017 	ldw	r20,0(r17)
   40d64:	8c800117 	ldw	r18,4(r17)
   40d68:	8c400204 	addi	r17,r17,8
   40d6c:	003fd406 	br	40cc0 <__alt_data_end+0xfffcb160>
   40d70:	0005883a 	mov	r2,zero
   40d74:	f800283a 	ret
   40d78:	1880004c 	andi	r2,r3,1
   40d7c:	1000301e 	bne	r2,zero,40e40 <__sfvwrite_r+0x1ec>
   40d80:	002f883a 	mov	r23,zero
   40d84:	0025883a 	mov	r18,zero
   40d88:	90001c26 	beq	r18,zero,40dfc <__sfvwrite_r+0x1a8>
   40d8c:	1880800c 	andi	r2,r3,512
   40d90:	85000217 	ldw	r20,8(r16)
   40d94:	10006c26 	beq	r2,zero,40f48 <__sfvwrite_r+0x2f4>
   40d98:	a02d883a 	mov	r22,r20
   40d9c:	95008536 	bltu	r18,r20,40fb4 <__sfvwrite_r+0x360>
   40da0:	1881200c 	andi	r2,r3,1152
   40da4:	10009d1e 	bne	r2,zero,4101c <__sfvwrite_r+0x3c8>
   40da8:	81000017 	ldw	r4,0(r16)
   40dac:	a039883a 	mov	fp,r20
   40db0:	9029883a 	mov	r20,r18
   40db4:	b80b883a 	mov	r5,r23
   40db8:	b00d883a 	mov	r6,r22
   40dbc:	0041ac00 	call	41ac0 <memmove>
   40dc0:	80c00217 	ldw	r3,8(r16)
   40dc4:	81000017 	ldw	r4,0(r16)
   40dc8:	9005883a 	mov	r2,r18
   40dcc:	1f39c83a 	sub	fp,r3,fp
   40dd0:	258f883a 	add	r7,r4,r22
   40dd4:	87000215 	stw	fp,8(r16)
   40dd8:	81c00015 	stw	r7,0(r16)
   40ddc:	98c00217 	ldw	r3,8(r19)
   40de0:	b8af883a 	add	r23,r23,r2
   40de4:	90a5c83a 	sub	r18,r18,r2
   40de8:	1d05c83a 	sub	r2,r3,r20
   40dec:	98800215 	stw	r2,8(r19)
   40df0:	103fc326 	beq	r2,zero,40d00 <__alt_data_end+0xfffcb1a0>
   40df4:	80c0030b 	ldhu	r3,12(r16)
   40df8:	903fe41e 	bne	r18,zero,40d8c <__alt_data_end+0xfffcb22c>
   40dfc:	8dc00017 	ldw	r23,0(r17)
   40e00:	8c800117 	ldw	r18,4(r17)
   40e04:	8c400204 	addi	r17,r17,8
   40e08:	003fdf06 	br	40d88 <__alt_data_end+0xfffcb228>
   40e0c:	0041c1c0 	call	41c1c <_realloc_r>
   40e10:	102d883a 	mov	r22,r2
   40e14:	1000a01e 	bne	r2,zero,41098 <__sfvwrite_r+0x444>
   40e18:	81400417 	ldw	r5,16(r16)
   40e1c:	a809883a 	mov	r4,r21
   40e20:	0042a700 	call	42a70 <_free_r>
   40e24:	00800304 	movi	r2,12
   40e28:	a8800015 	stw	r2,0(r21)
   40e2c:	80c0030b 	ldhu	r3,12(r16)
   40e30:	00bfffc4 	movi	r2,-1
   40e34:	18c01014 	ori	r3,r3,64
   40e38:	80c0030d 	sth	r3,12(r16)
   40e3c:	003fb106 	br	40d04 <__alt_data_end+0xfffcb1a4>
   40e40:	0029883a 	mov	r20,zero
   40e44:	0011883a 	mov	r8,zero
   40e48:	0039883a 	mov	fp,zero
   40e4c:	0025883a 	mov	r18,zero
   40e50:	90001f26 	beq	r18,zero,40ed0 <__sfvwrite_r+0x27c>
   40e54:	40006826 	beq	r8,zero,40ff8 <__sfvwrite_r+0x3a4>
   40e58:	a02f883a 	mov	r23,r20
   40e5c:	9500012e 	bgeu	r18,r20,40e64 <__sfvwrite_r+0x210>
   40e60:	902f883a 	mov	r23,r18
   40e64:	81000017 	ldw	r4,0(r16)
   40e68:	80800417 	ldw	r2,16(r16)
   40e6c:	b82d883a 	mov	r22,r23
   40e70:	81800217 	ldw	r6,8(r16)
   40e74:	81c00517 	ldw	r7,20(r16)
   40e78:	1100022e 	bgeu	r2,r4,40e84 <__sfvwrite_r+0x230>
   40e7c:	31c7883a 	add	r3,r6,r7
   40e80:	1dc01816 	blt	r3,r23,40ee4 <__sfvwrite_r+0x290>
   40e84:	b9c03f16 	blt	r23,r7,40f84 <__sfvwrite_r+0x330>
   40e88:	80800917 	ldw	r2,36(r16)
   40e8c:	81400717 	ldw	r5,28(r16)
   40e90:	a809883a 	mov	r4,r21
   40e94:	da000115 	stw	r8,4(sp)
   40e98:	e00d883a 	mov	r6,fp
   40e9c:	103ee83a 	callr	r2
   40ea0:	102d883a 	mov	r22,r2
   40ea4:	da000117 	ldw	r8,4(sp)
   40ea8:	00bfe00e 	bge	zero,r2,40e2c <__alt_data_end+0xfffcb2cc>
   40eac:	a5a9c83a 	sub	r20,r20,r22
   40eb0:	a0001f26 	beq	r20,zero,40f30 <__sfvwrite_r+0x2dc>
   40eb4:	98800217 	ldw	r2,8(r19)
   40eb8:	e5b9883a 	add	fp,fp,r22
   40ebc:	95a5c83a 	sub	r18,r18,r22
   40ec0:	15adc83a 	sub	r22,r2,r22
   40ec4:	9d800215 	stw	r22,8(r19)
   40ec8:	b03f8d26 	beq	r22,zero,40d00 <__alt_data_end+0xfffcb1a0>
   40ecc:	903fe11e 	bne	r18,zero,40e54 <__alt_data_end+0xfffcb2f4>
   40ed0:	8f000017 	ldw	fp,0(r17)
   40ed4:	8c800117 	ldw	r18,4(r17)
   40ed8:	0011883a 	mov	r8,zero
   40edc:	8c400204 	addi	r17,r17,8
   40ee0:	003fdb06 	br	40e50 <__alt_data_end+0xfffcb2f0>
   40ee4:	180d883a 	mov	r6,r3
   40ee8:	e00b883a 	mov	r5,fp
   40eec:	da000115 	stw	r8,4(sp)
   40ef0:	d8c00015 	stw	r3,0(sp)
   40ef4:	0041ac00 	call	41ac0 <memmove>
   40ef8:	d8c00017 	ldw	r3,0(sp)
   40efc:	80800017 	ldw	r2,0(r16)
   40f00:	a809883a 	mov	r4,r21
   40f04:	800b883a 	mov	r5,r16
   40f08:	10c5883a 	add	r2,r2,r3
   40f0c:	80800015 	stw	r2,0(r16)
   40f10:	d8c00015 	stw	r3,0(sp)
   40f14:	00423400 	call	42340 <_fflush_r>
   40f18:	d8c00017 	ldw	r3,0(sp)
   40f1c:	da000117 	ldw	r8,4(sp)
   40f20:	103fc21e 	bne	r2,zero,40e2c <__alt_data_end+0xfffcb2cc>
   40f24:	182d883a 	mov	r22,r3
   40f28:	a5a9c83a 	sub	r20,r20,r22
   40f2c:	a03fe11e 	bne	r20,zero,40eb4 <__alt_data_end+0xfffcb354>
   40f30:	a809883a 	mov	r4,r21
   40f34:	800b883a 	mov	r5,r16
   40f38:	00423400 	call	42340 <_fflush_r>
   40f3c:	103fbb1e 	bne	r2,zero,40e2c <__alt_data_end+0xfffcb2cc>
   40f40:	0011883a 	mov	r8,zero
   40f44:	003fdb06 	br	40eb4 <__alt_data_end+0xfffcb354>
   40f48:	81000017 	ldw	r4,0(r16)
   40f4c:	80800417 	ldw	r2,16(r16)
   40f50:	1100012e 	bgeu	r2,r4,40f58 <__sfvwrite_r+0x304>
   40f54:	a4805a36 	bltu	r20,r18,410c0 <__sfvwrite_r+0x46c>
   40f58:	81c00517 	ldw	r7,20(r16)
   40f5c:	91c01a36 	bltu	r18,r7,40fc8 <__sfvwrite_r+0x374>
   40f60:	80800917 	ldw	r2,36(r16)
   40f64:	81400717 	ldw	r5,28(r16)
   40f68:	a809883a 	mov	r4,r21
   40f6c:	b80d883a 	mov	r6,r23
   40f70:	103ee83a 	callr	r2
   40f74:	1029883a 	mov	r20,r2
   40f78:	00bfac0e 	bge	zero,r2,40e2c <__alt_data_end+0xfffcb2cc>
   40f7c:	a005883a 	mov	r2,r20
   40f80:	003f9606 	br	40ddc <__alt_data_end+0xfffcb27c>
   40f84:	b80d883a 	mov	r6,r23
   40f88:	e00b883a 	mov	r5,fp
   40f8c:	da000115 	stw	r8,4(sp)
   40f90:	0041ac00 	call	41ac0 <memmove>
   40f94:	80800217 	ldw	r2,8(r16)
   40f98:	80c00017 	ldw	r3,0(r16)
   40f9c:	da000117 	ldw	r8,4(sp)
   40fa0:	15c5c83a 	sub	r2,r2,r23
   40fa4:	1def883a 	add	r23,r3,r23
   40fa8:	80800215 	stw	r2,8(r16)
   40fac:	85c00015 	stw	r23,0(r16)
   40fb0:	003fbe06 	br	40eac <__alt_data_end+0xfffcb34c>
   40fb4:	81000017 	ldw	r4,0(r16)
   40fb8:	9039883a 	mov	fp,r18
   40fbc:	9029883a 	mov	r20,r18
   40fc0:	902d883a 	mov	r22,r18
   40fc4:	003f7b06 	br	40db4 <__alt_data_end+0xfffcb254>
   40fc8:	b80b883a 	mov	r5,r23
   40fcc:	900d883a 	mov	r6,r18
   40fd0:	0041ac00 	call	41ac0 <memmove>
   40fd4:	80c00217 	ldw	r3,8(r16)
   40fd8:	80800017 	ldw	r2,0(r16)
   40fdc:	9029883a 	mov	r20,r18
   40fe0:	1c87c83a 	sub	r3,r3,r18
   40fe4:	1485883a 	add	r2,r2,r18
   40fe8:	80800015 	stw	r2,0(r16)
   40fec:	80c00215 	stw	r3,8(r16)
   40ff0:	9005883a 	mov	r2,r18
   40ff4:	003f7906 	br	40ddc <__alt_data_end+0xfffcb27c>
   40ff8:	e009883a 	mov	r4,fp
   40ffc:	01400284 	movi	r5,10
   41000:	900d883a 	mov	r6,r18
   41004:	00418a00 	call	418a0 <memchr>
   41008:	10003826 	beq	r2,zero,410ec <__sfvwrite_r+0x498>
   4100c:	10800044 	addi	r2,r2,1
   41010:	1729c83a 	sub	r20,r2,fp
   41014:	02000044 	movi	r8,1
   41018:	003f8f06 	br	40e58 <__alt_data_end+0xfffcb2f8>
   4101c:	80800517 	ldw	r2,20(r16)
   41020:	81400417 	ldw	r5,16(r16)
   41024:	87000017 	ldw	fp,0(r16)
   41028:	10a9883a 	add	r20,r2,r2
   4102c:	a085883a 	add	r2,r20,r2
   41030:	1028d7fa 	srli	r20,r2,31
   41034:	e179c83a 	sub	fp,fp,r5
   41038:	e1000044 	addi	r4,fp,1
   4103c:	a085883a 	add	r2,r20,r2
   41040:	1029d07a 	srai	r20,r2,1
   41044:	2485883a 	add	r2,r4,r18
   41048:	a00d883a 	mov	r6,r20
   4104c:	a080022e 	bgeu	r20,r2,41058 <__sfvwrite_r+0x404>
   41050:	1029883a 	mov	r20,r2
   41054:	100d883a 	mov	r6,r2
   41058:	18c1000c 	andi	r3,r3,1024
   4105c:	a809883a 	mov	r4,r21
   41060:	183f6a26 	beq	r3,zero,40e0c <__alt_data_end+0xfffcb2ac>
   41064:	300b883a 	mov	r5,r6
   41068:	00410f80 	call	410f8 <_malloc_r>
   4106c:	102d883a 	mov	r22,r2
   41070:	103f6c26 	beq	r2,zero,40e24 <__alt_data_end+0xfffcb2c4>
   41074:	81400417 	ldw	r5,16(r16)
   41078:	1009883a 	mov	r4,r2
   4107c:	e00d883a 	mov	r6,fp
   41080:	00419880 	call	41988 <memcpy>
   41084:	8080030b 	ldhu	r2,12(r16)
   41088:	00fedfc4 	movi	r3,-1153
   4108c:	10c4703a 	and	r2,r2,r3
   41090:	10802014 	ori	r2,r2,128
   41094:	8080030d 	sth	r2,12(r16)
   41098:	b709883a 	add	r4,r22,fp
   4109c:	a707c83a 	sub	r3,r20,fp
   410a0:	85800415 	stw	r22,16(r16)
   410a4:	85000515 	stw	r20,20(r16)
   410a8:	81000015 	stw	r4,0(r16)
   410ac:	9039883a 	mov	fp,r18
   410b0:	80c00215 	stw	r3,8(r16)
   410b4:	9029883a 	mov	r20,r18
   410b8:	902d883a 	mov	r22,r18
   410bc:	003f3d06 	br	40db4 <__alt_data_end+0xfffcb254>
   410c0:	b80b883a 	mov	r5,r23
   410c4:	a00d883a 	mov	r6,r20
   410c8:	0041ac00 	call	41ac0 <memmove>
   410cc:	80800017 	ldw	r2,0(r16)
   410d0:	a809883a 	mov	r4,r21
   410d4:	800b883a 	mov	r5,r16
   410d8:	1505883a 	add	r2,r2,r20
   410dc:	80800015 	stw	r2,0(r16)
   410e0:	00423400 	call	42340 <_fflush_r>
   410e4:	103fa526 	beq	r2,zero,40f7c <__alt_data_end+0xfffcb41c>
   410e8:	003f5006 	br	40e2c <__alt_data_end+0xfffcb2cc>
   410ec:	95000044 	addi	r20,r18,1
   410f0:	02000044 	movi	r8,1
   410f4:	003f5806 	br	40e58 <__alt_data_end+0xfffcb2f8>

000410f8 <_malloc_r>:
   410f8:	defff504 	addi	sp,sp,-44
   410fc:	dc800315 	stw	r18,12(sp)
   41100:	dfc00a15 	stw	ra,40(sp)
   41104:	df000915 	stw	fp,36(sp)
   41108:	ddc00815 	stw	r23,32(sp)
   4110c:	dd800715 	stw	r22,28(sp)
   41110:	dd400615 	stw	r21,24(sp)
   41114:	dd000515 	stw	r20,20(sp)
   41118:	dcc00415 	stw	r19,16(sp)
   4111c:	dc400215 	stw	r17,8(sp)
   41120:	dc000115 	stw	r16,4(sp)
   41124:	288002c4 	addi	r2,r5,11
   41128:	00c00584 	movi	r3,22
   4112c:	2025883a 	mov	r18,r4
   41130:	18802a2e 	bgeu	r3,r2,411dc <_malloc_r+0xe4>
   41134:	047ffe04 	movi	r17,-8
   41138:	1462703a 	and	r17,r2,r17
   4113c:	88009e16 	blt	r17,zero,413b8 <_malloc_r+0x2c0>
   41140:	89409d36 	bltu	r17,r5,413b8 <_malloc_r+0x2c0>
   41144:	00441640 	call	44164 <__malloc_lock>
   41148:	00807dc4 	movi	r2,503
   4114c:	14402736 	bltu	r2,r17,411ec <_malloc_r+0xf4>
   41150:	8806d0fa 	srli	r3,r17,3
   41154:	04c00174 	movhi	r19,5
   41158:	9cfe3004 	addi	r19,r19,-1856
   4115c:	18c5883a 	add	r2,r3,r3
   41160:	1085883a 	add	r2,r2,r2
   41164:	1085883a 	add	r2,r2,r2
   41168:	9885883a 	add	r2,r19,r2
   4116c:	14000317 	ldw	r16,12(r2)
   41170:	80814a26 	beq	r16,r2,4169c <_malloc_r+0x5a4>
   41174:	80c00117 	ldw	r3,4(r16)
   41178:	81000317 	ldw	r4,12(r16)
   4117c:	00bfff04 	movi	r2,-4
   41180:	1884703a 	and	r2,r3,r2
   41184:	81400217 	ldw	r5,8(r16)
   41188:	8085883a 	add	r2,r16,r2
   4118c:	10c00117 	ldw	r3,4(r2)
   41190:	29000315 	stw	r4,12(r5)
   41194:	21400215 	stw	r5,8(r4)
   41198:	18c00054 	ori	r3,r3,1
   4119c:	10c00115 	stw	r3,4(r2)
   411a0:	9009883a 	mov	r4,r18
   411a4:	00442840 	call	44284 <__malloc_unlock>
   411a8:	80800204 	addi	r2,r16,8
   411ac:	dfc00a17 	ldw	ra,40(sp)
   411b0:	df000917 	ldw	fp,36(sp)
   411b4:	ddc00817 	ldw	r23,32(sp)
   411b8:	dd800717 	ldw	r22,28(sp)
   411bc:	dd400617 	ldw	r21,24(sp)
   411c0:	dd000517 	ldw	r20,20(sp)
   411c4:	dcc00417 	ldw	r19,16(sp)
   411c8:	dc800317 	ldw	r18,12(sp)
   411cc:	dc400217 	ldw	r17,8(sp)
   411d0:	dc000117 	ldw	r16,4(sp)
   411d4:	dec00b04 	addi	sp,sp,44
   411d8:	f800283a 	ret
   411dc:	04400404 	movi	r17,16
   411e0:	89407536 	bltu	r17,r5,413b8 <_malloc_r+0x2c0>
   411e4:	00441640 	call	44164 <__malloc_lock>
   411e8:	003fd906 	br	41150 <__alt_data_end+0xfffcb5f0>
   411ec:	8806d27a 	srli	r3,r17,9
   411f0:	18007526 	beq	r3,zero,413c8 <_malloc_r+0x2d0>
   411f4:	00800104 	movi	r2,4
   411f8:	10c0ef36 	bltu	r2,r3,415b8 <_malloc_r+0x4c0>
   411fc:	8806d1ba 	srli	r3,r17,6
   41200:	19c00e04 	addi	r7,r3,56
   41204:	39cb883a 	add	r5,r7,r7
   41208:	04c00174 	movhi	r19,5
   4120c:	294b883a 	add	r5,r5,r5
   41210:	9cfe3004 	addi	r19,r19,-1856
   41214:	294b883a 	add	r5,r5,r5
   41218:	994b883a 	add	r5,r19,r5
   4121c:	2c000317 	ldw	r16,12(r5)
   41220:	2c000e26 	beq	r5,r16,4125c <_malloc_r+0x164>
   41224:	80800117 	ldw	r2,4(r16)
   41228:	01bfff04 	movi	r6,-4
   4122c:	010003c4 	movi	r4,15
   41230:	1184703a 	and	r2,r2,r6
   41234:	1447c83a 	sub	r3,r2,r17
   41238:	20c00716 	blt	r4,r3,41258 <_malloc_r+0x160>
   4123c:	1800650e 	bge	r3,zero,413d4 <_malloc_r+0x2dc>
   41240:	84000317 	ldw	r16,12(r16)
   41244:	2c000526 	beq	r5,r16,4125c <_malloc_r+0x164>
   41248:	80800117 	ldw	r2,4(r16)
   4124c:	1184703a 	and	r2,r2,r6
   41250:	1447c83a 	sub	r3,r2,r17
   41254:	20fff90e 	bge	r4,r3,4123c <__alt_data_end+0xfffcb6dc>
   41258:	39ffffc4 	addi	r7,r7,-1
   4125c:	38c00044 	addi	r3,r7,1
   41260:	01800174 	movhi	r6,5
   41264:	9c000417 	ldw	r16,16(r19)
   41268:	31be3004 	addi	r6,r6,-1856
   4126c:	32400204 	addi	r9,r6,8
   41270:	82410326 	beq	r16,r9,41680 <_malloc_r+0x588>
   41274:	81000117 	ldw	r4,4(r16)
   41278:	00bfff04 	movi	r2,-4
   4127c:	208e703a 	and	r7,r4,r2
   41280:	3c45c83a 	sub	r2,r7,r17
   41284:	010003c4 	movi	r4,15
   41288:	2080ee16 	blt	r4,r2,41644 <_malloc_r+0x54c>
   4128c:	32400515 	stw	r9,20(r6)
   41290:	32400415 	stw	r9,16(r6)
   41294:	1000510e 	bge	r2,zero,413dc <_malloc_r+0x2e4>
   41298:	00807fc4 	movi	r2,511
   4129c:	11c0ce36 	bltu	r2,r7,415d8 <_malloc_r+0x4e0>
   412a0:	3808d0fa 	srli	r4,r7,3
   412a4:	01c00044 	movi	r7,1
   412a8:	30800117 	ldw	r2,4(r6)
   412ac:	210b883a 	add	r5,r4,r4
   412b0:	294b883a 	add	r5,r5,r5
   412b4:	2009d0ba 	srai	r4,r4,2
   412b8:	294b883a 	add	r5,r5,r5
   412bc:	298b883a 	add	r5,r5,r6
   412c0:	2a000217 	ldw	r8,8(r5)
   412c4:	3908983a 	sll	r4,r7,r4
   412c8:	81400315 	stw	r5,12(r16)
   412cc:	82000215 	stw	r8,8(r16)
   412d0:	2088b03a 	or	r4,r4,r2
   412d4:	2c000215 	stw	r16,8(r5)
   412d8:	31000115 	stw	r4,4(r6)
   412dc:	44000315 	stw	r16,12(r8)
   412e0:	1805d0ba 	srai	r2,r3,2
   412e4:	01400044 	movi	r5,1
   412e8:	288a983a 	sll	r5,r5,r2
   412ec:	21404336 	bltu	r4,r5,413fc <_malloc_r+0x304>
   412f0:	2144703a 	and	r2,r4,r5
   412f4:	10000a1e 	bne	r2,zero,41320 <_malloc_r+0x228>
   412f8:	00bfff04 	movi	r2,-4
   412fc:	294b883a 	add	r5,r5,r5
   41300:	1886703a 	and	r3,r3,r2
   41304:	2144703a 	and	r2,r4,r5
   41308:	18c00104 	addi	r3,r3,4
   4130c:	1000041e 	bne	r2,zero,41320 <_malloc_r+0x228>
   41310:	294b883a 	add	r5,r5,r5
   41314:	2144703a 	and	r2,r4,r5
   41318:	18c00104 	addi	r3,r3,4
   4131c:	103ffc26 	beq	r2,zero,41310 <__alt_data_end+0xfffcb7b0>
   41320:	023fff04 	movi	r8,-4
   41324:	01c003c4 	movi	r7,15
   41328:	18c5883a 	add	r2,r3,r3
   4132c:	1085883a 	add	r2,r2,r2
   41330:	1085883a 	add	r2,r2,r2
   41334:	9895883a 	add	r10,r19,r2
   41338:	52c00304 	addi	r11,r10,12
   4133c:	1819883a 	mov	r12,r3
   41340:	5c000017 	ldw	r16,0(r11)
   41344:	59bffd04 	addi	r6,r11,-12
   41348:	8180041e 	bne	r16,r6,4135c <_malloc_r+0x264>
   4134c:	0000ce06 	br	41688 <_malloc_r+0x590>
   41350:	2000d70e 	bge	r4,zero,416b0 <_malloc_r+0x5b8>
   41354:	84000317 	ldw	r16,12(r16)
   41358:	8180cb26 	beq	r16,r6,41688 <_malloc_r+0x590>
   4135c:	80800117 	ldw	r2,4(r16)
   41360:	1204703a 	and	r2,r2,r8
   41364:	1449c83a 	sub	r4,r2,r17
   41368:	393ff90e 	bge	r7,r4,41350 <__alt_data_end+0xfffcb7f0>
   4136c:	80800317 	ldw	r2,12(r16)
   41370:	80c00217 	ldw	r3,8(r16)
   41374:	89400054 	ori	r5,r17,1
   41378:	81400115 	stw	r5,4(r16)
   4137c:	18800315 	stw	r2,12(r3)
   41380:	10c00215 	stw	r3,8(r2)
   41384:	8463883a 	add	r17,r16,r17
   41388:	9c400515 	stw	r17,20(r19)
   4138c:	9c400415 	stw	r17,16(r19)
   41390:	20800054 	ori	r2,r4,1
   41394:	88800115 	stw	r2,4(r17)
   41398:	8a400315 	stw	r9,12(r17)
   4139c:	8a400215 	stw	r9,8(r17)
   413a0:	8923883a 	add	r17,r17,r4
   413a4:	89000015 	stw	r4,0(r17)
   413a8:	9009883a 	mov	r4,r18
   413ac:	00442840 	call	44284 <__malloc_unlock>
   413b0:	80800204 	addi	r2,r16,8
   413b4:	003f7d06 	br	411ac <__alt_data_end+0xfffcb64c>
   413b8:	00800304 	movi	r2,12
   413bc:	90800015 	stw	r2,0(r18)
   413c0:	0005883a 	mov	r2,zero
   413c4:	003f7906 	br	411ac <__alt_data_end+0xfffcb64c>
   413c8:	01401f84 	movi	r5,126
   413cc:	01c00fc4 	movi	r7,63
   413d0:	003f8d06 	br	41208 <__alt_data_end+0xfffcb6a8>
   413d4:	81000317 	ldw	r4,12(r16)
   413d8:	003f6a06 	br	41184 <__alt_data_end+0xfffcb624>
   413dc:	81c5883a 	add	r2,r16,r7
   413e0:	10c00117 	ldw	r3,4(r2)
   413e4:	9009883a 	mov	r4,r18
   413e8:	18c00054 	ori	r3,r3,1
   413ec:	10c00115 	stw	r3,4(r2)
   413f0:	00442840 	call	44284 <__malloc_unlock>
   413f4:	80800204 	addi	r2,r16,8
   413f8:	003f6c06 	br	411ac <__alt_data_end+0xfffcb64c>
   413fc:	9c000217 	ldw	r16,8(r19)
   41400:	00bfff04 	movi	r2,-4
   41404:	85800117 	ldw	r22,4(r16)
   41408:	b0ac703a 	and	r22,r22,r2
   4140c:	b4400336 	bltu	r22,r17,4141c <_malloc_r+0x324>
   41410:	b445c83a 	sub	r2,r22,r17
   41414:	00c003c4 	movi	r3,15
   41418:	18805d16 	blt	r3,r2,41590 <_malloc_r+0x498>
   4141c:	05c00174 	movhi	r23,5
   41420:	00800174 	movhi	r2,5
   41424:	bdc3ed04 	addi	r23,r23,4020
   41428:	108b0b04 	addi	r2,r2,11308
   4142c:	15400017 	ldw	r21,0(r2)
   41430:	b9000017 	ldw	r4,0(r23)
   41434:	00ffffc4 	movi	r3,-1
   41438:	858d883a 	add	r6,r16,r22
   4143c:	8d6b883a 	add	r21,r17,r21
   41440:	20c0e426 	beq	r4,r3,417d4 <_malloc_r+0x6dc>
   41444:	ad4403c4 	addi	r21,r21,4111
   41448:	00fc0004 	movi	r3,-4096
   4144c:	a8ea703a 	and	r21,r21,r3
   41450:	9009883a 	mov	r4,r18
   41454:	a80b883a 	mov	r5,r21
   41458:	d9800015 	stw	r6,0(sp)
   4145c:	00421bc0 	call	421bc <_sbrk_r>
   41460:	00ffffc4 	movi	r3,-1
   41464:	1029883a 	mov	r20,r2
   41468:	d9800017 	ldw	r6,0(sp)
   4146c:	10c0a426 	beq	r2,r3,41700 <_malloc_r+0x608>
   41470:	1180a236 	bltu	r2,r6,416fc <_malloc_r+0x604>
   41474:	07000174 	movhi	fp,5
   41478:	e70b2d04 	addi	fp,fp,11444
   4147c:	e0c00017 	ldw	r3,0(fp)
   41480:	a8c7883a 	add	r3,r21,r3
   41484:	e0c00015 	stw	r3,0(fp)
   41488:	3500da26 	beq	r6,r20,417f4 <_malloc_r+0x6fc>
   4148c:	b9000017 	ldw	r4,0(r23)
   41490:	00bfffc4 	movi	r2,-1
   41494:	2080e426 	beq	r4,r2,41828 <_malloc_r+0x730>
   41498:	a185c83a 	sub	r2,r20,r6
   4149c:	1885883a 	add	r2,r3,r2
   414a0:	e0800015 	stw	r2,0(fp)
   414a4:	a0c001cc 	andi	r3,r20,7
   414a8:	1800b526 	beq	r3,zero,41780 <_malloc_r+0x688>
   414ac:	a0e9c83a 	sub	r20,r20,r3
   414b0:	00840204 	movi	r2,4104
   414b4:	a5000204 	addi	r20,r20,8
   414b8:	10c7c83a 	sub	r3,r2,r3
   414bc:	a545883a 	add	r2,r20,r21
   414c0:	1083ffcc 	andi	r2,r2,4095
   414c4:	18abc83a 	sub	r21,r3,r2
   414c8:	9009883a 	mov	r4,r18
   414cc:	a80b883a 	mov	r5,r21
   414d0:	00421bc0 	call	421bc <_sbrk_r>
   414d4:	00ffffc4 	movi	r3,-1
   414d8:	10c0d026 	beq	r2,r3,4181c <_malloc_r+0x724>
   414dc:	1507c83a 	sub	r3,r2,r20
   414e0:	a8c7883a 	add	r3,r21,r3
   414e4:	18c00054 	ori	r3,r3,1
   414e8:	e0800017 	ldw	r2,0(fp)
   414ec:	9d000215 	stw	r20,8(r19)
   414f0:	a0c00115 	stw	r3,4(r20)
   414f4:	a887883a 	add	r3,r21,r2
   414f8:	e0c00015 	stw	r3,0(fp)
   414fc:	84c00e26 	beq	r16,r19,41538 <_malloc_r+0x440>
   41500:	018003c4 	movi	r6,15
   41504:	3580a02e 	bgeu	r6,r22,41788 <_malloc_r+0x690>
   41508:	81400117 	ldw	r5,4(r16)
   4150c:	013ffe04 	movi	r4,-8
   41510:	b0bffd04 	addi	r2,r22,-12
   41514:	1104703a 	and	r2,r2,r4
   41518:	2900004c 	andi	r4,r5,1
   4151c:	1108b03a 	or	r4,r2,r4
   41520:	81000115 	stw	r4,4(r16)
   41524:	01400144 	movi	r5,5
   41528:	8089883a 	add	r4,r16,r2
   4152c:	21400115 	stw	r5,4(r4)
   41530:	21400215 	stw	r5,8(r4)
   41534:	3080c036 	bltu	r6,r2,41838 <_malloc_r+0x740>
   41538:	00800174 	movhi	r2,5
   4153c:	108b0a04 	addi	r2,r2,11304
   41540:	11000017 	ldw	r4,0(r2)
   41544:	20c0012e 	bgeu	r4,r3,4154c <_malloc_r+0x454>
   41548:	10c00015 	stw	r3,0(r2)
   4154c:	00800174 	movhi	r2,5
   41550:	108b0904 	addi	r2,r2,11300
   41554:	11000017 	ldw	r4,0(r2)
   41558:	9c000217 	ldw	r16,8(r19)
   4155c:	20c0012e 	bgeu	r4,r3,41564 <_malloc_r+0x46c>
   41560:	10c00015 	stw	r3,0(r2)
   41564:	80c00117 	ldw	r3,4(r16)
   41568:	00bfff04 	movi	r2,-4
   4156c:	1886703a 	and	r3,r3,r2
   41570:	1c45c83a 	sub	r2,r3,r17
   41574:	1c400236 	bltu	r3,r17,41580 <_malloc_r+0x488>
   41578:	00c003c4 	movi	r3,15
   4157c:	18800416 	blt	r3,r2,41590 <_malloc_r+0x498>
   41580:	9009883a 	mov	r4,r18
   41584:	00442840 	call	44284 <__malloc_unlock>
   41588:	0005883a 	mov	r2,zero
   4158c:	003f0706 	br	411ac <__alt_data_end+0xfffcb64c>
   41590:	88c00054 	ori	r3,r17,1
   41594:	80c00115 	stw	r3,4(r16)
   41598:	8463883a 	add	r17,r16,r17
   4159c:	10800054 	ori	r2,r2,1
   415a0:	9c400215 	stw	r17,8(r19)
   415a4:	88800115 	stw	r2,4(r17)
   415a8:	9009883a 	mov	r4,r18
   415ac:	00442840 	call	44284 <__malloc_unlock>
   415b0:	80800204 	addi	r2,r16,8
   415b4:	003efd06 	br	411ac <__alt_data_end+0xfffcb64c>
   415b8:	00800504 	movi	r2,20
   415bc:	10c0482e 	bgeu	r2,r3,416e0 <_malloc_r+0x5e8>
   415c0:	00801504 	movi	r2,84
   415c4:	10c06836 	bltu	r2,r3,41768 <_malloc_r+0x670>
   415c8:	8806d33a 	srli	r3,r17,12
   415cc:	19c01b84 	addi	r7,r3,110
   415d0:	39cb883a 	add	r5,r7,r7
   415d4:	003f0c06 	br	41208 <__alt_data_end+0xfffcb6a8>
   415d8:	3804d27a 	srli	r2,r7,9
   415dc:	01000104 	movi	r4,4
   415e0:	2080422e 	bgeu	r4,r2,416ec <_malloc_r+0x5f4>
   415e4:	01000504 	movi	r4,20
   415e8:	20807c36 	bltu	r4,r2,417dc <_malloc_r+0x6e4>
   415ec:	110016c4 	addi	r4,r2,91
   415f0:	210b883a 	add	r5,r4,r4
   415f4:	294b883a 	add	r5,r5,r5
   415f8:	294b883a 	add	r5,r5,r5
   415fc:	994b883a 	add	r5,r19,r5
   41600:	28800217 	ldw	r2,8(r5)
   41604:	02000174 	movhi	r8,5
   41608:	423e3004 	addi	r8,r8,-1856
   4160c:	11406326 	beq	r2,r5,4179c <_malloc_r+0x6a4>
   41610:	01bfff04 	movi	r6,-4
   41614:	11000117 	ldw	r4,4(r2)
   41618:	2188703a 	and	r4,r4,r6
   4161c:	3900022e 	bgeu	r7,r4,41628 <_malloc_r+0x530>
   41620:	10800217 	ldw	r2,8(r2)
   41624:	28bffb1e 	bne	r5,r2,41614 <__alt_data_end+0xfffcbab4>
   41628:	11800317 	ldw	r6,12(r2)
   4162c:	99000117 	ldw	r4,4(r19)
   41630:	81800315 	stw	r6,12(r16)
   41634:	80800215 	stw	r2,8(r16)
   41638:	34000215 	stw	r16,8(r6)
   4163c:	14000315 	stw	r16,12(r2)
   41640:	003f2706 	br	412e0 <__alt_data_end+0xfffcb780>
   41644:	88c00054 	ori	r3,r17,1
   41648:	80c00115 	stw	r3,4(r16)
   4164c:	8463883a 	add	r17,r16,r17
   41650:	34400515 	stw	r17,20(r6)
   41654:	34400415 	stw	r17,16(r6)
   41658:	10c00054 	ori	r3,r2,1
   4165c:	8a400315 	stw	r9,12(r17)
   41660:	8a400215 	stw	r9,8(r17)
   41664:	88c00115 	stw	r3,4(r17)
   41668:	88a3883a 	add	r17,r17,r2
   4166c:	88800015 	stw	r2,0(r17)
   41670:	9009883a 	mov	r4,r18
   41674:	00442840 	call	44284 <__malloc_unlock>
   41678:	80800204 	addi	r2,r16,8
   4167c:	003ecb06 	br	411ac <__alt_data_end+0xfffcb64c>
   41680:	31000117 	ldw	r4,4(r6)
   41684:	003f1606 	br	412e0 <__alt_data_end+0xfffcb780>
   41688:	63000044 	addi	r12,r12,1
   4168c:	608000cc 	andi	r2,r12,3
   41690:	5ac00204 	addi	r11,r11,8
   41694:	103f2a1e 	bne	r2,zero,41340 <__alt_data_end+0xfffcb7e0>
   41698:	00002106 	br	41720 <_malloc_r+0x628>
   4169c:	80800204 	addi	r2,r16,8
   416a0:	84000517 	ldw	r16,20(r16)
   416a4:	143eb31e 	bne	r2,r16,41174 <__alt_data_end+0xfffcb614>
   416a8:	18c00084 	addi	r3,r3,2
   416ac:	003eec06 	br	41260 <__alt_data_end+0xfffcb700>
   416b0:	8085883a 	add	r2,r16,r2
   416b4:	10c00117 	ldw	r3,4(r2)
   416b8:	81000317 	ldw	r4,12(r16)
   416bc:	81400217 	ldw	r5,8(r16)
   416c0:	18c00054 	ori	r3,r3,1
   416c4:	10c00115 	stw	r3,4(r2)
   416c8:	29000315 	stw	r4,12(r5)
   416cc:	21400215 	stw	r5,8(r4)
   416d0:	9009883a 	mov	r4,r18
   416d4:	00442840 	call	44284 <__malloc_unlock>
   416d8:	80800204 	addi	r2,r16,8
   416dc:	003eb306 	br	411ac <__alt_data_end+0xfffcb64c>
   416e0:	19c016c4 	addi	r7,r3,91
   416e4:	39cb883a 	add	r5,r7,r7
   416e8:	003ec706 	br	41208 <__alt_data_end+0xfffcb6a8>
   416ec:	3804d1ba 	srli	r2,r7,6
   416f0:	11000e04 	addi	r4,r2,56
   416f4:	210b883a 	add	r5,r4,r4
   416f8:	003fbe06 	br	415f4 <__alt_data_end+0xfffcba94>
   416fc:	84ff5d26 	beq	r16,r19,41474 <__alt_data_end+0xfffcb914>
   41700:	9c000217 	ldw	r16,8(r19)
   41704:	00bfff04 	movi	r2,-4
   41708:	80c00117 	ldw	r3,4(r16)
   4170c:	1886703a 	and	r3,r3,r2
   41710:	003f9706 	br	41570 <__alt_data_end+0xfffcba10>
   41714:	52800017 	ldw	r10,0(r10)
   41718:	18ffffc4 	addi	r3,r3,-1
   4171c:	50805c1e 	bne	r10,r2,41890 <_malloc_r+0x798>
   41720:	190000cc 	andi	r4,r3,3
   41724:	50bffe04 	addi	r2,r10,-8
   41728:	203ffa1e 	bne	r4,zero,41714 <__alt_data_end+0xfffcbbb4>
   4172c:	98800117 	ldw	r2,4(r19)
   41730:	0146303a 	nor	r3,zero,r5
   41734:	1884703a 	and	r2,r3,r2
   41738:	98800115 	stw	r2,4(r19)
   4173c:	294b883a 	add	r5,r5,r5
   41740:	117f2e36 	bltu	r2,r5,413fc <__alt_data_end+0xfffcb89c>
   41744:	283f2d26 	beq	r5,zero,413fc <__alt_data_end+0xfffcb89c>
   41748:	1146703a 	and	r3,r2,r5
   4174c:	1800521e 	bne	r3,zero,41898 <_malloc_r+0x7a0>
   41750:	6007883a 	mov	r3,r12
   41754:	294b883a 	add	r5,r5,r5
   41758:	1148703a 	and	r4,r2,r5
   4175c:	18c00104 	addi	r3,r3,4
   41760:	203ffc26 	beq	r4,zero,41754 <__alt_data_end+0xfffcbbf4>
   41764:	003ef006 	br	41328 <__alt_data_end+0xfffcb7c8>
   41768:	00805504 	movi	r2,340
   4176c:	10c01336 	bltu	r2,r3,417bc <_malloc_r+0x6c4>
   41770:	8806d3fa 	srli	r3,r17,15
   41774:	19c01dc4 	addi	r7,r3,119
   41778:	39cb883a 	add	r5,r7,r7
   4177c:	003ea206 	br	41208 <__alt_data_end+0xfffcb6a8>
   41780:	00c40004 	movi	r3,4096
   41784:	003f4d06 	br	414bc <__alt_data_end+0xfffcb95c>
   41788:	00800044 	movi	r2,1
   4178c:	a0800115 	stw	r2,4(r20)
   41790:	a021883a 	mov	r16,r20
   41794:	0007883a 	mov	r3,zero
   41798:	003f7506 	br	41570 <__alt_data_end+0xfffcba10>
   4179c:	200bd0ba 	srai	r5,r4,2
   417a0:	01800044 	movi	r6,1
   417a4:	41000117 	ldw	r4,4(r8)
   417a8:	314a983a 	sll	r5,r6,r5
   417ac:	100d883a 	mov	r6,r2
   417b0:	2908b03a 	or	r4,r5,r4
   417b4:	41000115 	stw	r4,4(r8)
   417b8:	003f9d06 	br	41630 <__alt_data_end+0xfffcbad0>
   417bc:	00815504 	movi	r2,1364
   417c0:	10c01336 	bltu	r2,r3,41810 <_malloc_r+0x718>
   417c4:	8806d4ba 	srli	r3,r17,18
   417c8:	19c01f04 	addi	r7,r3,124
   417cc:	39cb883a 	add	r5,r7,r7
   417d0:	003e8d06 	br	41208 <__alt_data_end+0xfffcb6a8>
   417d4:	ad400404 	addi	r21,r21,16
   417d8:	003f1d06 	br	41450 <__alt_data_end+0xfffcb8f0>
   417dc:	01001504 	movi	r4,84
   417e0:	20801c36 	bltu	r4,r2,41854 <_malloc_r+0x75c>
   417e4:	3804d33a 	srli	r2,r7,12
   417e8:	11001b84 	addi	r4,r2,110
   417ec:	210b883a 	add	r5,r4,r4
   417f0:	003f8006 	br	415f4 <__alt_data_end+0xfffcba94>
   417f4:	3083ffcc 	andi	r2,r6,4095
   417f8:	103f241e 	bne	r2,zero,4148c <__alt_data_end+0xfffcb92c>
   417fc:	99000217 	ldw	r4,8(r19)
   41800:	ad85883a 	add	r2,r21,r22
   41804:	10800054 	ori	r2,r2,1
   41808:	20800115 	stw	r2,4(r4)
   4180c:	003f4a06 	br	41538 <__alt_data_end+0xfffcb9d8>
   41810:	01403f04 	movi	r5,252
   41814:	01c01f84 	movi	r7,126
   41818:	003e7b06 	br	41208 <__alt_data_end+0xfffcb6a8>
   4181c:	00c00044 	movi	r3,1
   41820:	002b883a 	mov	r21,zero
   41824:	003f3006 	br	414e8 <__alt_data_end+0xfffcb988>
   41828:	00800174 	movhi	r2,5
   4182c:	1083ed04 	addi	r2,r2,4020
   41830:	15000015 	stw	r20,0(r2)
   41834:	003f1b06 	br	414a4 <__alt_data_end+0xfffcb944>
   41838:	9009883a 	mov	r4,r18
   4183c:	81400204 	addi	r5,r16,8
   41840:	0042a700 	call	42a70 <_free_r>
   41844:	00800174 	movhi	r2,5
   41848:	108b2d04 	addi	r2,r2,11444
   4184c:	10c00017 	ldw	r3,0(r2)
   41850:	003f3906 	br	41538 <__alt_data_end+0xfffcb9d8>
   41854:	01005504 	movi	r4,340
   41858:	20800436 	bltu	r4,r2,4186c <_malloc_r+0x774>
   4185c:	3804d3fa 	srli	r2,r7,15
   41860:	11001dc4 	addi	r4,r2,119
   41864:	210b883a 	add	r5,r4,r4
   41868:	003f6206 	br	415f4 <__alt_data_end+0xfffcba94>
   4186c:	01015504 	movi	r4,1364
   41870:	20800436 	bltu	r4,r2,41884 <_malloc_r+0x78c>
   41874:	3804d4ba 	srli	r2,r7,18
   41878:	11001f04 	addi	r4,r2,124
   4187c:	210b883a 	add	r5,r4,r4
   41880:	003f5c06 	br	415f4 <__alt_data_end+0xfffcba94>
   41884:	01403f04 	movi	r5,252
   41888:	01001f84 	movi	r4,126
   4188c:	003f5906 	br	415f4 <__alt_data_end+0xfffcba94>
   41890:	98800117 	ldw	r2,4(r19)
   41894:	003fa906 	br	4173c <__alt_data_end+0xfffcbbdc>
   41898:	6007883a 	mov	r3,r12
   4189c:	003ea206 	br	41328 <__alt_data_end+0xfffcb7c8>

000418a0 <memchr>:
   418a0:	208000cc 	andi	r2,r4,3
   418a4:	280f883a 	mov	r7,r5
   418a8:	10003526 	beq	r2,zero,41980 <memchr+0xe0>
   418ac:	30bfffc4 	addi	r2,r6,-1
   418b0:	30001b26 	beq	r6,zero,41920 <memchr+0x80>
   418b4:	21800003 	ldbu	r6,0(r4)
   418b8:	28c03fcc 	andi	r3,r5,255
   418bc:	30c01a26 	beq	r6,r3,41928 <memchr+0x88>
   418c0:	180d883a 	mov	r6,r3
   418c4:	00000406 	br	418d8 <memchr+0x38>
   418c8:	10001526 	beq	r2,zero,41920 <memchr+0x80>
   418cc:	20c00003 	ldbu	r3,0(r4)
   418d0:	10bfffc4 	addi	r2,r2,-1
   418d4:	19801426 	beq	r3,r6,41928 <memchr+0x88>
   418d8:	21000044 	addi	r4,r4,1
   418dc:	20c000cc 	andi	r3,r4,3
   418e0:	183ff91e 	bne	r3,zero,418c8 <__alt_data_end+0xfffcbd68>
   418e4:	024000c4 	movi	r9,3
   418e8:	48801136 	bltu	r9,r2,41930 <memchr+0x90>
   418ec:	10000c26 	beq	r2,zero,41920 <memchr+0x80>
   418f0:	20c00003 	ldbu	r3,0(r4)
   418f4:	29403fcc 	andi	r5,r5,255
   418f8:	19400b26 	beq	r3,r5,41928 <memchr+0x88>
   418fc:	20c00044 	addi	r3,r4,1
   41900:	2085883a 	add	r2,r4,r2
   41904:	39803fcc 	andi	r6,r7,255
   41908:	00000306 	br	41918 <memchr+0x78>
   4190c:	18c00044 	addi	r3,r3,1
   41910:	197fffc3 	ldbu	r5,-1(r3)
   41914:	29800426 	beq	r5,r6,41928 <memchr+0x88>
   41918:	1809883a 	mov	r4,r3
   4191c:	18bffb1e 	bne	r3,r2,4190c <__alt_data_end+0xfffcbdac>
   41920:	0005883a 	mov	r2,zero
   41924:	f800283a 	ret
   41928:	2005883a 	mov	r2,r4
   4192c:	f800283a 	ret
   41930:	28c03fcc 	andi	r3,r5,255
   41934:	1810923a 	slli	r8,r3,8
   41938:	02ffbff4 	movhi	r11,65279
   4193c:	02a02074 	movhi	r10,32897
   41940:	40c6b03a 	or	r3,r8,r3
   41944:	1810943a 	slli	r8,r3,16
   41948:	5affbfc4 	addi	r11,r11,-257
   4194c:	52a02004 	addi	r10,r10,-32640
   41950:	40d0b03a 	or	r8,r8,r3
   41954:	20c00017 	ldw	r3,0(r4)
   41958:	40c6f03a 	xor	r3,r8,r3
   4195c:	1acd883a 	add	r6,r3,r11
   41960:	00c6303a 	nor	r3,zero,r3
   41964:	30c6703a 	and	r3,r6,r3
   41968:	1a86703a 	and	r3,r3,r10
   4196c:	183fdf1e 	bne	r3,zero,418ec <__alt_data_end+0xfffcbd8c>
   41970:	10bfff04 	addi	r2,r2,-4
   41974:	21000104 	addi	r4,r4,4
   41978:	48bff636 	bltu	r9,r2,41954 <__alt_data_end+0xfffcbdf4>
   4197c:	003fdb06 	br	418ec <__alt_data_end+0xfffcbd8c>
   41980:	3005883a 	mov	r2,r6
   41984:	003fd706 	br	418e4 <__alt_data_end+0xfffcbd84>

00041988 <memcpy>:
   41988:	deffff04 	addi	sp,sp,-4
   4198c:	dc000015 	stw	r16,0(sp)
   41990:	00c003c4 	movi	r3,15
   41994:	2005883a 	mov	r2,r4
   41998:	1980432e 	bgeu	r3,r6,41aa8 <memcpy+0x120>
   4199c:	2146b03a 	or	r3,r4,r5
   419a0:	18c000cc 	andi	r3,r3,3
   419a4:	1800421e 	bne	r3,zero,41ab0 <memcpy+0x128>
   419a8:	343ffc04 	addi	r16,r6,-16
   419ac:	8020d13a 	srli	r16,r16,4
   419b0:	28c00104 	addi	r3,r5,4
   419b4:	23400104 	addi	r13,r4,4
   419b8:	801e913a 	slli	r15,r16,4
   419bc:	2b000204 	addi	r12,r5,8
   419c0:	22c00204 	addi	r11,r4,8
   419c4:	7bc00504 	addi	r15,r15,20
   419c8:	2a800304 	addi	r10,r5,12
   419cc:	22400304 	addi	r9,r4,12
   419d0:	2bdf883a 	add	r15,r5,r15
   419d4:	2811883a 	mov	r8,r5
   419d8:	200f883a 	mov	r7,r4
   419dc:	41000017 	ldw	r4,0(r8)
   419e0:	39c00404 	addi	r7,r7,16
   419e4:	18c00404 	addi	r3,r3,16
   419e8:	393ffc15 	stw	r4,-16(r7)
   419ec:	1bbffc17 	ldw	r14,-16(r3)
   419f0:	6b400404 	addi	r13,r13,16
   419f4:	5ac00404 	addi	r11,r11,16
   419f8:	6bbffc15 	stw	r14,-16(r13)
   419fc:	63800017 	ldw	r14,0(r12)
   41a00:	4a400404 	addi	r9,r9,16
   41a04:	42000404 	addi	r8,r8,16
   41a08:	5bbffc15 	stw	r14,-16(r11)
   41a0c:	53800017 	ldw	r14,0(r10)
   41a10:	63000404 	addi	r12,r12,16
   41a14:	52800404 	addi	r10,r10,16
   41a18:	4bbffc15 	stw	r14,-16(r9)
   41a1c:	1bffef1e 	bne	r3,r15,419dc <__alt_data_end+0xfffcbe7c>
   41a20:	81c00044 	addi	r7,r16,1
   41a24:	380e913a 	slli	r7,r7,4
   41a28:	310003cc 	andi	r4,r6,15
   41a2c:	02c000c4 	movi	r11,3
   41a30:	11c7883a 	add	r3,r2,r7
   41a34:	29cb883a 	add	r5,r5,r7
   41a38:	59001f2e 	bgeu	r11,r4,41ab8 <memcpy+0x130>
   41a3c:	1813883a 	mov	r9,r3
   41a40:	2811883a 	mov	r8,r5
   41a44:	200f883a 	mov	r7,r4
   41a48:	42800017 	ldw	r10,0(r8)
   41a4c:	4a400104 	addi	r9,r9,4
   41a50:	39ffff04 	addi	r7,r7,-4
   41a54:	4abfff15 	stw	r10,-4(r9)
   41a58:	42000104 	addi	r8,r8,4
   41a5c:	59fffa36 	bltu	r11,r7,41a48 <__alt_data_end+0xfffcbee8>
   41a60:	213fff04 	addi	r4,r4,-4
   41a64:	2008d0ba 	srli	r4,r4,2
   41a68:	318000cc 	andi	r6,r6,3
   41a6c:	21000044 	addi	r4,r4,1
   41a70:	2109883a 	add	r4,r4,r4
   41a74:	2109883a 	add	r4,r4,r4
   41a78:	1907883a 	add	r3,r3,r4
   41a7c:	290b883a 	add	r5,r5,r4
   41a80:	30000626 	beq	r6,zero,41a9c <memcpy+0x114>
   41a84:	198d883a 	add	r6,r3,r6
   41a88:	29c00003 	ldbu	r7,0(r5)
   41a8c:	18c00044 	addi	r3,r3,1
   41a90:	29400044 	addi	r5,r5,1
   41a94:	19ffffc5 	stb	r7,-1(r3)
   41a98:	19bffb1e 	bne	r3,r6,41a88 <__alt_data_end+0xfffcbf28>
   41a9c:	dc000017 	ldw	r16,0(sp)
   41aa0:	dec00104 	addi	sp,sp,4
   41aa4:	f800283a 	ret
   41aa8:	2007883a 	mov	r3,r4
   41aac:	003ff406 	br	41a80 <__alt_data_end+0xfffcbf20>
   41ab0:	2007883a 	mov	r3,r4
   41ab4:	003ff306 	br	41a84 <__alt_data_end+0xfffcbf24>
   41ab8:	200d883a 	mov	r6,r4
   41abc:	003ff006 	br	41a80 <__alt_data_end+0xfffcbf20>

00041ac0 <memmove>:
   41ac0:	2005883a 	mov	r2,r4
   41ac4:	29000b2e 	bgeu	r5,r4,41af4 <memmove+0x34>
   41ac8:	298f883a 	add	r7,r5,r6
   41acc:	21c0092e 	bgeu	r4,r7,41af4 <memmove+0x34>
   41ad0:	2187883a 	add	r3,r4,r6
   41ad4:	198bc83a 	sub	r5,r3,r6
   41ad8:	30004b26 	beq	r6,zero,41c08 <memmove+0x148>
   41adc:	39ffffc4 	addi	r7,r7,-1
   41ae0:	39000003 	ldbu	r4,0(r7)
   41ae4:	18ffffc4 	addi	r3,r3,-1
   41ae8:	19000005 	stb	r4,0(r3)
   41aec:	197ffb1e 	bne	r3,r5,41adc <__alt_data_end+0xfffcbf7c>
   41af0:	f800283a 	ret
   41af4:	00c003c4 	movi	r3,15
   41af8:	1980412e 	bgeu	r3,r6,41c00 <memmove+0x140>
   41afc:	1146b03a 	or	r3,r2,r5
   41b00:	18c000cc 	andi	r3,r3,3
   41b04:	1800411e 	bne	r3,zero,41c0c <memmove+0x14c>
   41b08:	33fffc04 	addi	r15,r6,-16
   41b0c:	781ed13a 	srli	r15,r15,4
   41b10:	28c00104 	addi	r3,r5,4
   41b14:	13400104 	addi	r13,r2,4
   41b18:	781c913a 	slli	r14,r15,4
   41b1c:	2b000204 	addi	r12,r5,8
   41b20:	12c00204 	addi	r11,r2,8
   41b24:	73800504 	addi	r14,r14,20
   41b28:	2a800304 	addi	r10,r5,12
   41b2c:	12400304 	addi	r9,r2,12
   41b30:	2b9d883a 	add	r14,r5,r14
   41b34:	2811883a 	mov	r8,r5
   41b38:	100f883a 	mov	r7,r2
   41b3c:	41000017 	ldw	r4,0(r8)
   41b40:	39c00404 	addi	r7,r7,16
   41b44:	18c00404 	addi	r3,r3,16
   41b48:	393ffc15 	stw	r4,-16(r7)
   41b4c:	193ffc17 	ldw	r4,-16(r3)
   41b50:	6b400404 	addi	r13,r13,16
   41b54:	5ac00404 	addi	r11,r11,16
   41b58:	693ffc15 	stw	r4,-16(r13)
   41b5c:	61000017 	ldw	r4,0(r12)
   41b60:	4a400404 	addi	r9,r9,16
   41b64:	42000404 	addi	r8,r8,16
   41b68:	593ffc15 	stw	r4,-16(r11)
   41b6c:	51000017 	ldw	r4,0(r10)
   41b70:	63000404 	addi	r12,r12,16
   41b74:	52800404 	addi	r10,r10,16
   41b78:	493ffc15 	stw	r4,-16(r9)
   41b7c:	1bbfef1e 	bne	r3,r14,41b3c <__alt_data_end+0xfffcbfdc>
   41b80:	79000044 	addi	r4,r15,1
   41b84:	2008913a 	slli	r4,r4,4
   41b88:	328003cc 	andi	r10,r6,15
   41b8c:	02c000c4 	movi	r11,3
   41b90:	1107883a 	add	r3,r2,r4
   41b94:	290b883a 	add	r5,r5,r4
   41b98:	5a801e2e 	bgeu	r11,r10,41c14 <memmove+0x154>
   41b9c:	1813883a 	mov	r9,r3
   41ba0:	2811883a 	mov	r8,r5
   41ba4:	500f883a 	mov	r7,r10
   41ba8:	41000017 	ldw	r4,0(r8)
   41bac:	4a400104 	addi	r9,r9,4
   41bb0:	39ffff04 	addi	r7,r7,-4
   41bb4:	493fff15 	stw	r4,-4(r9)
   41bb8:	42000104 	addi	r8,r8,4
   41bbc:	59fffa36 	bltu	r11,r7,41ba8 <__alt_data_end+0xfffcc048>
   41bc0:	513fff04 	addi	r4,r10,-4
   41bc4:	2008d0ba 	srli	r4,r4,2
   41bc8:	318000cc 	andi	r6,r6,3
   41bcc:	21000044 	addi	r4,r4,1
   41bd0:	2109883a 	add	r4,r4,r4
   41bd4:	2109883a 	add	r4,r4,r4
   41bd8:	1907883a 	add	r3,r3,r4
   41bdc:	290b883a 	add	r5,r5,r4
   41be0:	30000926 	beq	r6,zero,41c08 <memmove+0x148>
   41be4:	198d883a 	add	r6,r3,r6
   41be8:	29c00003 	ldbu	r7,0(r5)
   41bec:	18c00044 	addi	r3,r3,1
   41bf0:	29400044 	addi	r5,r5,1
   41bf4:	19ffffc5 	stb	r7,-1(r3)
   41bf8:	19bffb1e 	bne	r3,r6,41be8 <__alt_data_end+0xfffcc088>
   41bfc:	f800283a 	ret
   41c00:	1007883a 	mov	r3,r2
   41c04:	003ff606 	br	41be0 <__alt_data_end+0xfffcc080>
   41c08:	f800283a 	ret
   41c0c:	1007883a 	mov	r3,r2
   41c10:	003ff406 	br	41be4 <__alt_data_end+0xfffcc084>
   41c14:	500d883a 	mov	r6,r10
   41c18:	003ff106 	br	41be0 <__alt_data_end+0xfffcc080>

00041c1c <_realloc_r>:
   41c1c:	defff604 	addi	sp,sp,-40
   41c20:	dcc00315 	stw	r19,12(sp)
   41c24:	dc400115 	stw	r17,4(sp)
   41c28:	dfc00915 	stw	ra,36(sp)
   41c2c:	df000815 	stw	fp,32(sp)
   41c30:	ddc00715 	stw	r23,28(sp)
   41c34:	dd800615 	stw	r22,24(sp)
   41c38:	dd400515 	stw	r21,20(sp)
   41c3c:	dd000415 	stw	r20,16(sp)
   41c40:	dc800215 	stw	r18,8(sp)
   41c44:	dc000015 	stw	r16,0(sp)
   41c48:	2827883a 	mov	r19,r5
   41c4c:	3023883a 	mov	r17,r6
   41c50:	2800bf26 	beq	r5,zero,41f50 <_realloc_r+0x334>
   41c54:	2025883a 	mov	r18,r4
   41c58:	00441640 	call	44164 <__malloc_lock>
   41c5c:	98ffff17 	ldw	r3,-4(r19)
   41c60:	01bfff04 	movi	r6,-4
   41c64:	890002c4 	addi	r4,r17,11
   41c68:	01c00584 	movi	r7,22
   41c6c:	9d7ffe04 	addi	r21,r19,-8
   41c70:	19a0703a 	and	r16,r3,r6
   41c74:	39003f2e 	bgeu	r7,r4,41d74 <_realloc_r+0x158>
   41c78:	053ffe04 	movi	r20,-8
   41c7c:	2528703a 	and	r20,r4,r20
   41c80:	a00f883a 	mov	r7,r20
   41c84:	a0008216 	blt	r20,zero,41e90 <_realloc_r+0x274>
   41c88:	a4408136 	bltu	r20,r17,41e90 <_realloc_r+0x274>
   41c8c:	81c03c0e 	bge	r16,r7,41d80 <_realloc_r+0x164>
   41c90:	07000174 	movhi	fp,5
   41c94:	e73e3004 	addi	fp,fp,-1856
   41c98:	e1000217 	ldw	r4,8(fp)
   41c9c:	ac05883a 	add	r2,r21,r16
   41ca0:	2080bf26 	beq	r4,r2,41fa0 <_realloc_r+0x384>
   41ca4:	11000117 	ldw	r4,4(r2)
   41ca8:	023fff84 	movi	r8,-2
   41cac:	2210703a 	and	r8,r4,r8
   41cb0:	1211883a 	add	r8,r2,r8
   41cb4:	41400117 	ldw	r5,4(r8)
   41cb8:	2940004c 	andi	r5,r5,1
   41cbc:	28004a1e 	bne	r5,zero,41de8 <_realloc_r+0x1cc>
   41cc0:	017fff04 	movi	r5,-4
   41cc4:	2148703a 	and	r4,r4,r5
   41cc8:	2409883a 	add	r4,r4,r16
   41ccc:	21c0ad0e 	bge	r4,r7,41f84 <_realloc_r+0x368>
   41cd0:	18c0004c 	andi	r3,r3,1
   41cd4:	18007f1e 	bne	r3,zero,41ed4 <_realloc_r+0x2b8>
   41cd8:	9dfffe17 	ldw	r23,-8(r19)
   41cdc:	adefc83a 	sub	r23,r21,r23
   41ce0:	bd800117 	ldw	r22,4(r23)
   41ce4:	b14a703a 	and	r5,r22,r5
   41ce8:	216d883a 	add	r22,r4,r5
   41cec:	b1c04516 	blt	r22,r7,41e04 <_realloc_r+0x1e8>
   41cf0:	10c00317 	ldw	r3,12(r2)
   41cf4:	10800217 	ldw	r2,8(r2)
   41cf8:	81bfff04 	addi	r6,r16,-4
   41cfc:	bc400204 	addi	r17,r23,8
   41d00:	10c00315 	stw	r3,12(r2)
   41d04:	18800215 	stw	r2,8(r3)
   41d08:	b9400217 	ldw	r5,8(r23)
   41d0c:	b8c00317 	ldw	r3,12(r23)
   41d10:	00800904 	movi	r2,36
   41d14:	28c00315 	stw	r3,12(r5)
   41d18:	19400215 	stw	r5,8(r3)
   41d1c:	1180ef36 	bltu	r2,r6,420dc <_realloc_r+0x4c0>
   41d20:	008004c4 	movi	r2,19
   41d24:	1180da2e 	bgeu	r2,r6,42090 <_realloc_r+0x474>
   41d28:	98800017 	ldw	r2,0(r19)
   41d2c:	b8800215 	stw	r2,8(r23)
   41d30:	98800117 	ldw	r2,4(r19)
   41d34:	b8800315 	stw	r2,12(r23)
   41d38:	008006c4 	movi	r2,27
   41d3c:	1180fc2e 	bgeu	r2,r6,42130 <_realloc_r+0x514>
   41d40:	98800217 	ldw	r2,8(r19)
   41d44:	b8800415 	stw	r2,16(r23)
   41d48:	98800317 	ldw	r2,12(r19)
   41d4c:	b8800515 	stw	r2,20(r23)
   41d50:	00800904 	movi	r2,36
   41d54:	3080421e 	bne	r6,r2,41e60 <_realloc_r+0x244>
   41d58:	98800417 	ldw	r2,16(r19)
   41d5c:	9cc00604 	addi	r19,r19,24
   41d60:	b8c00804 	addi	r3,r23,32
   41d64:	b8800615 	stw	r2,24(r23)
   41d68:	98bfff17 	ldw	r2,-4(r19)
   41d6c:	b8800715 	stw	r2,28(r23)
   41d70:	00003d06 	br	41e68 <_realloc_r+0x24c>
   41d74:	01c00404 	movi	r7,16
   41d78:	3829883a 	mov	r20,r7
   41d7c:	003fc206 	br	41c88 <__alt_data_end+0xfffcc128>
   41d80:	9823883a 	mov	r17,r19
   41d84:	850fc83a 	sub	r7,r16,r20
   41d88:	008003c4 	movi	r2,15
   41d8c:	18c0004c 	andi	r3,r3,1
   41d90:	11c04336 	bltu	r2,r7,41ea0 <_realloc_r+0x284>
   41d94:	1c06b03a 	or	r3,r3,r16
   41d98:	a8c00115 	stw	r3,4(r21)
   41d9c:	ac21883a 	add	r16,r21,r16
   41da0:	80c00117 	ldw	r3,4(r16)
   41da4:	18c00054 	ori	r3,r3,1
   41da8:	80c00115 	stw	r3,4(r16)
   41dac:	9009883a 	mov	r4,r18
   41db0:	00442840 	call	44284 <__malloc_unlock>
   41db4:	8805883a 	mov	r2,r17
   41db8:	dfc00917 	ldw	ra,36(sp)
   41dbc:	df000817 	ldw	fp,32(sp)
   41dc0:	ddc00717 	ldw	r23,28(sp)
   41dc4:	dd800617 	ldw	r22,24(sp)
   41dc8:	dd400517 	ldw	r21,20(sp)
   41dcc:	dd000417 	ldw	r20,16(sp)
   41dd0:	dcc00317 	ldw	r19,12(sp)
   41dd4:	dc800217 	ldw	r18,8(sp)
   41dd8:	dc400117 	ldw	r17,4(sp)
   41ddc:	dc000017 	ldw	r16,0(sp)
   41de0:	dec00a04 	addi	sp,sp,40
   41de4:	f800283a 	ret
   41de8:	18c0004c 	andi	r3,r3,1
   41dec:	1800391e 	bne	r3,zero,41ed4 <_realloc_r+0x2b8>
   41df0:	9dfffe17 	ldw	r23,-8(r19)
   41df4:	00bfff04 	movi	r2,-4
   41df8:	adefc83a 	sub	r23,r21,r23
   41dfc:	b9400117 	ldw	r5,4(r23)
   41e00:	288a703a 	and	r5,r5,r2
   41e04:	2c2d883a 	add	r22,r5,r16
   41e08:	b1c03216 	blt	r22,r7,41ed4 <_realloc_r+0x2b8>
   41e0c:	b8800317 	ldw	r2,12(r23)
   41e10:	b8c00217 	ldw	r3,8(r23)
   41e14:	81bfff04 	addi	r6,r16,-4
   41e18:	01000904 	movi	r4,36
   41e1c:	18800315 	stw	r2,12(r3)
   41e20:	10c00215 	stw	r3,8(r2)
   41e24:	bc400204 	addi	r17,r23,8
   41e28:	2180ac36 	bltu	r4,r6,420dc <_realloc_r+0x4c0>
   41e2c:	008004c4 	movi	r2,19
   41e30:	1180972e 	bgeu	r2,r6,42090 <_realloc_r+0x474>
   41e34:	98800017 	ldw	r2,0(r19)
   41e38:	b8800215 	stw	r2,8(r23)
   41e3c:	98800117 	ldw	r2,4(r19)
   41e40:	b8800315 	stw	r2,12(r23)
   41e44:	008006c4 	movi	r2,27
   41e48:	1180b92e 	bgeu	r2,r6,42130 <_realloc_r+0x514>
   41e4c:	98800217 	ldw	r2,8(r19)
   41e50:	b8800415 	stw	r2,16(r23)
   41e54:	98800317 	ldw	r2,12(r19)
   41e58:	b8800515 	stw	r2,20(r23)
   41e5c:	313fbe26 	beq	r6,r4,41d58 <__alt_data_end+0xfffcc1f8>
   41e60:	b8c00604 	addi	r3,r23,24
   41e64:	9cc00404 	addi	r19,r19,16
   41e68:	98800017 	ldw	r2,0(r19)
   41e6c:	b021883a 	mov	r16,r22
   41e70:	b82b883a 	mov	r21,r23
   41e74:	18800015 	stw	r2,0(r3)
   41e78:	98800117 	ldw	r2,4(r19)
   41e7c:	18800115 	stw	r2,4(r3)
   41e80:	98800217 	ldw	r2,8(r19)
   41e84:	18800215 	stw	r2,8(r3)
   41e88:	b8c00117 	ldw	r3,4(r23)
   41e8c:	003fbd06 	br	41d84 <__alt_data_end+0xfffcc224>
   41e90:	00800304 	movi	r2,12
   41e94:	90800015 	stw	r2,0(r18)
   41e98:	0005883a 	mov	r2,zero
   41e9c:	003fc606 	br	41db8 <__alt_data_end+0xfffcc258>
   41ea0:	1d06b03a 	or	r3,r3,r20
   41ea4:	ad0b883a 	add	r5,r21,r20
   41ea8:	a8c00115 	stw	r3,4(r21)
   41eac:	38800054 	ori	r2,r7,1
   41eb0:	28800115 	stw	r2,4(r5)
   41eb4:	29cf883a 	add	r7,r5,r7
   41eb8:	38800117 	ldw	r2,4(r7)
   41ebc:	9009883a 	mov	r4,r18
   41ec0:	29400204 	addi	r5,r5,8
   41ec4:	10800054 	ori	r2,r2,1
   41ec8:	38800115 	stw	r2,4(r7)
   41ecc:	0042a700 	call	42a70 <_free_r>
   41ed0:	003fb606 	br	41dac <__alt_data_end+0xfffcc24c>
   41ed4:	880b883a 	mov	r5,r17
   41ed8:	9009883a 	mov	r4,r18
   41edc:	00410f80 	call	410f8 <_malloc_r>
   41ee0:	1023883a 	mov	r17,r2
   41ee4:	1000aa26 	beq	r2,zero,42190 <_realloc_r+0x574>
   41ee8:	98ffff17 	ldw	r3,-4(r19)
   41eec:	113ffe04 	addi	r4,r2,-8
   41ef0:	00bfff84 	movi	r2,-2
   41ef4:	1884703a 	and	r2,r3,r2
   41ef8:	a885883a 	add	r2,r21,r2
   41efc:	20808626 	beq	r4,r2,42118 <_realloc_r+0x4fc>
   41f00:	81bfff04 	addi	r6,r16,-4
   41f04:	00800904 	movi	r2,36
   41f08:	11807036 	bltu	r2,r6,420cc <_realloc_r+0x4b0>
   41f0c:	00c004c4 	movi	r3,19
   41f10:	19805636 	bltu	r3,r6,4206c <_realloc_r+0x450>
   41f14:	8805883a 	mov	r2,r17
   41f18:	9807883a 	mov	r3,r19
   41f1c:	19000017 	ldw	r4,0(r3)
   41f20:	11000015 	stw	r4,0(r2)
   41f24:	19000117 	ldw	r4,4(r3)
   41f28:	11000115 	stw	r4,4(r2)
   41f2c:	18c00217 	ldw	r3,8(r3)
   41f30:	10c00215 	stw	r3,8(r2)
   41f34:	980b883a 	mov	r5,r19
   41f38:	9009883a 	mov	r4,r18
   41f3c:	0042a700 	call	42a70 <_free_r>
   41f40:	9009883a 	mov	r4,r18
   41f44:	00442840 	call	44284 <__malloc_unlock>
   41f48:	8805883a 	mov	r2,r17
   41f4c:	003f9a06 	br	41db8 <__alt_data_end+0xfffcc258>
   41f50:	300b883a 	mov	r5,r6
   41f54:	dfc00917 	ldw	ra,36(sp)
   41f58:	df000817 	ldw	fp,32(sp)
   41f5c:	ddc00717 	ldw	r23,28(sp)
   41f60:	dd800617 	ldw	r22,24(sp)
   41f64:	dd400517 	ldw	r21,20(sp)
   41f68:	dd000417 	ldw	r20,16(sp)
   41f6c:	dcc00317 	ldw	r19,12(sp)
   41f70:	dc800217 	ldw	r18,8(sp)
   41f74:	dc400117 	ldw	r17,4(sp)
   41f78:	dc000017 	ldw	r16,0(sp)
   41f7c:	dec00a04 	addi	sp,sp,40
   41f80:	00410f81 	jmpi	410f8 <_malloc_r>
   41f84:	11400317 	ldw	r5,12(r2)
   41f88:	10800217 	ldw	r2,8(r2)
   41f8c:	9823883a 	mov	r17,r19
   41f90:	2021883a 	mov	r16,r4
   41f94:	11400315 	stw	r5,12(r2)
   41f98:	28800215 	stw	r2,8(r5)
   41f9c:	003f7906 	br	41d84 <__alt_data_end+0xfffcc224>
   41fa0:	21000117 	ldw	r4,4(r4)
   41fa4:	00bfff04 	movi	r2,-4
   41fa8:	a1800404 	addi	r6,r20,16
   41fac:	2088703a 	and	r4,r4,r2
   41fb0:	2409883a 	add	r4,r4,r16
   41fb4:	2180380e 	bge	r4,r6,42098 <_realloc_r+0x47c>
   41fb8:	18c0004c 	andi	r3,r3,1
   41fbc:	183fc51e 	bne	r3,zero,41ed4 <__alt_data_end+0xfffcc374>
   41fc0:	9dfffe17 	ldw	r23,-8(r19)
   41fc4:	adefc83a 	sub	r23,r21,r23
   41fc8:	b9400117 	ldw	r5,4(r23)
   41fcc:	288a703a 	and	r5,r5,r2
   41fd0:	216d883a 	add	r22,r4,r5
   41fd4:	b1bf8b16 	blt	r22,r6,41e04 <__alt_data_end+0xfffcc2a4>
   41fd8:	b8800317 	ldw	r2,12(r23)
   41fdc:	b8c00217 	ldw	r3,8(r23)
   41fe0:	81bfff04 	addi	r6,r16,-4
   41fe4:	01000904 	movi	r4,36
   41fe8:	18800315 	stw	r2,12(r3)
   41fec:	10c00215 	stw	r3,8(r2)
   41ff0:	bc400204 	addi	r17,r23,8
   41ff4:	21805a36 	bltu	r4,r6,42160 <_realloc_r+0x544>
   41ff8:	008004c4 	movi	r2,19
   41ffc:	1180562e 	bgeu	r2,r6,42158 <_realloc_r+0x53c>
   42000:	98800017 	ldw	r2,0(r19)
   42004:	b8800215 	stw	r2,8(r23)
   42008:	98800117 	ldw	r2,4(r19)
   4200c:	b8800315 	stw	r2,12(r23)
   42010:	008006c4 	movi	r2,27
   42014:	11805636 	bltu	r2,r6,42170 <_realloc_r+0x554>
   42018:	b8800404 	addi	r2,r23,16
   4201c:	9cc00204 	addi	r19,r19,8
   42020:	98c00017 	ldw	r3,0(r19)
   42024:	10c00015 	stw	r3,0(r2)
   42028:	98c00117 	ldw	r3,4(r19)
   4202c:	10c00115 	stw	r3,4(r2)
   42030:	98c00217 	ldw	r3,8(r19)
   42034:	10c00215 	stw	r3,8(r2)
   42038:	bd07883a 	add	r3,r23,r20
   4203c:	b505c83a 	sub	r2,r22,r20
   42040:	e0c00215 	stw	r3,8(fp)
   42044:	10800054 	ori	r2,r2,1
   42048:	18800115 	stw	r2,4(r3)
   4204c:	b8800117 	ldw	r2,4(r23)
   42050:	9009883a 	mov	r4,r18
   42054:	1080004c 	andi	r2,r2,1
   42058:	a0a8b03a 	or	r20,r20,r2
   4205c:	bd000115 	stw	r20,4(r23)
   42060:	00442840 	call	44284 <__malloc_unlock>
   42064:	8805883a 	mov	r2,r17
   42068:	003f5306 	br	41db8 <__alt_data_end+0xfffcc258>
   4206c:	98c00017 	ldw	r3,0(r19)
   42070:	88c00015 	stw	r3,0(r17)
   42074:	98c00117 	ldw	r3,4(r19)
   42078:	88c00115 	stw	r3,4(r17)
   4207c:	00c006c4 	movi	r3,27
   42080:	19801d36 	bltu	r3,r6,420f8 <_realloc_r+0x4dc>
   42084:	88800204 	addi	r2,r17,8
   42088:	98c00204 	addi	r3,r19,8
   4208c:	003fa306 	br	41f1c <__alt_data_end+0xfffcc3bc>
   42090:	8807883a 	mov	r3,r17
   42094:	003f7406 	br	41e68 <__alt_data_end+0xfffcc308>
   42098:	ad2b883a 	add	r21,r21,r20
   4209c:	2505c83a 	sub	r2,r4,r20
   420a0:	e5400215 	stw	r21,8(fp)
   420a4:	10800054 	ori	r2,r2,1
   420a8:	a8800115 	stw	r2,4(r21)
   420ac:	98bfff17 	ldw	r2,-4(r19)
   420b0:	9009883a 	mov	r4,r18
   420b4:	1080004c 	andi	r2,r2,1
   420b8:	a0a8b03a 	or	r20,r20,r2
   420bc:	9d3fff15 	stw	r20,-4(r19)
   420c0:	00442840 	call	44284 <__malloc_unlock>
   420c4:	9805883a 	mov	r2,r19
   420c8:	003f3b06 	br	41db8 <__alt_data_end+0xfffcc258>
   420cc:	8809883a 	mov	r4,r17
   420d0:	980b883a 	mov	r5,r19
   420d4:	0041ac00 	call	41ac0 <memmove>
   420d8:	003f9606 	br	41f34 <__alt_data_end+0xfffcc3d4>
   420dc:	8809883a 	mov	r4,r17
   420e0:	980b883a 	mov	r5,r19
   420e4:	0041ac00 	call	41ac0 <memmove>
   420e8:	b8c00117 	ldw	r3,4(r23)
   420ec:	b021883a 	mov	r16,r22
   420f0:	b82b883a 	mov	r21,r23
   420f4:	003f2306 	br	41d84 <__alt_data_end+0xfffcc224>
   420f8:	98c00217 	ldw	r3,8(r19)
   420fc:	88c00215 	stw	r3,8(r17)
   42100:	98c00317 	ldw	r3,12(r19)
   42104:	88c00315 	stw	r3,12(r17)
   42108:	30800c26 	beq	r6,r2,4213c <_realloc_r+0x520>
   4210c:	88800404 	addi	r2,r17,16
   42110:	98c00404 	addi	r3,r19,16
   42114:	003f8106 	br	41f1c <__alt_data_end+0xfffcc3bc>
   42118:	893fff17 	ldw	r4,-4(r17)
   4211c:	00bfff04 	movi	r2,-4
   42120:	9823883a 	mov	r17,r19
   42124:	2084703a 	and	r2,r4,r2
   42128:	80a1883a 	add	r16,r16,r2
   4212c:	003f1506 	br	41d84 <__alt_data_end+0xfffcc224>
   42130:	b8c00404 	addi	r3,r23,16
   42134:	9cc00204 	addi	r19,r19,8
   42138:	003f4b06 	br	41e68 <__alt_data_end+0xfffcc308>
   4213c:	99000417 	ldw	r4,16(r19)
   42140:	88800604 	addi	r2,r17,24
   42144:	98c00604 	addi	r3,r19,24
   42148:	89000415 	stw	r4,16(r17)
   4214c:	99000517 	ldw	r4,20(r19)
   42150:	89000515 	stw	r4,20(r17)
   42154:	003f7106 	br	41f1c <__alt_data_end+0xfffcc3bc>
   42158:	8805883a 	mov	r2,r17
   4215c:	003fb006 	br	42020 <__alt_data_end+0xfffcc4c0>
   42160:	8809883a 	mov	r4,r17
   42164:	980b883a 	mov	r5,r19
   42168:	0041ac00 	call	41ac0 <memmove>
   4216c:	003fb206 	br	42038 <__alt_data_end+0xfffcc4d8>
   42170:	98800217 	ldw	r2,8(r19)
   42174:	b8800415 	stw	r2,16(r23)
   42178:	98800317 	ldw	r2,12(r19)
   4217c:	b8800515 	stw	r2,20(r23)
   42180:	31000726 	beq	r6,r4,421a0 <_realloc_r+0x584>
   42184:	b8800604 	addi	r2,r23,24
   42188:	9cc00404 	addi	r19,r19,16
   4218c:	003fa406 	br	42020 <__alt_data_end+0xfffcc4c0>
   42190:	9009883a 	mov	r4,r18
   42194:	00442840 	call	44284 <__malloc_unlock>
   42198:	0005883a 	mov	r2,zero
   4219c:	003f0606 	br	41db8 <__alt_data_end+0xfffcc258>
   421a0:	98c00417 	ldw	r3,16(r19)
   421a4:	9cc00604 	addi	r19,r19,24
   421a8:	b8800804 	addi	r2,r23,32
   421ac:	b8c00615 	stw	r3,24(r23)
   421b0:	98ffff17 	ldw	r3,-4(r19)
   421b4:	b8c00715 	stw	r3,28(r23)
   421b8:	003f9906 	br	42020 <__alt_data_end+0xfffcc4c0>

000421bc <_sbrk_r>:
   421bc:	defffd04 	addi	sp,sp,-12
   421c0:	dc000015 	stw	r16,0(sp)
   421c4:	04000174 	movhi	r16,5
   421c8:	dc400115 	stw	r17,4(sp)
   421cc:	840b0c04 	addi	r16,r16,11312
   421d0:	2023883a 	mov	r17,r4
   421d4:	2809883a 	mov	r4,r5
   421d8:	dfc00215 	stw	ra,8(sp)
   421dc:	80000015 	stw	zero,0(r16)
   421e0:	0043e480 	call	43e48 <sbrk>
   421e4:	00ffffc4 	movi	r3,-1
   421e8:	10c00526 	beq	r2,r3,42200 <_sbrk_r+0x44>
   421ec:	dfc00217 	ldw	ra,8(sp)
   421f0:	dc400117 	ldw	r17,4(sp)
   421f4:	dc000017 	ldw	r16,0(sp)
   421f8:	dec00304 	addi	sp,sp,12
   421fc:	f800283a 	ret
   42200:	80c00017 	ldw	r3,0(r16)
   42204:	183ff926 	beq	r3,zero,421ec <__alt_data_end+0xfffcc68c>
   42208:	88c00015 	stw	r3,0(r17)
   4220c:	003ff706 	br	421ec <__alt_data_end+0xfffcc68c>

00042210 <__swsetup_r>:
   42210:	00800174 	movhi	r2,5
   42214:	defffd04 	addi	sp,sp,-12
   42218:	1083ec04 	addi	r2,r2,4016
   4221c:	dc400115 	stw	r17,4(sp)
   42220:	2023883a 	mov	r17,r4
   42224:	11000017 	ldw	r4,0(r2)
   42228:	dc000015 	stw	r16,0(sp)
   4222c:	dfc00215 	stw	ra,8(sp)
   42230:	2821883a 	mov	r16,r5
   42234:	20000226 	beq	r4,zero,42240 <__swsetup_r+0x30>
   42238:	20c00e17 	ldw	r3,56(r4)
   4223c:	18002e26 	beq	r3,zero,422f8 <__swsetup_r+0xe8>
   42240:	8080030b 	ldhu	r2,12(r16)
   42244:	10c0020c 	andi	r3,r2,8
   42248:	100d883a 	mov	r6,r2
   4224c:	18000f26 	beq	r3,zero,4228c <__swsetup_r+0x7c>
   42250:	80c00417 	ldw	r3,16(r16)
   42254:	18001526 	beq	r3,zero,422ac <__swsetup_r+0x9c>
   42258:	1100004c 	andi	r4,r2,1
   4225c:	20001c1e 	bne	r4,zero,422d0 <__swsetup_r+0xc0>
   42260:	1080008c 	andi	r2,r2,2
   42264:	1000261e 	bne	r2,zero,42300 <__swsetup_r+0xf0>
   42268:	80800517 	ldw	r2,20(r16)
   4226c:	80800215 	stw	r2,8(r16)
   42270:	18001c26 	beq	r3,zero,422e4 <__swsetup_r+0xd4>
   42274:	0005883a 	mov	r2,zero
   42278:	dfc00217 	ldw	ra,8(sp)
   4227c:	dc400117 	ldw	r17,4(sp)
   42280:	dc000017 	ldw	r16,0(sp)
   42284:	dec00304 	addi	sp,sp,12
   42288:	f800283a 	ret
   4228c:	3080040c 	andi	r2,r6,16
   42290:	10001726 	beq	r2,zero,422f0 <__swsetup_r+0xe0>
   42294:	3080010c 	andi	r2,r6,4
   42298:	10001b1e 	bne	r2,zero,42308 <__swsetup_r+0xf8>
   4229c:	80c00417 	ldw	r3,16(r16)
   422a0:	30800214 	ori	r2,r6,8
   422a4:	8080030d 	sth	r2,12(r16)
   422a8:	183feb1e 	bne	r3,zero,42258 <__alt_data_end+0xfffcc6f8>
   422ac:	1140a00c 	andi	r5,r2,640
   422b0:	01008004 	movi	r4,512
   422b4:	293fe826 	beq	r5,r4,42258 <__alt_data_end+0xfffcc6f8>
   422b8:	8809883a 	mov	r4,r17
   422bc:	800b883a 	mov	r5,r16
   422c0:	0042ed00 	call	42ed0 <__smakebuf_r>
   422c4:	8080030b 	ldhu	r2,12(r16)
   422c8:	80c00417 	ldw	r3,16(r16)
   422cc:	003fe206 	br	42258 <__alt_data_end+0xfffcc6f8>
   422d0:	80800517 	ldw	r2,20(r16)
   422d4:	80000215 	stw	zero,8(r16)
   422d8:	0085c83a 	sub	r2,zero,r2
   422dc:	80800615 	stw	r2,24(r16)
   422e0:	183fe41e 	bne	r3,zero,42274 <__alt_data_end+0xfffcc714>
   422e4:	8080030b 	ldhu	r2,12(r16)
   422e8:	1080200c 	andi	r2,r2,128
   422ec:	103fe226 	beq	r2,zero,42278 <__alt_data_end+0xfffcc718>
   422f0:	00bfffc4 	movi	r2,-1
   422f4:	003fe006 	br	42278 <__alt_data_end+0xfffcc718>
   422f8:	00428fc0 	call	428fc <__sinit>
   422fc:	003fd006 	br	42240 <__alt_data_end+0xfffcc6e0>
   42300:	0005883a 	mov	r2,zero
   42304:	003fd906 	br	4226c <__alt_data_end+0xfffcc70c>
   42308:	81400c17 	ldw	r5,48(r16)
   4230c:	28000626 	beq	r5,zero,42328 <__swsetup_r+0x118>
   42310:	80801004 	addi	r2,r16,64
   42314:	28800326 	beq	r5,r2,42324 <__swsetup_r+0x114>
   42318:	8809883a 	mov	r4,r17
   4231c:	0042a700 	call	42a70 <_free_r>
   42320:	8180030b 	ldhu	r6,12(r16)
   42324:	80000c15 	stw	zero,48(r16)
   42328:	80c00417 	ldw	r3,16(r16)
   4232c:	00bff6c4 	movi	r2,-37
   42330:	118c703a 	and	r6,r2,r6
   42334:	80000115 	stw	zero,4(r16)
   42338:	80c00015 	stw	r3,0(r16)
   4233c:	003fd806 	br	422a0 <__alt_data_end+0xfffcc740>

00042340 <_fflush_r>:
   42340:	defffb04 	addi	sp,sp,-20
   42344:	dcc00315 	stw	r19,12(sp)
   42348:	dc000015 	stw	r16,0(sp)
   4234c:	dfc00415 	stw	ra,16(sp)
   42350:	dc800215 	stw	r18,8(sp)
   42354:	dc400115 	stw	r17,4(sp)
   42358:	2027883a 	mov	r19,r4
   4235c:	2821883a 	mov	r16,r5
   42360:	20000226 	beq	r4,zero,4236c <_fflush_r+0x2c>
   42364:	20800e17 	ldw	r2,56(r4)
   42368:	10005326 	beq	r2,zero,424b8 <_fflush_r+0x178>
   4236c:	8080030b 	ldhu	r2,12(r16)
   42370:	10ffffcc 	andi	r3,r2,65535
   42374:	18e0001c 	xori	r3,r3,32768
   42378:	18e00004 	addi	r3,r3,-32768
   4237c:	18002c26 	beq	r3,zero,42430 <_fflush_r+0xf0>
   42380:	10c0020c 	andi	r3,r2,8
   42384:	1800321e 	bne	r3,zero,42450 <_fflush_r+0x110>
   42388:	80c00117 	ldw	r3,4(r16)
   4238c:	10820014 	ori	r2,r2,2048
   42390:	8080030d 	sth	r2,12(r16)
   42394:	00c0570e 	bge	zero,r3,424f4 <_fflush_r+0x1b4>
   42398:	82000a17 	ldw	r8,40(r16)
   4239c:	40002426 	beq	r8,zero,42430 <_fflush_r+0xf0>
   423a0:	9c400017 	ldw	r17,0(r19)
   423a4:	10c4000c 	andi	r3,r2,4096
   423a8:	98000015 	stw	zero,0(r19)
   423ac:	18004626 	beq	r3,zero,424c8 <_fflush_r+0x188>
   423b0:	81801417 	ldw	r6,80(r16)
   423b4:	10c0010c 	andi	r3,r2,4
   423b8:	18000626 	beq	r3,zero,423d4 <_fflush_r+0x94>
   423bc:	80c00117 	ldw	r3,4(r16)
   423c0:	80800c17 	ldw	r2,48(r16)
   423c4:	30cdc83a 	sub	r6,r6,r3
   423c8:	10000226 	beq	r2,zero,423d4 <_fflush_r+0x94>
   423cc:	80800f17 	ldw	r2,60(r16)
   423d0:	308dc83a 	sub	r6,r6,r2
   423d4:	81400717 	ldw	r5,28(r16)
   423d8:	9809883a 	mov	r4,r19
   423dc:	000f883a 	mov	r7,zero
   423e0:	403ee83a 	callr	r8
   423e4:	00ffffc4 	movi	r3,-1
   423e8:	10c04526 	beq	r2,r3,42500 <_fflush_r+0x1c0>
   423ec:	80c0030b 	ldhu	r3,12(r16)
   423f0:	81000417 	ldw	r4,16(r16)
   423f4:	80000115 	stw	zero,4(r16)
   423f8:	197dffcc 	andi	r5,r3,63487
   423fc:	8140030d 	sth	r5,12(r16)
   42400:	81000015 	stw	r4,0(r16)
   42404:	18c4000c 	andi	r3,r3,4096
   42408:	18000126 	beq	r3,zero,42410 <_fflush_r+0xd0>
   4240c:	80801415 	stw	r2,80(r16)
   42410:	81400c17 	ldw	r5,48(r16)
   42414:	9c400015 	stw	r17,0(r19)
   42418:	28000526 	beq	r5,zero,42430 <_fflush_r+0xf0>
   4241c:	80801004 	addi	r2,r16,64
   42420:	28800226 	beq	r5,r2,4242c <_fflush_r+0xec>
   42424:	9809883a 	mov	r4,r19
   42428:	0042a700 	call	42a70 <_free_r>
   4242c:	80000c15 	stw	zero,48(r16)
   42430:	0005883a 	mov	r2,zero
   42434:	dfc00417 	ldw	ra,16(sp)
   42438:	dcc00317 	ldw	r19,12(sp)
   4243c:	dc800217 	ldw	r18,8(sp)
   42440:	dc400117 	ldw	r17,4(sp)
   42444:	dc000017 	ldw	r16,0(sp)
   42448:	dec00504 	addi	sp,sp,20
   4244c:	f800283a 	ret
   42450:	84800417 	ldw	r18,16(r16)
   42454:	903ff626 	beq	r18,zero,42430 <__alt_data_end+0xfffcc8d0>
   42458:	84400017 	ldw	r17,0(r16)
   4245c:	108000cc 	andi	r2,r2,3
   42460:	84800015 	stw	r18,0(r16)
   42464:	8ca3c83a 	sub	r17,r17,r18
   42468:	10001526 	beq	r2,zero,424c0 <_fflush_r+0x180>
   4246c:	0005883a 	mov	r2,zero
   42470:	80800215 	stw	r2,8(r16)
   42474:	04400316 	blt	zero,r17,42484 <_fflush_r+0x144>
   42478:	003fed06 	br	42430 <__alt_data_end+0xfffcc8d0>
   4247c:	90a5883a 	add	r18,r18,r2
   42480:	047feb0e 	bge	zero,r17,42430 <__alt_data_end+0xfffcc8d0>
   42484:	80800917 	ldw	r2,36(r16)
   42488:	81400717 	ldw	r5,28(r16)
   4248c:	880f883a 	mov	r7,r17
   42490:	900d883a 	mov	r6,r18
   42494:	9809883a 	mov	r4,r19
   42498:	103ee83a 	callr	r2
   4249c:	88a3c83a 	sub	r17,r17,r2
   424a0:	00bff616 	blt	zero,r2,4247c <__alt_data_end+0xfffcc91c>
   424a4:	80c0030b 	ldhu	r3,12(r16)
   424a8:	00bfffc4 	movi	r2,-1
   424ac:	18c01014 	ori	r3,r3,64
   424b0:	80c0030d 	sth	r3,12(r16)
   424b4:	003fdf06 	br	42434 <__alt_data_end+0xfffcc8d4>
   424b8:	00428fc0 	call	428fc <__sinit>
   424bc:	003fab06 	br	4236c <__alt_data_end+0xfffcc80c>
   424c0:	80800517 	ldw	r2,20(r16)
   424c4:	003fea06 	br	42470 <__alt_data_end+0xfffcc910>
   424c8:	81400717 	ldw	r5,28(r16)
   424cc:	000d883a 	mov	r6,zero
   424d0:	9809883a 	mov	r4,r19
   424d4:	01c00044 	movi	r7,1
   424d8:	403ee83a 	callr	r8
   424dc:	100d883a 	mov	r6,r2
   424e0:	00bfffc4 	movi	r2,-1
   424e4:	30801326 	beq	r6,r2,42534 <_fflush_r+0x1f4>
   424e8:	8080030b 	ldhu	r2,12(r16)
   424ec:	82000a17 	ldw	r8,40(r16)
   424f0:	003fb006 	br	423b4 <__alt_data_end+0xfffcc854>
   424f4:	80c00f17 	ldw	r3,60(r16)
   424f8:	00ffa716 	blt	zero,r3,42398 <__alt_data_end+0xfffcc838>
   424fc:	003fcc06 	br	42430 <__alt_data_end+0xfffcc8d0>
   42500:	98c00017 	ldw	r3,0(r19)
   42504:	183fb926 	beq	r3,zero,423ec <__alt_data_end+0xfffcc88c>
   42508:	01000744 	movi	r4,29
   4250c:	19000226 	beq	r3,r4,42518 <_fflush_r+0x1d8>
   42510:	01000584 	movi	r4,22
   42514:	1900101e 	bne	r3,r4,42558 <_fflush_r+0x218>
   42518:	8080030b 	ldhu	r2,12(r16)
   4251c:	80c00417 	ldw	r3,16(r16)
   42520:	80000115 	stw	zero,4(r16)
   42524:	10bdffcc 	andi	r2,r2,63487
   42528:	8080030d 	sth	r2,12(r16)
   4252c:	80c00015 	stw	r3,0(r16)
   42530:	003fb706 	br	42410 <__alt_data_end+0xfffcc8b0>
   42534:	98800017 	ldw	r2,0(r19)
   42538:	103feb26 	beq	r2,zero,424e8 <__alt_data_end+0xfffcc988>
   4253c:	00c00744 	movi	r3,29
   42540:	10c00226 	beq	r2,r3,4254c <_fflush_r+0x20c>
   42544:	00c00584 	movi	r3,22
   42548:	10ffd61e 	bne	r2,r3,424a4 <__alt_data_end+0xfffcc944>
   4254c:	9c400015 	stw	r17,0(r19)
   42550:	0005883a 	mov	r2,zero
   42554:	003fb706 	br	42434 <__alt_data_end+0xfffcc8d4>
   42558:	80c0030b 	ldhu	r3,12(r16)
   4255c:	18c01014 	ori	r3,r3,64
   42560:	80c0030d 	sth	r3,12(r16)
   42564:	003fb306 	br	42434 <__alt_data_end+0xfffcc8d4>

00042568 <fflush>:
   42568:	20000526 	beq	r4,zero,42580 <fflush+0x18>
   4256c:	00800174 	movhi	r2,5
   42570:	1083ec04 	addi	r2,r2,4016
   42574:	200b883a 	mov	r5,r4
   42578:	11000017 	ldw	r4,0(r2)
   4257c:	00423401 	jmpi	42340 <_fflush_r>
   42580:	00800174 	movhi	r2,5
   42584:	1083eb04 	addi	r2,r2,4012
   42588:	11000017 	ldw	r4,0(r2)
   4258c:	01400134 	movhi	r5,4
   42590:	2948d004 	addi	r5,r5,9024
   42594:	0042e181 	jmpi	42e18 <_fwalk_reent>

00042598 <__fp_lock>:
   42598:	0005883a 	mov	r2,zero
   4259c:	f800283a 	ret

000425a0 <__fp_unlock>:
   425a0:	0005883a 	mov	r2,zero
   425a4:	f800283a 	ret

000425a8 <_cleanup_r>:
   425a8:	01400134 	movhi	r5,4
   425ac:	294d2604 	addi	r5,r5,13464
   425b0:	0042d601 	jmpi	42d60 <_fwalk>

000425b4 <__sinit.part.1>:
   425b4:	defff604 	addi	sp,sp,-40
   425b8:	00c00134 	movhi	r3,4
   425bc:	dfc00915 	stw	ra,36(sp)
   425c0:	df000815 	stw	fp,32(sp)
   425c4:	ddc00715 	stw	r23,28(sp)
   425c8:	dd800615 	stw	r22,24(sp)
   425cc:	dd400515 	stw	r21,20(sp)
   425d0:	dd000415 	stw	r20,16(sp)
   425d4:	dcc00315 	stw	r19,12(sp)
   425d8:	dc800215 	stw	r18,8(sp)
   425dc:	dc400115 	stw	r17,4(sp)
   425e0:	dc000015 	stw	r16,0(sp)
   425e4:	18c96a04 	addi	r3,r3,9640
   425e8:	24000117 	ldw	r16,4(r4)
   425ec:	20c00f15 	stw	r3,60(r4)
   425f0:	07000044 	movi	fp,1
   425f4:	00c000c4 	movi	r3,3
   425f8:	2080bb04 	addi	r2,r4,748
   425fc:	20c0b915 	stw	r3,740(r4)
   42600:	27000e15 	stw	fp,56(r4)
   42604:	2080ba15 	stw	r2,744(r4)
   42608:	2000b815 	stw	zero,736(r4)
   4260c:	05c00204 	movi	r23,8
   42610:	00800104 	movi	r2,4
   42614:	2025883a 	mov	r18,r4
   42618:	b80d883a 	mov	r6,r23
   4261c:	81001704 	addi	r4,r16,92
   42620:	000b883a 	mov	r5,zero
   42624:	80000015 	stw	zero,0(r16)
   42628:	80000115 	stw	zero,4(r16)
   4262c:	80000215 	stw	zero,8(r16)
   42630:	8080030d 	sth	r2,12(r16)
   42634:	80001915 	stw	zero,100(r16)
   42638:	8000038d 	sth	zero,14(r16)
   4263c:	80000415 	stw	zero,16(r16)
   42640:	80000515 	stw	zero,20(r16)
   42644:	80000615 	stw	zero,24(r16)
   42648:	00430880 	call	43088 <memset>
   4264c:	05800134 	movhi	r22,4
   42650:	94400217 	ldw	r17,8(r18)
   42654:	05400134 	movhi	r21,4
   42658:	05000134 	movhi	r20,4
   4265c:	04c00134 	movhi	r19,4
   42660:	b58c6b04 	addi	r22,r22,12716
   42664:	ad4c8204 	addi	r21,r21,12808
   42668:	a50ca104 	addi	r20,r20,12932
   4266c:	9cccb804 	addi	r19,r19,13024
   42670:	85800815 	stw	r22,32(r16)
   42674:	85400915 	stw	r21,36(r16)
   42678:	85000a15 	stw	r20,40(r16)
   4267c:	84c00b15 	stw	r19,44(r16)
   42680:	84000715 	stw	r16,28(r16)
   42684:	00800284 	movi	r2,10
   42688:	89001704 	addi	r4,r17,92
   4268c:	b80d883a 	mov	r6,r23
   42690:	000b883a 	mov	r5,zero
   42694:	88000015 	stw	zero,0(r17)
   42698:	88000115 	stw	zero,4(r17)
   4269c:	88000215 	stw	zero,8(r17)
   426a0:	8880030d 	sth	r2,12(r17)
   426a4:	88001915 	stw	zero,100(r17)
   426a8:	8f00038d 	sth	fp,14(r17)
   426ac:	88000415 	stw	zero,16(r17)
   426b0:	88000515 	stw	zero,20(r17)
   426b4:	88000615 	stw	zero,24(r17)
   426b8:	00430880 	call	43088 <memset>
   426bc:	94000317 	ldw	r16,12(r18)
   426c0:	00800484 	movi	r2,18
   426c4:	8c400715 	stw	r17,28(r17)
   426c8:	8d800815 	stw	r22,32(r17)
   426cc:	8d400915 	stw	r21,36(r17)
   426d0:	8d000a15 	stw	r20,40(r17)
   426d4:	8cc00b15 	stw	r19,44(r17)
   426d8:	8080030d 	sth	r2,12(r16)
   426dc:	00800084 	movi	r2,2
   426e0:	80000015 	stw	zero,0(r16)
   426e4:	80000115 	stw	zero,4(r16)
   426e8:	80000215 	stw	zero,8(r16)
   426ec:	80001915 	stw	zero,100(r16)
   426f0:	8080038d 	sth	r2,14(r16)
   426f4:	80000415 	stw	zero,16(r16)
   426f8:	80000515 	stw	zero,20(r16)
   426fc:	80000615 	stw	zero,24(r16)
   42700:	81001704 	addi	r4,r16,92
   42704:	000b883a 	mov	r5,zero
   42708:	b80d883a 	mov	r6,r23
   4270c:	00430880 	call	43088 <memset>
   42710:	84000715 	stw	r16,28(r16)
   42714:	85800815 	stw	r22,32(r16)
   42718:	85400915 	stw	r21,36(r16)
   4271c:	85000a15 	stw	r20,40(r16)
   42720:	84c00b15 	stw	r19,44(r16)
   42724:	dfc00917 	ldw	ra,36(sp)
   42728:	df000817 	ldw	fp,32(sp)
   4272c:	ddc00717 	ldw	r23,28(sp)
   42730:	dd800617 	ldw	r22,24(sp)
   42734:	dd400517 	ldw	r21,20(sp)
   42738:	dd000417 	ldw	r20,16(sp)
   4273c:	dcc00317 	ldw	r19,12(sp)
   42740:	dc800217 	ldw	r18,8(sp)
   42744:	dc400117 	ldw	r17,4(sp)
   42748:	dc000017 	ldw	r16,0(sp)
   4274c:	dec00a04 	addi	sp,sp,40
   42750:	f800283a 	ret

00042754 <__sfmoreglue>:
   42754:	defffc04 	addi	sp,sp,-16
   42758:	dc800215 	stw	r18,8(sp)
   4275c:	2825883a 	mov	r18,r5
   42760:	dc000015 	stw	r16,0(sp)
   42764:	01401a04 	movi	r5,104
   42768:	2021883a 	mov	r16,r4
   4276c:	9009883a 	mov	r4,r18
   42770:	dfc00315 	stw	ra,12(sp)
   42774:	dc400115 	stw	r17,4(sp)
   42778:	00436100 	call	43610 <__mulsi3>
   4277c:	8009883a 	mov	r4,r16
   42780:	11400304 	addi	r5,r2,12
   42784:	1023883a 	mov	r17,r2
   42788:	00410f80 	call	410f8 <_malloc_r>
   4278c:	1021883a 	mov	r16,r2
   42790:	10000726 	beq	r2,zero,427b0 <__sfmoreglue+0x5c>
   42794:	11000304 	addi	r4,r2,12
   42798:	10000015 	stw	zero,0(r2)
   4279c:	14800115 	stw	r18,4(r2)
   427a0:	11000215 	stw	r4,8(r2)
   427a4:	000b883a 	mov	r5,zero
   427a8:	880d883a 	mov	r6,r17
   427ac:	00430880 	call	43088 <memset>
   427b0:	8005883a 	mov	r2,r16
   427b4:	dfc00317 	ldw	ra,12(sp)
   427b8:	dc800217 	ldw	r18,8(sp)
   427bc:	dc400117 	ldw	r17,4(sp)
   427c0:	dc000017 	ldw	r16,0(sp)
   427c4:	dec00404 	addi	sp,sp,16
   427c8:	f800283a 	ret

000427cc <__sfp>:
   427cc:	00800174 	movhi	r2,5
   427d0:	defffb04 	addi	sp,sp,-20
   427d4:	1083eb04 	addi	r2,r2,4012
   427d8:	dc800215 	stw	r18,8(sp)
   427dc:	14800017 	ldw	r18,0(r2)
   427e0:	dcc00315 	stw	r19,12(sp)
   427e4:	dfc00415 	stw	ra,16(sp)
   427e8:	90800e17 	ldw	r2,56(r18)
   427ec:	dc400115 	stw	r17,4(sp)
   427f0:	dc000015 	stw	r16,0(sp)
   427f4:	2027883a 	mov	r19,r4
   427f8:	1000021e 	bne	r2,zero,42804 <__sfp+0x38>
   427fc:	9009883a 	mov	r4,r18
   42800:	00425b40 	call	425b4 <__sinit.part.1>
   42804:	9480b804 	addi	r18,r18,736
   42808:	047fffc4 	movi	r17,-1
   4280c:	91400117 	ldw	r5,4(r18)
   42810:	94000217 	ldw	r16,8(r18)
   42814:	297fffc4 	addi	r5,r5,-1
   42818:	28000a16 	blt	r5,zero,42844 <__sfp+0x78>
   4281c:	8080030f 	ldh	r2,12(r16)
   42820:	10000c26 	beq	r2,zero,42854 <__sfp+0x88>
   42824:	80c01d04 	addi	r3,r16,116
   42828:	00000206 	br	42834 <__sfp+0x68>
   4282c:	18bfe60f 	ldh	r2,-104(r3)
   42830:	10000826 	beq	r2,zero,42854 <__sfp+0x88>
   42834:	297fffc4 	addi	r5,r5,-1
   42838:	1c3ffd04 	addi	r16,r3,-12
   4283c:	18c01a04 	addi	r3,r3,104
   42840:	2c7ffa1e 	bne	r5,r17,4282c <__alt_data_end+0xfffccccc>
   42844:	90800017 	ldw	r2,0(r18)
   42848:	10001d26 	beq	r2,zero,428c0 <__sfp+0xf4>
   4284c:	1025883a 	mov	r18,r2
   42850:	003fee06 	br	4280c <__alt_data_end+0xfffcccac>
   42854:	00bfffc4 	movi	r2,-1
   42858:	8080038d 	sth	r2,14(r16)
   4285c:	00800044 	movi	r2,1
   42860:	8080030d 	sth	r2,12(r16)
   42864:	80001915 	stw	zero,100(r16)
   42868:	80000015 	stw	zero,0(r16)
   4286c:	80000215 	stw	zero,8(r16)
   42870:	80000115 	stw	zero,4(r16)
   42874:	80000415 	stw	zero,16(r16)
   42878:	80000515 	stw	zero,20(r16)
   4287c:	80000615 	stw	zero,24(r16)
   42880:	81001704 	addi	r4,r16,92
   42884:	000b883a 	mov	r5,zero
   42888:	01800204 	movi	r6,8
   4288c:	00430880 	call	43088 <memset>
   42890:	8005883a 	mov	r2,r16
   42894:	80000c15 	stw	zero,48(r16)
   42898:	80000d15 	stw	zero,52(r16)
   4289c:	80001115 	stw	zero,68(r16)
   428a0:	80001215 	stw	zero,72(r16)
   428a4:	dfc00417 	ldw	ra,16(sp)
   428a8:	dcc00317 	ldw	r19,12(sp)
   428ac:	dc800217 	ldw	r18,8(sp)
   428b0:	dc400117 	ldw	r17,4(sp)
   428b4:	dc000017 	ldw	r16,0(sp)
   428b8:	dec00504 	addi	sp,sp,20
   428bc:	f800283a 	ret
   428c0:	9809883a 	mov	r4,r19
   428c4:	01400104 	movi	r5,4
   428c8:	00427540 	call	42754 <__sfmoreglue>
   428cc:	90800015 	stw	r2,0(r18)
   428d0:	103fde1e 	bne	r2,zero,4284c <__alt_data_end+0xfffcccec>
   428d4:	00800304 	movi	r2,12
   428d8:	98800015 	stw	r2,0(r19)
   428dc:	0005883a 	mov	r2,zero
   428e0:	003ff006 	br	428a4 <__alt_data_end+0xfffccd44>

000428e4 <_cleanup>:
   428e4:	00800174 	movhi	r2,5
   428e8:	1083eb04 	addi	r2,r2,4012
   428ec:	11000017 	ldw	r4,0(r2)
   428f0:	01400134 	movhi	r5,4
   428f4:	294d2604 	addi	r5,r5,13464
   428f8:	0042d601 	jmpi	42d60 <_fwalk>

000428fc <__sinit>:
   428fc:	20800e17 	ldw	r2,56(r4)
   42900:	10000126 	beq	r2,zero,42908 <__sinit+0xc>
   42904:	f800283a 	ret
   42908:	00425b41 	jmpi	425b4 <__sinit.part.1>

0004290c <__sfp_lock_acquire>:
   4290c:	f800283a 	ret

00042910 <__sfp_lock_release>:
   42910:	f800283a 	ret

00042914 <__sinit_lock_acquire>:
   42914:	f800283a 	ret

00042918 <__sinit_lock_release>:
   42918:	f800283a 	ret

0004291c <__fp_lock_all>:
   4291c:	00800174 	movhi	r2,5
   42920:	1083ec04 	addi	r2,r2,4016
   42924:	11000017 	ldw	r4,0(r2)
   42928:	01400134 	movhi	r5,4
   4292c:	29496604 	addi	r5,r5,9624
   42930:	0042d601 	jmpi	42d60 <_fwalk>

00042934 <__fp_unlock_all>:
   42934:	00800174 	movhi	r2,5
   42938:	1083ec04 	addi	r2,r2,4016
   4293c:	11000017 	ldw	r4,0(r2)
   42940:	01400134 	movhi	r5,4
   42944:	29496804 	addi	r5,r5,9632
   42948:	0042d601 	jmpi	42d60 <_fwalk>

0004294c <_malloc_trim_r>:
   4294c:	defffb04 	addi	sp,sp,-20
   42950:	dcc00315 	stw	r19,12(sp)
   42954:	04c00174 	movhi	r19,5
   42958:	dc800215 	stw	r18,8(sp)
   4295c:	dc400115 	stw	r17,4(sp)
   42960:	dc000015 	stw	r16,0(sp)
   42964:	dfc00415 	stw	ra,16(sp)
   42968:	2821883a 	mov	r16,r5
   4296c:	9cfe3004 	addi	r19,r19,-1856
   42970:	2025883a 	mov	r18,r4
   42974:	00441640 	call	44164 <__malloc_lock>
   42978:	98800217 	ldw	r2,8(r19)
   4297c:	14400117 	ldw	r17,4(r2)
   42980:	00bfff04 	movi	r2,-4
   42984:	88a2703a 	and	r17,r17,r2
   42988:	8c21c83a 	sub	r16,r17,r16
   4298c:	8403fbc4 	addi	r16,r16,4079
   42990:	8020d33a 	srli	r16,r16,12
   42994:	0083ffc4 	movi	r2,4095
   42998:	843fffc4 	addi	r16,r16,-1
   4299c:	8020933a 	slli	r16,r16,12
   429a0:	1400060e 	bge	r2,r16,429bc <_malloc_trim_r+0x70>
   429a4:	9009883a 	mov	r4,r18
   429a8:	000b883a 	mov	r5,zero
   429ac:	00421bc0 	call	421bc <_sbrk_r>
   429b0:	98c00217 	ldw	r3,8(r19)
   429b4:	1c47883a 	add	r3,r3,r17
   429b8:	10c00a26 	beq	r2,r3,429e4 <_malloc_trim_r+0x98>
   429bc:	9009883a 	mov	r4,r18
   429c0:	00442840 	call	44284 <__malloc_unlock>
   429c4:	0005883a 	mov	r2,zero
   429c8:	dfc00417 	ldw	ra,16(sp)
   429cc:	dcc00317 	ldw	r19,12(sp)
   429d0:	dc800217 	ldw	r18,8(sp)
   429d4:	dc400117 	ldw	r17,4(sp)
   429d8:	dc000017 	ldw	r16,0(sp)
   429dc:	dec00504 	addi	sp,sp,20
   429e0:	f800283a 	ret
   429e4:	9009883a 	mov	r4,r18
   429e8:	040bc83a 	sub	r5,zero,r16
   429ec:	00421bc0 	call	421bc <_sbrk_r>
   429f0:	00ffffc4 	movi	r3,-1
   429f4:	10c00d26 	beq	r2,r3,42a2c <_malloc_trim_r+0xe0>
   429f8:	00c00174 	movhi	r3,5
   429fc:	18cb2d04 	addi	r3,r3,11444
   42a00:	18800017 	ldw	r2,0(r3)
   42a04:	99000217 	ldw	r4,8(r19)
   42a08:	8c23c83a 	sub	r17,r17,r16
   42a0c:	8c400054 	ori	r17,r17,1
   42a10:	1421c83a 	sub	r16,r2,r16
   42a14:	24400115 	stw	r17,4(r4)
   42a18:	9009883a 	mov	r4,r18
   42a1c:	1c000015 	stw	r16,0(r3)
   42a20:	00442840 	call	44284 <__malloc_unlock>
   42a24:	00800044 	movi	r2,1
   42a28:	003fe706 	br	429c8 <__alt_data_end+0xfffcce68>
   42a2c:	9009883a 	mov	r4,r18
   42a30:	000b883a 	mov	r5,zero
   42a34:	00421bc0 	call	421bc <_sbrk_r>
   42a38:	99000217 	ldw	r4,8(r19)
   42a3c:	014003c4 	movi	r5,15
   42a40:	1107c83a 	sub	r3,r2,r4
   42a44:	28ffdd0e 	bge	r5,r3,429bc <__alt_data_end+0xfffcce5c>
   42a48:	01400174 	movhi	r5,5
   42a4c:	2943ed04 	addi	r5,r5,4020
   42a50:	29400017 	ldw	r5,0(r5)
   42a54:	18c00054 	ori	r3,r3,1
   42a58:	20c00115 	stw	r3,4(r4)
   42a5c:	00c00174 	movhi	r3,5
   42a60:	1145c83a 	sub	r2,r2,r5
   42a64:	18cb2d04 	addi	r3,r3,11444
   42a68:	18800015 	stw	r2,0(r3)
   42a6c:	003fd306 	br	429bc <__alt_data_end+0xfffcce5c>

00042a70 <_free_r>:
   42a70:	28004c26 	beq	r5,zero,42ba4 <_free_r+0x134>
   42a74:	defffd04 	addi	sp,sp,-12
   42a78:	dc400115 	stw	r17,4(sp)
   42a7c:	dc000015 	stw	r16,0(sp)
   42a80:	2023883a 	mov	r17,r4
   42a84:	2821883a 	mov	r16,r5
   42a88:	dfc00215 	stw	ra,8(sp)
   42a8c:	00441640 	call	44164 <__malloc_lock>
   42a90:	813fff17 	ldw	r4,-4(r16)
   42a94:	00bfff84 	movi	r2,-2
   42a98:	02400174 	movhi	r9,5
   42a9c:	81bffe04 	addi	r6,r16,-8
   42aa0:	2084703a 	and	r2,r4,r2
   42aa4:	4a7e3004 	addi	r9,r9,-1856
   42aa8:	308b883a 	add	r5,r6,r2
   42aac:	2a000117 	ldw	r8,4(r5)
   42ab0:	49c00217 	ldw	r7,8(r9)
   42ab4:	00ffff04 	movi	r3,-4
   42ab8:	40c6703a 	and	r3,r8,r3
   42abc:	39405326 	beq	r7,r5,42c0c <_free_r+0x19c>
   42ac0:	28c00115 	stw	r3,4(r5)
   42ac4:	2100004c 	andi	r4,r4,1
   42ac8:	2000091e 	bne	r4,zero,42af0 <_free_r+0x80>
   42acc:	81fffe17 	ldw	r7,-8(r16)
   42ad0:	4a000204 	addi	r8,r9,8
   42ad4:	31cdc83a 	sub	r6,r6,r7
   42ad8:	31000217 	ldw	r4,8(r6)
   42adc:	11c5883a 	add	r2,r2,r7
   42ae0:	22006126 	beq	r4,r8,42c68 <_free_r+0x1f8>
   42ae4:	31c00317 	ldw	r7,12(r6)
   42ae8:	21c00315 	stw	r7,12(r4)
   42aec:	39000215 	stw	r4,8(r7)
   42af0:	28c9883a 	add	r4,r5,r3
   42af4:	21c00117 	ldw	r7,4(r4)
   42af8:	39c0004c 	andi	r7,r7,1
   42afc:	38000d1e 	bne	r7,zero,42b34 <_free_r+0xc4>
   42b00:	29000217 	ldw	r4,8(r5)
   42b04:	10c5883a 	add	r2,r2,r3
   42b08:	00c00174 	movhi	r3,5
   42b0c:	18fe3204 	addi	r3,r3,-1848
   42b10:	20c07526 	beq	r4,r3,42ce8 <_free_r+0x278>
   42b14:	29c00317 	ldw	r7,12(r5)
   42b18:	11400054 	ori	r5,r2,1
   42b1c:	3087883a 	add	r3,r6,r2
   42b20:	21c00315 	stw	r7,12(r4)
   42b24:	39000215 	stw	r4,8(r7)
   42b28:	31400115 	stw	r5,4(r6)
   42b2c:	18800015 	stw	r2,0(r3)
   42b30:	00000406 	br	42b44 <_free_r+0xd4>
   42b34:	10c00054 	ori	r3,r2,1
   42b38:	30c00115 	stw	r3,4(r6)
   42b3c:	3087883a 	add	r3,r6,r2
   42b40:	18800015 	stw	r2,0(r3)
   42b44:	00c07fc4 	movi	r3,511
   42b48:	18801736 	bltu	r3,r2,42ba8 <_free_r+0x138>
   42b4c:	1004d0fa 	srli	r2,r2,3
   42b50:	01400044 	movi	r5,1
   42b54:	49000117 	ldw	r4,4(r9)
   42b58:	1087883a 	add	r3,r2,r2
   42b5c:	18c7883a 	add	r3,r3,r3
   42b60:	1005d0ba 	srai	r2,r2,2
   42b64:	18c7883a 	add	r3,r3,r3
   42b68:	1a47883a 	add	r3,r3,r9
   42b6c:	19c00217 	ldw	r7,8(r3)
   42b70:	2884983a 	sll	r2,r5,r2
   42b74:	30c00315 	stw	r3,12(r6)
   42b78:	31c00215 	stw	r7,8(r6)
   42b7c:	1104b03a 	or	r2,r2,r4
   42b80:	19800215 	stw	r6,8(r3)
   42b84:	48800115 	stw	r2,4(r9)
   42b88:	39800315 	stw	r6,12(r7)
   42b8c:	8809883a 	mov	r4,r17
   42b90:	dfc00217 	ldw	ra,8(sp)
   42b94:	dc400117 	ldw	r17,4(sp)
   42b98:	dc000017 	ldw	r16,0(sp)
   42b9c:	dec00304 	addi	sp,sp,12
   42ba0:	00442841 	jmpi	44284 <__malloc_unlock>
   42ba4:	f800283a 	ret
   42ba8:	1006d27a 	srli	r3,r2,9
   42bac:	01000104 	movi	r4,4
   42bb0:	20c04036 	bltu	r4,r3,42cb4 <_free_r+0x244>
   42bb4:	1006d1ba 	srli	r3,r2,6
   42bb8:	19400e04 	addi	r5,r3,56
   42bbc:	2947883a 	add	r3,r5,r5
   42bc0:	18c7883a 	add	r3,r3,r3
   42bc4:	18c7883a 	add	r3,r3,r3
   42bc8:	1a49883a 	add	r4,r3,r9
   42bcc:	20c00217 	ldw	r3,8(r4)
   42bd0:	01c00174 	movhi	r7,5
   42bd4:	39fe3004 	addi	r7,r7,-1856
   42bd8:	19003b26 	beq	r3,r4,42cc8 <_free_r+0x258>
   42bdc:	01ffff04 	movi	r7,-4
   42be0:	19400117 	ldw	r5,4(r3)
   42be4:	29ca703a 	and	r5,r5,r7
   42be8:	1140022e 	bgeu	r2,r5,42bf4 <_free_r+0x184>
   42bec:	18c00217 	ldw	r3,8(r3)
   42bf0:	20fffb1e 	bne	r4,r3,42be0 <__alt_data_end+0xfffcd080>
   42bf4:	18800317 	ldw	r2,12(r3)
   42bf8:	30800315 	stw	r2,12(r6)
   42bfc:	30c00215 	stw	r3,8(r6)
   42c00:	11800215 	stw	r6,8(r2)
   42c04:	19800315 	stw	r6,12(r3)
   42c08:	003fe006 	br	42b8c <__alt_data_end+0xfffcd02c>
   42c0c:	2100004c 	andi	r4,r4,1
   42c10:	1885883a 	add	r2,r3,r2
   42c14:	2000071e 	bne	r4,zero,42c34 <_free_r+0x1c4>
   42c18:	817ffe17 	ldw	r5,-8(r16)
   42c1c:	314dc83a 	sub	r6,r6,r5
   42c20:	30c00317 	ldw	r3,12(r6)
   42c24:	31000217 	ldw	r4,8(r6)
   42c28:	1145883a 	add	r2,r2,r5
   42c2c:	20c00315 	stw	r3,12(r4)
   42c30:	19000215 	stw	r4,8(r3)
   42c34:	10c00054 	ori	r3,r2,1
   42c38:	30c00115 	stw	r3,4(r6)
   42c3c:	00c00174 	movhi	r3,5
   42c40:	18c3ee04 	addi	r3,r3,4024
   42c44:	18c00017 	ldw	r3,0(r3)
   42c48:	49800215 	stw	r6,8(r9)
   42c4c:	10ffcf36 	bltu	r2,r3,42b8c <__alt_data_end+0xfffcd02c>
   42c50:	00800174 	movhi	r2,5
   42c54:	108b0b04 	addi	r2,r2,11308
   42c58:	11400017 	ldw	r5,0(r2)
   42c5c:	8809883a 	mov	r4,r17
   42c60:	004294c0 	call	4294c <_malloc_trim_r>
   42c64:	003fc906 	br	42b8c <__alt_data_end+0xfffcd02c>
   42c68:	28c9883a 	add	r4,r5,r3
   42c6c:	21000117 	ldw	r4,4(r4)
   42c70:	2100004c 	andi	r4,r4,1
   42c74:	20000a1e 	bne	r4,zero,42ca0 <_free_r+0x230>
   42c78:	29000317 	ldw	r4,12(r5)
   42c7c:	29400217 	ldw	r5,8(r5)
   42c80:	10c5883a 	add	r2,r2,r3
   42c84:	10c00054 	ori	r3,r2,1
   42c88:	29000315 	stw	r4,12(r5)
   42c8c:	21400215 	stw	r5,8(r4)
   42c90:	30c00115 	stw	r3,4(r6)
   42c94:	308d883a 	add	r6,r6,r2
   42c98:	30800015 	stw	r2,0(r6)
   42c9c:	003fbb06 	br	42b8c <__alt_data_end+0xfffcd02c>
   42ca0:	10c00054 	ori	r3,r2,1
   42ca4:	30c00115 	stw	r3,4(r6)
   42ca8:	308d883a 	add	r6,r6,r2
   42cac:	30800015 	stw	r2,0(r6)
   42cb0:	003fb606 	br	42b8c <__alt_data_end+0xfffcd02c>
   42cb4:	01000504 	movi	r4,20
   42cb8:	20c01436 	bltu	r4,r3,42d0c <_free_r+0x29c>
   42cbc:	194016c4 	addi	r5,r3,91
   42cc0:	2947883a 	add	r3,r5,r5
   42cc4:	003fbe06 	br	42bc0 <__alt_data_end+0xfffcd060>
   42cc8:	280bd0ba 	srai	r5,r5,2
   42ccc:	00800044 	movi	r2,1
   42cd0:	39000117 	ldw	r4,4(r7)
   42cd4:	114a983a 	sll	r5,r2,r5
   42cd8:	1805883a 	mov	r2,r3
   42cdc:	2908b03a 	or	r4,r5,r4
   42ce0:	39000115 	stw	r4,4(r7)
   42ce4:	003fc406 	br	42bf8 <__alt_data_end+0xfffcd098>
   42ce8:	49800515 	stw	r6,20(r9)
   42cec:	49800415 	stw	r6,16(r9)
   42cf0:	10c00054 	ori	r3,r2,1
   42cf4:	31000315 	stw	r4,12(r6)
   42cf8:	31000215 	stw	r4,8(r6)
   42cfc:	30c00115 	stw	r3,4(r6)
   42d00:	308d883a 	add	r6,r6,r2
   42d04:	30800015 	stw	r2,0(r6)
   42d08:	003fa006 	br	42b8c <__alt_data_end+0xfffcd02c>
   42d0c:	01001504 	movi	r4,84
   42d10:	20c00436 	bltu	r4,r3,42d24 <_free_r+0x2b4>
   42d14:	1006d33a 	srli	r3,r2,12
   42d18:	19401b84 	addi	r5,r3,110
   42d1c:	2947883a 	add	r3,r5,r5
   42d20:	003fa706 	br	42bc0 <__alt_data_end+0xfffcd060>
   42d24:	01005504 	movi	r4,340
   42d28:	20c00436 	bltu	r4,r3,42d3c <_free_r+0x2cc>
   42d2c:	1006d3fa 	srli	r3,r2,15
   42d30:	19401dc4 	addi	r5,r3,119
   42d34:	2947883a 	add	r3,r5,r5
   42d38:	003fa106 	br	42bc0 <__alt_data_end+0xfffcd060>
   42d3c:	01015504 	movi	r4,1364
   42d40:	20c00436 	bltu	r4,r3,42d54 <_free_r+0x2e4>
   42d44:	1006d4ba 	srli	r3,r2,18
   42d48:	19401f04 	addi	r5,r3,124
   42d4c:	2947883a 	add	r3,r5,r5
   42d50:	003f9b06 	br	42bc0 <__alt_data_end+0xfffcd060>
   42d54:	00c03f04 	movi	r3,252
   42d58:	01401f84 	movi	r5,126
   42d5c:	003f9806 	br	42bc0 <__alt_data_end+0xfffcd060>

00042d60 <_fwalk>:
   42d60:	defff804 	addi	sp,sp,-32
   42d64:	dd400515 	stw	r21,20(sp)
   42d68:	2540b804 	addi	r21,r4,736
   42d6c:	dd800615 	stw	r22,24(sp)
   42d70:	dd000415 	stw	r20,16(sp)
   42d74:	dfc00715 	stw	ra,28(sp)
   42d78:	dcc00315 	stw	r19,12(sp)
   42d7c:	dc800215 	stw	r18,8(sp)
   42d80:	dc400115 	stw	r17,4(sp)
   42d84:	dc000015 	stw	r16,0(sp)
   42d88:	2829883a 	mov	r20,r5
   42d8c:	002d883a 	mov	r22,zero
   42d90:	004290c0 	call	4290c <__sfp_lock_acquire>
   42d94:	a8001426 	beq	r21,zero,42de8 <_fwalk+0x88>
   42d98:	04ffffc4 	movi	r19,-1
   42d9c:	ac400117 	ldw	r17,4(r21)
   42da0:	ac800217 	ldw	r18,8(r21)
   42da4:	8c7fffc4 	addi	r17,r17,-1
   42da8:	88000d16 	blt	r17,zero,42de0 <_fwalk+0x80>
   42dac:	94000304 	addi	r16,r18,12
   42db0:	94800384 	addi	r18,r18,14
   42db4:	80c0000f 	ldh	r3,0(r16)
   42db8:	8c7fffc4 	addi	r17,r17,-1
   42dbc:	813ffd04 	addi	r4,r16,-12
   42dc0:	18000426 	beq	r3,zero,42dd4 <_fwalk+0x74>
   42dc4:	90c0000f 	ldh	r3,0(r18)
   42dc8:	1cc00226 	beq	r3,r19,42dd4 <_fwalk+0x74>
   42dcc:	a03ee83a 	callr	r20
   42dd0:	b0acb03a 	or	r22,r22,r2
   42dd4:	84001a04 	addi	r16,r16,104
   42dd8:	94801a04 	addi	r18,r18,104
   42ddc:	8cfff51e 	bne	r17,r19,42db4 <__alt_data_end+0xfffcd254>
   42de0:	ad400017 	ldw	r21,0(r21)
   42de4:	a83fed1e 	bne	r21,zero,42d9c <__alt_data_end+0xfffcd23c>
   42de8:	00429100 	call	42910 <__sfp_lock_release>
   42dec:	b005883a 	mov	r2,r22
   42df0:	dfc00717 	ldw	ra,28(sp)
   42df4:	dd800617 	ldw	r22,24(sp)
   42df8:	dd400517 	ldw	r21,20(sp)
   42dfc:	dd000417 	ldw	r20,16(sp)
   42e00:	dcc00317 	ldw	r19,12(sp)
   42e04:	dc800217 	ldw	r18,8(sp)
   42e08:	dc400117 	ldw	r17,4(sp)
   42e0c:	dc000017 	ldw	r16,0(sp)
   42e10:	dec00804 	addi	sp,sp,32
   42e14:	f800283a 	ret

00042e18 <_fwalk_reent>:
   42e18:	defff804 	addi	sp,sp,-32
   42e1c:	dd400515 	stw	r21,20(sp)
   42e20:	2540b804 	addi	r21,r4,736
   42e24:	dd800615 	stw	r22,24(sp)
   42e28:	dd000415 	stw	r20,16(sp)
   42e2c:	dcc00315 	stw	r19,12(sp)
   42e30:	dfc00715 	stw	ra,28(sp)
   42e34:	dc800215 	stw	r18,8(sp)
   42e38:	dc400115 	stw	r17,4(sp)
   42e3c:	dc000015 	stw	r16,0(sp)
   42e40:	2027883a 	mov	r19,r4
   42e44:	2829883a 	mov	r20,r5
   42e48:	002d883a 	mov	r22,zero
   42e4c:	004290c0 	call	4290c <__sfp_lock_acquire>
   42e50:	a8001326 	beq	r21,zero,42ea0 <_fwalk_reent+0x88>
   42e54:	04bfffc4 	movi	r18,-1
   42e58:	ac400117 	ldw	r17,4(r21)
   42e5c:	ac000217 	ldw	r16,8(r21)
   42e60:	8c7fffc4 	addi	r17,r17,-1
   42e64:	88000c16 	blt	r17,zero,42e98 <_fwalk_reent+0x80>
   42e68:	84000304 	addi	r16,r16,12
   42e6c:	80c0000f 	ldh	r3,0(r16)
   42e70:	8c7fffc4 	addi	r17,r17,-1
   42e74:	817ffd04 	addi	r5,r16,-12
   42e78:	18000526 	beq	r3,zero,42e90 <_fwalk_reent+0x78>
   42e7c:	80c0008f 	ldh	r3,2(r16)
   42e80:	9809883a 	mov	r4,r19
   42e84:	1c800226 	beq	r3,r18,42e90 <_fwalk_reent+0x78>
   42e88:	a03ee83a 	callr	r20
   42e8c:	b0acb03a 	or	r22,r22,r2
   42e90:	84001a04 	addi	r16,r16,104
   42e94:	8cbff51e 	bne	r17,r18,42e6c <__alt_data_end+0xfffcd30c>
   42e98:	ad400017 	ldw	r21,0(r21)
   42e9c:	a83fee1e 	bne	r21,zero,42e58 <__alt_data_end+0xfffcd2f8>
   42ea0:	00429100 	call	42910 <__sfp_lock_release>
   42ea4:	b005883a 	mov	r2,r22
   42ea8:	dfc00717 	ldw	ra,28(sp)
   42eac:	dd800617 	ldw	r22,24(sp)
   42eb0:	dd400517 	ldw	r21,20(sp)
   42eb4:	dd000417 	ldw	r20,16(sp)
   42eb8:	dcc00317 	ldw	r19,12(sp)
   42ebc:	dc800217 	ldw	r18,8(sp)
   42ec0:	dc400117 	ldw	r17,4(sp)
   42ec4:	dc000017 	ldw	r16,0(sp)
   42ec8:	dec00804 	addi	sp,sp,32
   42ecc:	f800283a 	ret

00042ed0 <__smakebuf_r>:
   42ed0:	2880030b 	ldhu	r2,12(r5)
   42ed4:	10c0008c 	andi	r3,r2,2
   42ed8:	1800401e 	bne	r3,zero,42fdc <__smakebuf_r+0x10c>
   42edc:	deffec04 	addi	sp,sp,-80
   42ee0:	dc000f15 	stw	r16,60(sp)
   42ee4:	2821883a 	mov	r16,r5
   42ee8:	2940038f 	ldh	r5,14(r5)
   42eec:	dc401015 	stw	r17,64(sp)
   42ef0:	dfc01315 	stw	ra,76(sp)
   42ef4:	dcc01215 	stw	r19,72(sp)
   42ef8:	dc801115 	stw	r18,68(sp)
   42efc:	2023883a 	mov	r17,r4
   42f00:	28001b16 	blt	r5,zero,42f70 <__smakebuf_r+0xa0>
   42f04:	d80d883a 	mov	r6,sp
   42f08:	00434ac0 	call	434ac <_fstat_r>
   42f0c:	10001716 	blt	r2,zero,42f6c <__smakebuf_r+0x9c>
   42f10:	d8800117 	ldw	r2,4(sp)
   42f14:	00e00014 	movui	r3,32768
   42f18:	10bc000c 	andi	r2,r2,61440
   42f1c:	10c03726 	beq	r2,r3,42ffc <__smakebuf_r+0x12c>
   42f20:	80c0030b 	ldhu	r3,12(r16)
   42f24:	18c20014 	ori	r3,r3,2048
   42f28:	80c0030d 	sth	r3,12(r16)
   42f2c:	00c80004 	movi	r3,8192
   42f30:	10c03c1e 	bne	r2,r3,43024 <__smakebuf_r+0x154>
   42f34:	8140038f 	ldh	r5,14(r16)
   42f38:	8809883a 	mov	r4,r17
   42f3c:	00435040 	call	43504 <_isatty_r>
   42f40:	10004e26 	beq	r2,zero,4307c <__smakebuf_r+0x1ac>
   42f44:	8080030b 	ldhu	r2,12(r16)
   42f48:	04c00044 	movi	r19,1
   42f4c:	80c010c4 	addi	r3,r16,67
   42f50:	14c4b03a 	or	r2,r2,r19
   42f54:	8080030d 	sth	r2,12(r16)
   42f58:	80c00015 	stw	r3,0(r16)
   42f5c:	80c00415 	stw	r3,16(r16)
   42f60:	84c00515 	stw	r19,20(r16)
   42f64:	04810004 	movi	r18,1024
   42f68:	00000706 	br	42f88 <__smakebuf_r+0xb8>
   42f6c:	8080030b 	ldhu	r2,12(r16)
   42f70:	10c0200c 	andi	r3,r2,128
   42f74:	18001f1e 	bne	r3,zero,42ff4 <__smakebuf_r+0x124>
   42f78:	04810004 	movi	r18,1024
   42f7c:	10820014 	ori	r2,r2,2048
   42f80:	8080030d 	sth	r2,12(r16)
   42f84:	0027883a 	mov	r19,zero
   42f88:	8809883a 	mov	r4,r17
   42f8c:	900b883a 	mov	r5,r18
   42f90:	00410f80 	call	410f8 <_malloc_r>
   42f94:	10002e26 	beq	r2,zero,43050 <__smakebuf_r+0x180>
   42f98:	80c0030b 	ldhu	r3,12(r16)
   42f9c:	01000134 	movhi	r4,4
   42fa0:	21096a04 	addi	r4,r4,9640
   42fa4:	89000f15 	stw	r4,60(r17)
   42fa8:	18c02014 	ori	r3,r3,128
   42fac:	80c0030d 	sth	r3,12(r16)
   42fb0:	80800015 	stw	r2,0(r16)
   42fb4:	80800415 	stw	r2,16(r16)
   42fb8:	84800515 	stw	r18,20(r16)
   42fbc:	98001c1e 	bne	r19,zero,43030 <__smakebuf_r+0x160>
   42fc0:	dfc01317 	ldw	ra,76(sp)
   42fc4:	dcc01217 	ldw	r19,72(sp)
   42fc8:	dc801117 	ldw	r18,68(sp)
   42fcc:	dc401017 	ldw	r17,64(sp)
   42fd0:	dc000f17 	ldw	r16,60(sp)
   42fd4:	dec01404 	addi	sp,sp,80
   42fd8:	f800283a 	ret
   42fdc:	288010c4 	addi	r2,r5,67
   42fe0:	28800015 	stw	r2,0(r5)
   42fe4:	28800415 	stw	r2,16(r5)
   42fe8:	00800044 	movi	r2,1
   42fec:	28800515 	stw	r2,20(r5)
   42ff0:	f800283a 	ret
   42ff4:	04801004 	movi	r18,64
   42ff8:	003fe006 	br	42f7c <__alt_data_end+0xfffcd41c>
   42ffc:	81000a17 	ldw	r4,40(r16)
   43000:	00c00134 	movhi	r3,4
   43004:	18cca104 	addi	r3,r3,12932
   43008:	20ffc51e 	bne	r4,r3,42f20 <__alt_data_end+0xfffcd3c0>
   4300c:	80c0030b 	ldhu	r3,12(r16)
   43010:	01010004 	movi	r4,1024
   43014:	81001315 	stw	r4,76(r16)
   43018:	1906b03a 	or	r3,r3,r4
   4301c:	80c0030d 	sth	r3,12(r16)
   43020:	003fc206 	br	42f2c <__alt_data_end+0xfffcd3cc>
   43024:	0027883a 	mov	r19,zero
   43028:	04810004 	movi	r18,1024
   4302c:	003fd606 	br	42f88 <__alt_data_end+0xfffcd428>
   43030:	8140038f 	ldh	r5,14(r16)
   43034:	8809883a 	mov	r4,r17
   43038:	00435040 	call	43504 <_isatty_r>
   4303c:	103fe026 	beq	r2,zero,42fc0 <__alt_data_end+0xfffcd460>
   43040:	8080030b 	ldhu	r2,12(r16)
   43044:	10800054 	ori	r2,r2,1
   43048:	8080030d 	sth	r2,12(r16)
   4304c:	003fdc06 	br	42fc0 <__alt_data_end+0xfffcd460>
   43050:	8080030b 	ldhu	r2,12(r16)
   43054:	10c0800c 	andi	r3,r2,512
   43058:	183fd91e 	bne	r3,zero,42fc0 <__alt_data_end+0xfffcd460>
   4305c:	10800094 	ori	r2,r2,2
   43060:	80c010c4 	addi	r3,r16,67
   43064:	8080030d 	sth	r2,12(r16)
   43068:	00800044 	movi	r2,1
   4306c:	80c00015 	stw	r3,0(r16)
   43070:	80c00415 	stw	r3,16(r16)
   43074:	80800515 	stw	r2,20(r16)
   43078:	003fd106 	br	42fc0 <__alt_data_end+0xfffcd460>
   4307c:	04c00044 	movi	r19,1
   43080:	04810004 	movi	r18,1024
   43084:	003fc006 	br	42f88 <__alt_data_end+0xfffcd428>

00043088 <memset>:
   43088:	20c000cc 	andi	r3,r4,3
   4308c:	2005883a 	mov	r2,r4
   43090:	18004326 	beq	r3,zero,431a0 <memset+0x118>
   43094:	31ffffc4 	addi	r7,r6,-1
   43098:	30004026 	beq	r6,zero,4319c <memset+0x114>
   4309c:	2813883a 	mov	r9,r5
   430a0:	200d883a 	mov	r6,r4
   430a4:	2007883a 	mov	r3,r4
   430a8:	00000406 	br	430bc <memset+0x34>
   430ac:	3a3fffc4 	addi	r8,r7,-1
   430b0:	31800044 	addi	r6,r6,1
   430b4:	38003926 	beq	r7,zero,4319c <memset+0x114>
   430b8:	400f883a 	mov	r7,r8
   430bc:	18c00044 	addi	r3,r3,1
   430c0:	32400005 	stb	r9,0(r6)
   430c4:	1a0000cc 	andi	r8,r3,3
   430c8:	403ff81e 	bne	r8,zero,430ac <__alt_data_end+0xfffcd54c>
   430cc:	010000c4 	movi	r4,3
   430d0:	21c02d2e 	bgeu	r4,r7,43188 <memset+0x100>
   430d4:	29803fcc 	andi	r6,r5,255
   430d8:	3008923a 	slli	r4,r6,8
   430dc:	218cb03a 	or	r6,r4,r6
   430e0:	3008943a 	slli	r4,r6,16
   430e4:	218cb03a 	or	r6,r4,r6
   430e8:	010003c4 	movi	r4,15
   430ec:	21c0182e 	bgeu	r4,r7,43150 <memset+0xc8>
   430f0:	3b3ffc04 	addi	r12,r7,-16
   430f4:	6018d13a 	srli	r12,r12,4
   430f8:	1a000104 	addi	r8,r3,4
   430fc:	1ac00204 	addi	r11,r3,8
   43100:	6008913a 	slli	r4,r12,4
   43104:	1a800304 	addi	r10,r3,12
   43108:	1813883a 	mov	r9,r3
   4310c:	21000504 	addi	r4,r4,20
   43110:	1909883a 	add	r4,r3,r4
   43114:	49800015 	stw	r6,0(r9)
   43118:	41800015 	stw	r6,0(r8)
   4311c:	59800015 	stw	r6,0(r11)
   43120:	51800015 	stw	r6,0(r10)
   43124:	42000404 	addi	r8,r8,16
   43128:	4a400404 	addi	r9,r9,16
   4312c:	5ac00404 	addi	r11,r11,16
   43130:	52800404 	addi	r10,r10,16
   43134:	413ff71e 	bne	r8,r4,43114 <__alt_data_end+0xfffcd5b4>
   43138:	63000044 	addi	r12,r12,1
   4313c:	6018913a 	slli	r12,r12,4
   43140:	39c003cc 	andi	r7,r7,15
   43144:	010000c4 	movi	r4,3
   43148:	1b07883a 	add	r3,r3,r12
   4314c:	21c00e2e 	bgeu	r4,r7,43188 <memset+0x100>
   43150:	1813883a 	mov	r9,r3
   43154:	3811883a 	mov	r8,r7
   43158:	010000c4 	movi	r4,3
   4315c:	49800015 	stw	r6,0(r9)
   43160:	423fff04 	addi	r8,r8,-4
   43164:	4a400104 	addi	r9,r9,4
   43168:	223ffc36 	bltu	r4,r8,4315c <__alt_data_end+0xfffcd5fc>
   4316c:	393fff04 	addi	r4,r7,-4
   43170:	2008d0ba 	srli	r4,r4,2
   43174:	39c000cc 	andi	r7,r7,3
   43178:	21000044 	addi	r4,r4,1
   4317c:	2109883a 	add	r4,r4,r4
   43180:	2109883a 	add	r4,r4,r4
   43184:	1907883a 	add	r3,r3,r4
   43188:	38000426 	beq	r7,zero,4319c <memset+0x114>
   4318c:	19cf883a 	add	r7,r3,r7
   43190:	19400005 	stb	r5,0(r3)
   43194:	18c00044 	addi	r3,r3,1
   43198:	19fffd1e 	bne	r3,r7,43190 <__alt_data_end+0xfffcd630>
   4319c:	f800283a 	ret
   431a0:	2007883a 	mov	r3,r4
   431a4:	300f883a 	mov	r7,r6
   431a8:	003fc806 	br	430cc <__alt_data_end+0xfffcd56c>

000431ac <__sread>:
   431ac:	defffe04 	addi	sp,sp,-8
   431b0:	dc000015 	stw	r16,0(sp)
   431b4:	2821883a 	mov	r16,r5
   431b8:	2940038f 	ldh	r5,14(r5)
   431bc:	dfc00115 	stw	ra,4(sp)
   431c0:	00435b40 	call	435b4 <_read_r>
   431c4:	10000716 	blt	r2,zero,431e4 <__sread+0x38>
   431c8:	80c01417 	ldw	r3,80(r16)
   431cc:	1887883a 	add	r3,r3,r2
   431d0:	80c01415 	stw	r3,80(r16)
   431d4:	dfc00117 	ldw	ra,4(sp)
   431d8:	dc000017 	ldw	r16,0(sp)
   431dc:	dec00204 	addi	sp,sp,8
   431e0:	f800283a 	ret
   431e4:	80c0030b 	ldhu	r3,12(r16)
   431e8:	18fbffcc 	andi	r3,r3,61439
   431ec:	80c0030d 	sth	r3,12(r16)
   431f0:	dfc00117 	ldw	ra,4(sp)
   431f4:	dc000017 	ldw	r16,0(sp)
   431f8:	dec00204 	addi	sp,sp,8
   431fc:	f800283a 	ret

00043200 <__seofread>:
   43200:	0005883a 	mov	r2,zero
   43204:	f800283a 	ret

00043208 <__swrite>:
   43208:	2880030b 	ldhu	r2,12(r5)
   4320c:	defffb04 	addi	sp,sp,-20
   43210:	dcc00315 	stw	r19,12(sp)
   43214:	dc800215 	stw	r18,8(sp)
   43218:	dc400115 	stw	r17,4(sp)
   4321c:	dc000015 	stw	r16,0(sp)
   43220:	dfc00415 	stw	ra,16(sp)
   43224:	10c0400c 	andi	r3,r2,256
   43228:	2821883a 	mov	r16,r5
   4322c:	2027883a 	mov	r19,r4
   43230:	3025883a 	mov	r18,r6
   43234:	3823883a 	mov	r17,r7
   43238:	18000526 	beq	r3,zero,43250 <__swrite+0x48>
   4323c:	2940038f 	ldh	r5,14(r5)
   43240:	000d883a 	mov	r6,zero
   43244:	01c00084 	movi	r7,2
   43248:	00435580 	call	43558 <_lseek_r>
   4324c:	8080030b 	ldhu	r2,12(r16)
   43250:	8140038f 	ldh	r5,14(r16)
   43254:	10bbffcc 	andi	r2,r2,61439
   43258:	9809883a 	mov	r4,r19
   4325c:	900d883a 	mov	r6,r18
   43260:	880f883a 	mov	r7,r17
   43264:	8080030d 	sth	r2,12(r16)
   43268:	dfc00417 	ldw	ra,16(sp)
   4326c:	dcc00317 	ldw	r19,12(sp)
   43270:	dc800217 	ldw	r18,8(sp)
   43274:	dc400117 	ldw	r17,4(sp)
   43278:	dc000017 	ldw	r16,0(sp)
   4327c:	dec00504 	addi	sp,sp,20
   43280:	00432e81 	jmpi	432e8 <_write_r>

00043284 <__sseek>:
   43284:	defffe04 	addi	sp,sp,-8
   43288:	dc000015 	stw	r16,0(sp)
   4328c:	2821883a 	mov	r16,r5
   43290:	2940038f 	ldh	r5,14(r5)
   43294:	dfc00115 	stw	ra,4(sp)
   43298:	00435580 	call	43558 <_lseek_r>
   4329c:	00ffffc4 	movi	r3,-1
   432a0:	10c00826 	beq	r2,r3,432c4 <__sseek+0x40>
   432a4:	80c0030b 	ldhu	r3,12(r16)
   432a8:	80801415 	stw	r2,80(r16)
   432ac:	18c40014 	ori	r3,r3,4096
   432b0:	80c0030d 	sth	r3,12(r16)
   432b4:	dfc00117 	ldw	ra,4(sp)
   432b8:	dc000017 	ldw	r16,0(sp)
   432bc:	dec00204 	addi	sp,sp,8
   432c0:	f800283a 	ret
   432c4:	80c0030b 	ldhu	r3,12(r16)
   432c8:	18fbffcc 	andi	r3,r3,61439
   432cc:	80c0030d 	sth	r3,12(r16)
   432d0:	dfc00117 	ldw	ra,4(sp)
   432d4:	dc000017 	ldw	r16,0(sp)
   432d8:	dec00204 	addi	sp,sp,8
   432dc:	f800283a 	ret

000432e0 <__sclose>:
   432e0:	2940038f 	ldh	r5,14(r5)
   432e4:	00433441 	jmpi	43344 <_close_r>

000432e8 <_write_r>:
   432e8:	defffd04 	addi	sp,sp,-12
   432ec:	dc000015 	stw	r16,0(sp)
   432f0:	04000174 	movhi	r16,5
   432f4:	dc400115 	stw	r17,4(sp)
   432f8:	840b0c04 	addi	r16,r16,11312
   432fc:	2023883a 	mov	r17,r4
   43300:	2809883a 	mov	r4,r5
   43304:	300b883a 	mov	r5,r6
   43308:	380d883a 	mov	r6,r7
   4330c:	dfc00215 	stw	ra,8(sp)
   43310:	80000015 	stw	zero,0(r16)
   43314:	0043f480 	call	43f48 <write>
   43318:	00ffffc4 	movi	r3,-1
   4331c:	10c00526 	beq	r2,r3,43334 <_write_r+0x4c>
   43320:	dfc00217 	ldw	ra,8(sp)
   43324:	dc400117 	ldw	r17,4(sp)
   43328:	dc000017 	ldw	r16,0(sp)
   4332c:	dec00304 	addi	sp,sp,12
   43330:	f800283a 	ret
   43334:	80c00017 	ldw	r3,0(r16)
   43338:	183ff926 	beq	r3,zero,43320 <__alt_data_end+0xfffcd7c0>
   4333c:	88c00015 	stw	r3,0(r17)
   43340:	003ff706 	br	43320 <__alt_data_end+0xfffcd7c0>

00043344 <_close_r>:
   43344:	defffd04 	addi	sp,sp,-12
   43348:	dc000015 	stw	r16,0(sp)
   4334c:	04000174 	movhi	r16,5
   43350:	dc400115 	stw	r17,4(sp)
   43354:	840b0c04 	addi	r16,r16,11312
   43358:	2023883a 	mov	r17,r4
   4335c:	2809883a 	mov	r4,r5
   43360:	dfc00215 	stw	ra,8(sp)
   43364:	80000015 	stw	zero,0(r16)
   43368:	00436880 	call	43688 <close>
   4336c:	00ffffc4 	movi	r3,-1
   43370:	10c00526 	beq	r2,r3,43388 <_close_r+0x44>
   43374:	dfc00217 	ldw	ra,8(sp)
   43378:	dc400117 	ldw	r17,4(sp)
   4337c:	dc000017 	ldw	r16,0(sp)
   43380:	dec00304 	addi	sp,sp,12
   43384:	f800283a 	ret
   43388:	80c00017 	ldw	r3,0(r16)
   4338c:	183ff926 	beq	r3,zero,43374 <__alt_data_end+0xfffcd814>
   43390:	88c00015 	stw	r3,0(r17)
   43394:	003ff706 	br	43374 <__alt_data_end+0xfffcd814>

00043398 <_fclose_r>:
   43398:	28003226 	beq	r5,zero,43464 <_fclose_r+0xcc>
   4339c:	defffc04 	addi	sp,sp,-16
   433a0:	dc400115 	stw	r17,4(sp)
   433a4:	2023883a 	mov	r17,r4
   433a8:	dc000015 	stw	r16,0(sp)
   433ac:	dfc00315 	stw	ra,12(sp)
   433b0:	dc800215 	stw	r18,8(sp)
   433b4:	2821883a 	mov	r16,r5
   433b8:	004290c0 	call	4290c <__sfp_lock_acquire>
   433bc:	88000226 	beq	r17,zero,433c8 <_fclose_r+0x30>
   433c0:	88800e17 	ldw	r2,56(r17)
   433c4:	10002926 	beq	r2,zero,4346c <_fclose_r+0xd4>
   433c8:	8080030f 	ldh	r2,12(r16)
   433cc:	10002226 	beq	r2,zero,43458 <_fclose_r+0xc0>
   433d0:	8809883a 	mov	r4,r17
   433d4:	800b883a 	mov	r5,r16
   433d8:	00423400 	call	42340 <_fflush_r>
   433dc:	1025883a 	mov	r18,r2
   433e0:	80800b17 	ldw	r2,44(r16)
   433e4:	10000426 	beq	r2,zero,433f8 <_fclose_r+0x60>
   433e8:	81400717 	ldw	r5,28(r16)
   433ec:	8809883a 	mov	r4,r17
   433f0:	103ee83a 	callr	r2
   433f4:	10002616 	blt	r2,zero,43490 <_fclose_r+0xf8>
   433f8:	8080030b 	ldhu	r2,12(r16)
   433fc:	1080200c 	andi	r2,r2,128
   43400:	10001f1e 	bne	r2,zero,43480 <_fclose_r+0xe8>
   43404:	81400c17 	ldw	r5,48(r16)
   43408:	28000526 	beq	r5,zero,43420 <_fclose_r+0x88>
   4340c:	80801004 	addi	r2,r16,64
   43410:	28800226 	beq	r5,r2,4341c <_fclose_r+0x84>
   43414:	8809883a 	mov	r4,r17
   43418:	0042a700 	call	42a70 <_free_r>
   4341c:	80000c15 	stw	zero,48(r16)
   43420:	81401117 	ldw	r5,68(r16)
   43424:	28000326 	beq	r5,zero,43434 <_fclose_r+0x9c>
   43428:	8809883a 	mov	r4,r17
   4342c:	0042a700 	call	42a70 <_free_r>
   43430:	80001115 	stw	zero,68(r16)
   43434:	8000030d 	sth	zero,12(r16)
   43438:	00429100 	call	42910 <__sfp_lock_release>
   4343c:	9005883a 	mov	r2,r18
   43440:	dfc00317 	ldw	ra,12(sp)
   43444:	dc800217 	ldw	r18,8(sp)
   43448:	dc400117 	ldw	r17,4(sp)
   4344c:	dc000017 	ldw	r16,0(sp)
   43450:	dec00404 	addi	sp,sp,16
   43454:	f800283a 	ret
   43458:	00429100 	call	42910 <__sfp_lock_release>
   4345c:	0005883a 	mov	r2,zero
   43460:	003ff706 	br	43440 <__alt_data_end+0xfffcd8e0>
   43464:	0005883a 	mov	r2,zero
   43468:	f800283a 	ret
   4346c:	8809883a 	mov	r4,r17
   43470:	00428fc0 	call	428fc <__sinit>
   43474:	8080030f 	ldh	r2,12(r16)
   43478:	103fd51e 	bne	r2,zero,433d0 <__alt_data_end+0xfffcd870>
   4347c:	003ff606 	br	43458 <__alt_data_end+0xfffcd8f8>
   43480:	81400417 	ldw	r5,16(r16)
   43484:	8809883a 	mov	r4,r17
   43488:	0042a700 	call	42a70 <_free_r>
   4348c:	003fdd06 	br	43404 <__alt_data_end+0xfffcd8a4>
   43490:	04bfffc4 	movi	r18,-1
   43494:	003fd806 	br	433f8 <__alt_data_end+0xfffcd898>

00043498 <fclose>:
   43498:	00800174 	movhi	r2,5
   4349c:	1083ec04 	addi	r2,r2,4016
   434a0:	200b883a 	mov	r5,r4
   434a4:	11000017 	ldw	r4,0(r2)
   434a8:	00433981 	jmpi	43398 <_fclose_r>

000434ac <_fstat_r>:
   434ac:	defffd04 	addi	sp,sp,-12
   434b0:	dc000015 	stw	r16,0(sp)
   434b4:	04000174 	movhi	r16,5
   434b8:	dc400115 	stw	r17,4(sp)
   434bc:	840b0c04 	addi	r16,r16,11312
   434c0:	2023883a 	mov	r17,r4
   434c4:	2809883a 	mov	r4,r5
   434c8:	300b883a 	mov	r5,r6
   434cc:	dfc00215 	stw	ra,8(sp)
   434d0:	80000015 	stw	zero,0(r16)
   434d4:	00437dc0 	call	437dc <fstat>
   434d8:	00ffffc4 	movi	r3,-1
   434dc:	10c00526 	beq	r2,r3,434f4 <_fstat_r+0x48>
   434e0:	dfc00217 	ldw	ra,8(sp)
   434e4:	dc400117 	ldw	r17,4(sp)
   434e8:	dc000017 	ldw	r16,0(sp)
   434ec:	dec00304 	addi	sp,sp,12
   434f0:	f800283a 	ret
   434f4:	80c00017 	ldw	r3,0(r16)
   434f8:	183ff926 	beq	r3,zero,434e0 <__alt_data_end+0xfffcd980>
   434fc:	88c00015 	stw	r3,0(r17)
   43500:	003ff706 	br	434e0 <__alt_data_end+0xfffcd980>

00043504 <_isatty_r>:
   43504:	defffd04 	addi	sp,sp,-12
   43508:	dc000015 	stw	r16,0(sp)
   4350c:	04000174 	movhi	r16,5
   43510:	dc400115 	stw	r17,4(sp)
   43514:	840b0c04 	addi	r16,r16,11312
   43518:	2023883a 	mov	r17,r4
   4351c:	2809883a 	mov	r4,r5
   43520:	dfc00215 	stw	ra,8(sp)
   43524:	80000015 	stw	zero,0(r16)
   43528:	00438e40 	call	438e4 <isatty>
   4352c:	00ffffc4 	movi	r3,-1
   43530:	10c00526 	beq	r2,r3,43548 <_isatty_r+0x44>
   43534:	dfc00217 	ldw	ra,8(sp)
   43538:	dc400117 	ldw	r17,4(sp)
   4353c:	dc000017 	ldw	r16,0(sp)
   43540:	dec00304 	addi	sp,sp,12
   43544:	f800283a 	ret
   43548:	80c00017 	ldw	r3,0(r16)
   4354c:	183ff926 	beq	r3,zero,43534 <__alt_data_end+0xfffcd9d4>
   43550:	88c00015 	stw	r3,0(r17)
   43554:	003ff706 	br	43534 <__alt_data_end+0xfffcd9d4>

00043558 <_lseek_r>:
   43558:	defffd04 	addi	sp,sp,-12
   4355c:	dc000015 	stw	r16,0(sp)
   43560:	04000174 	movhi	r16,5
   43564:	dc400115 	stw	r17,4(sp)
   43568:	840b0c04 	addi	r16,r16,11312
   4356c:	2023883a 	mov	r17,r4
   43570:	2809883a 	mov	r4,r5
   43574:	300b883a 	mov	r5,r6
   43578:	380d883a 	mov	r6,r7
   4357c:	dfc00215 	stw	ra,8(sp)
   43580:	80000015 	stw	zero,0(r16)
   43584:	0043ac40 	call	43ac4 <lseek>
   43588:	00ffffc4 	movi	r3,-1
   4358c:	10c00526 	beq	r2,r3,435a4 <_lseek_r+0x4c>
   43590:	dfc00217 	ldw	ra,8(sp)
   43594:	dc400117 	ldw	r17,4(sp)
   43598:	dc000017 	ldw	r16,0(sp)
   4359c:	dec00304 	addi	sp,sp,12
   435a0:	f800283a 	ret
   435a4:	80c00017 	ldw	r3,0(r16)
   435a8:	183ff926 	beq	r3,zero,43590 <__alt_data_end+0xfffcda30>
   435ac:	88c00015 	stw	r3,0(r17)
   435b0:	003ff706 	br	43590 <__alt_data_end+0xfffcda30>

000435b4 <_read_r>:
   435b4:	defffd04 	addi	sp,sp,-12
   435b8:	dc000015 	stw	r16,0(sp)
   435bc:	04000174 	movhi	r16,5
   435c0:	dc400115 	stw	r17,4(sp)
   435c4:	840b0c04 	addi	r16,r16,11312
   435c8:	2023883a 	mov	r17,r4
   435cc:	2809883a 	mov	r4,r5
   435d0:	300b883a 	mov	r5,r6
   435d4:	380d883a 	mov	r6,r7
   435d8:	dfc00215 	stw	ra,8(sp)
   435dc:	80000015 	stw	zero,0(r16)
   435e0:	0043cc40 	call	43cc4 <read>
   435e4:	00ffffc4 	movi	r3,-1
   435e8:	10c00526 	beq	r2,r3,43600 <_read_r+0x4c>
   435ec:	dfc00217 	ldw	ra,8(sp)
   435f0:	dc400117 	ldw	r17,4(sp)
   435f4:	dc000017 	ldw	r16,0(sp)
   435f8:	dec00304 	addi	sp,sp,12
   435fc:	f800283a 	ret
   43600:	80c00017 	ldw	r3,0(r16)
   43604:	183ff926 	beq	r3,zero,435ec <__alt_data_end+0xfffcda8c>
   43608:	88c00015 	stw	r3,0(r17)
   4360c:	003ff706 	br	435ec <__alt_data_end+0xfffcda8c>

00043610 <__mulsi3>:
   43610:	0005883a 	mov	r2,zero
   43614:	20000726 	beq	r4,zero,43634 <__mulsi3+0x24>
   43618:	20c0004c 	andi	r3,r4,1
   4361c:	2008d07a 	srli	r4,r4,1
   43620:	18000126 	beq	r3,zero,43628 <__mulsi3+0x18>
   43624:	1145883a 	add	r2,r2,r5
   43628:	294b883a 	add	r5,r5,r5
   4362c:	203ffa1e 	bne	r4,zero,43618 <__alt_data_end+0xfffcdab8>
   43630:	f800283a 	ret
   43634:	f800283a 	ret

00043638 <alt_get_errno>:
#undef errno

extern int errno;

static ALT_INLINE int* alt_get_errno(void)
{
   43638:	defffe04 	addi	sp,sp,-8
   4363c:	dfc00115 	stw	ra,4(sp)
   43640:	df000015 	stw	fp,0(sp)
   43644:	d839883a 	mov	fp,sp
  return ((alt_errno) ? alt_errno() : &errno);
   43648:	00800174 	movhi	r2,5
   4364c:	1083f404 	addi	r2,r2,4048
   43650:	10800017 	ldw	r2,0(r2)
   43654:	10000526 	beq	r2,zero,4366c <alt_get_errno+0x34>
   43658:	00800174 	movhi	r2,5
   4365c:	1083f404 	addi	r2,r2,4048
   43660:	10800017 	ldw	r2,0(r2)
   43664:	103ee83a 	callr	r2
   43668:	00000206 	br	43674 <alt_get_errno+0x3c>
   4366c:	00800174 	movhi	r2,5
   43670:	108b0c04 	addi	r2,r2,11312
}
   43674:	e037883a 	mov	sp,fp
   43678:	dfc00117 	ldw	ra,4(sp)
   4367c:	df000017 	ldw	fp,0(sp)
   43680:	dec00204 	addi	sp,sp,8
   43684:	f800283a 	ret

00043688 <close>:
 *
 * ALT_CLOSE is mapped onto the close() system call in alt_syscall.h
 */
 
int ALT_CLOSE (int fildes)
{
   43688:	defffb04 	addi	sp,sp,-20
   4368c:	dfc00415 	stw	ra,16(sp)
   43690:	df000315 	stw	fp,12(sp)
   43694:	df000304 	addi	fp,sp,12
   43698:	e13fff15 	stw	r4,-4(fp)
   * A common error case is that when the file descriptor was created, the call
   * to open() failed resulting in a negative file descriptor. This is trapped
   * below so that we don't try and process an invalid file descriptor.
   */

  fd = (fildes < 0) ? NULL : &alt_fd_list[fildes];
   4369c:	e0bfff17 	ldw	r2,-4(fp)
   436a0:	10000816 	blt	r2,zero,436c4 <close+0x3c>
   436a4:	e13fff17 	ldw	r4,-4(fp)
   436a8:	01400304 	movi	r5,12
   436ac:	00436100 	call	43610 <__mulsi3>
   436b0:	1007883a 	mov	r3,r2
   436b4:	00800174 	movhi	r2,5
   436b8:	10bf3c04 	addi	r2,r2,-784
   436bc:	1885883a 	add	r2,r3,r2
   436c0:	00000106 	br	436c8 <close+0x40>
   436c4:	0005883a 	mov	r2,zero
   436c8:	e0bffd15 	stw	r2,-12(fp)

  if (fd)
   436cc:	e0bffd17 	ldw	r2,-12(fp)
   436d0:	10001926 	beq	r2,zero,43738 <close+0xb0>
    /*
     * If the associated file system/device has a close function, call it so 
     * that any necessary cleanup code can run.
     */

    rval = (fd->dev->close) ? fd->dev->close(fd) : 0;
   436d4:	e0bffd17 	ldw	r2,-12(fp)
   436d8:	10800017 	ldw	r2,0(r2)
   436dc:	10800417 	ldw	r2,16(r2)
   436e0:	10000626 	beq	r2,zero,436fc <close+0x74>
   436e4:	e0bffd17 	ldw	r2,-12(fp)
   436e8:	10800017 	ldw	r2,0(r2)
   436ec:	10800417 	ldw	r2,16(r2)
   436f0:	e13ffd17 	ldw	r4,-12(fp)
   436f4:	103ee83a 	callr	r2
   436f8:	00000106 	br	43700 <close+0x78>
   436fc:	0005883a 	mov	r2,zero
   43700:	e0bffe15 	stw	r2,-8(fp)

    /* Free the file descriptor structure and return. */

    alt_release_fd (fildes);
   43704:	e13fff17 	ldw	r4,-4(fp)
   43708:	0043dc80 	call	43dc8 <alt_release_fd>
    if (rval < 0)
   4370c:	e0bffe17 	ldw	r2,-8(fp)
   43710:	1000070e 	bge	r2,zero,43730 <close+0xa8>
    {
      ALT_ERRNO = -rval;
   43714:	00436380 	call	43638 <alt_get_errno>
   43718:	1007883a 	mov	r3,r2
   4371c:	e0bffe17 	ldw	r2,-8(fp)
   43720:	0085c83a 	sub	r2,zero,r2
   43724:	18800015 	stw	r2,0(r3)
      return -1;
   43728:	00bfffc4 	movi	r2,-1
   4372c:	00000706 	br	4374c <close+0xc4>
    }
    return 0;
   43730:	0005883a 	mov	r2,zero
   43734:	00000506 	br	4374c <close+0xc4>
  }
  else
  {
    ALT_ERRNO = EBADFD;
   43738:	00436380 	call	43638 <alt_get_errno>
   4373c:	1007883a 	mov	r3,r2
   43740:	00801444 	movi	r2,81
   43744:	18800015 	stw	r2,0(r3)
    return -1;
   43748:	00bfffc4 	movi	r2,-1
  }
}
   4374c:	e037883a 	mov	sp,fp
   43750:	dfc00117 	ldw	ra,4(sp)
   43754:	df000017 	ldw	fp,0(sp)
   43758:	dec00204 	addi	sp,sp,8
   4375c:	f800283a 	ret

00043760 <alt_dev_null_write>:
 * by the alt_dev_null device. It simple discards all data passed to it, and
 * indicates that the data has been successfully transmitted.
 */

static int alt_dev_null_write (alt_fd* fd, const char* ptr, int len)
{
   43760:	defffc04 	addi	sp,sp,-16
   43764:	df000315 	stw	fp,12(sp)
   43768:	df000304 	addi	fp,sp,12
   4376c:	e13ffd15 	stw	r4,-12(fp)
   43770:	e17ffe15 	stw	r5,-8(fp)
   43774:	e1bfff15 	stw	r6,-4(fp)
  return len;
   43778:	e0bfff17 	ldw	r2,-4(fp)
}
   4377c:	e037883a 	mov	sp,fp
   43780:	df000017 	ldw	fp,0(sp)
   43784:	dec00104 	addi	sp,sp,4
   43788:	f800283a 	ret

0004378c <alt_get_errno>:
#undef errno

extern int errno;

static ALT_INLINE int* alt_get_errno(void)
{
   4378c:	defffe04 	addi	sp,sp,-8
   43790:	dfc00115 	stw	ra,4(sp)
   43794:	df000015 	stw	fp,0(sp)
   43798:	d839883a 	mov	fp,sp
  return ((alt_errno) ? alt_errno() : &errno);
   4379c:	00800174 	movhi	r2,5
   437a0:	1083f404 	addi	r2,r2,4048
   437a4:	10800017 	ldw	r2,0(r2)
   437a8:	10000526 	beq	r2,zero,437c0 <alt_get_errno+0x34>
   437ac:	00800174 	movhi	r2,5
   437b0:	1083f404 	addi	r2,r2,4048
   437b4:	10800017 	ldw	r2,0(r2)
   437b8:	103ee83a 	callr	r2
   437bc:	00000206 	br	437c8 <alt_get_errno+0x3c>
   437c0:	00800174 	movhi	r2,5
   437c4:	108b0c04 	addi	r2,r2,11312
}
   437c8:	e037883a 	mov	sp,fp
   437cc:	dfc00117 	ldw	ra,4(sp)
   437d0:	df000017 	ldw	fp,0(sp)
   437d4:	dec00204 	addi	sp,sp,8
   437d8:	f800283a 	ret

000437dc <fstat>:
}

#else /* !ALT_USE_DIRECT_DRIVERS */

int ALT_FSTAT (int file, struct stat *st)
{
   437dc:	defffb04 	addi	sp,sp,-20
   437e0:	dfc00415 	stw	ra,16(sp)
   437e4:	df000315 	stw	fp,12(sp)
   437e8:	df000304 	addi	fp,sp,12
   437ec:	e13ffe15 	stw	r4,-8(fp)
   437f0:	e17fff15 	stw	r5,-4(fp)
   * A common error case is that when the file descriptor was created, the call
   * to open() failed resulting in a negative file descriptor. This is trapped
   * below so that we don't try and process an invalid file descriptor.
   */

  fd = (file < 0) ? NULL : &alt_fd_list[file];
   437f4:	e0bffe17 	ldw	r2,-8(fp)
   437f8:	10000816 	blt	r2,zero,4381c <fstat+0x40>
   437fc:	e13ffe17 	ldw	r4,-8(fp)
   43800:	01400304 	movi	r5,12
   43804:	00436100 	call	43610 <__mulsi3>
   43808:	1007883a 	mov	r3,r2
   4380c:	00800174 	movhi	r2,5
   43810:	10bf3c04 	addi	r2,r2,-784
   43814:	1885883a 	add	r2,r3,r2
   43818:	00000106 	br	43820 <fstat+0x44>
   4381c:	0005883a 	mov	r2,zero
   43820:	e0bffd15 	stw	r2,-12(fp)
  
  if (fd)
   43824:	e0bffd17 	ldw	r2,-12(fp)
   43828:	10001026 	beq	r2,zero,4386c <fstat+0x90>
  {
    /* Call the drivers fstat() function to fill out the "st" structure. */

    if (fd->dev->fstat)
   4382c:	e0bffd17 	ldw	r2,-12(fp)
   43830:	10800017 	ldw	r2,0(r2)
   43834:	10800817 	ldw	r2,32(r2)
   43838:	10000726 	beq	r2,zero,43858 <fstat+0x7c>
    {
      return fd->dev->fstat(fd, st);
   4383c:	e0bffd17 	ldw	r2,-12(fp)
   43840:	10800017 	ldw	r2,0(r2)
   43844:	10800817 	ldw	r2,32(r2)
   43848:	e13ffd17 	ldw	r4,-12(fp)
   4384c:	e17fff17 	ldw	r5,-4(fp)
   43850:	103ee83a 	callr	r2
   43854:	00000a06 	br	43880 <fstat+0xa4>
     * device.
     */
 
    else
    {
      st->st_mode = _IFCHR;
   43858:	e0bfff17 	ldw	r2,-4(fp)
   4385c:	00c80004 	movi	r3,8192
   43860:	10c00115 	stw	r3,4(r2)
      return 0;
   43864:	0005883a 	mov	r2,zero
   43868:	00000506 	br	43880 <fstat+0xa4>
    }
  }
  else
  {
    ALT_ERRNO = EBADFD;
   4386c:	004378c0 	call	4378c <alt_get_errno>
   43870:	1007883a 	mov	r3,r2
   43874:	00801444 	movi	r2,81
   43878:	18800015 	stw	r2,0(r3)
    return -1;
   4387c:	00bfffc4 	movi	r2,-1
  }
}
   43880:	e037883a 	mov	sp,fp
   43884:	dfc00117 	ldw	ra,4(sp)
   43888:	df000017 	ldw	fp,0(sp)
   4388c:	dec00204 	addi	sp,sp,8
   43890:	f800283a 	ret

00043894 <alt_get_errno>:
#undef errno

extern int errno;

static ALT_INLINE int* alt_get_errno(void)
{
   43894:	defffe04 	addi	sp,sp,-8
   43898:	dfc00115 	stw	ra,4(sp)
   4389c:	df000015 	stw	fp,0(sp)
   438a0:	d839883a 	mov	fp,sp
  return ((alt_errno) ? alt_errno() : &errno);
   438a4:	00800174 	movhi	r2,5
   438a8:	1083f404 	addi	r2,r2,4048
   438ac:	10800017 	ldw	r2,0(r2)
   438b0:	10000526 	beq	r2,zero,438c8 <alt_get_errno+0x34>
   438b4:	00800174 	movhi	r2,5
   438b8:	1083f404 	addi	r2,r2,4048
   438bc:	10800017 	ldw	r2,0(r2)
   438c0:	103ee83a 	callr	r2
   438c4:	00000206 	br	438d0 <alt_get_errno+0x3c>
   438c8:	00800174 	movhi	r2,5
   438cc:	108b0c04 	addi	r2,r2,11312
}
   438d0:	e037883a 	mov	sp,fp
   438d4:	dfc00117 	ldw	ra,4(sp)
   438d8:	df000017 	ldw	fp,0(sp)
   438dc:	dec00204 	addi	sp,sp,8
   438e0:	f800283a 	ret

000438e4 <isatty>:
 *
 * ALT_ISATTY is mapped onto the isatty() system call in alt_syscall.h
 */
 
int ALT_ISATTY (int file)
{
   438e4:	deffed04 	addi	sp,sp,-76
   438e8:	dfc01215 	stw	ra,72(sp)
   438ec:	df001115 	stw	fp,68(sp)
   438f0:	df001104 	addi	fp,sp,68
   438f4:	e13fff15 	stw	r4,-4(fp)
   * A common error case is that when the file descriptor was created, the call
   * to open() failed resulting in a negative file descriptor. This is trapped
   * below so that we don't try and process an invalid file descriptor.
   */

  fd = (file < 0) ? NULL : &alt_fd_list[file];
   438f8:	e0bfff17 	ldw	r2,-4(fp)
   438fc:	10000816 	blt	r2,zero,43920 <isatty+0x3c>
   43900:	e13fff17 	ldw	r4,-4(fp)
   43904:	01400304 	movi	r5,12
   43908:	00436100 	call	43610 <__mulsi3>
   4390c:	1007883a 	mov	r3,r2
   43910:	00800174 	movhi	r2,5
   43914:	10bf3c04 	addi	r2,r2,-784
   43918:	1885883a 	add	r2,r3,r2
   4391c:	00000106 	br	43924 <isatty+0x40>
   43920:	0005883a 	mov	r2,zero
   43924:	e0bfef15 	stw	r2,-68(fp)
  
  if (fd)
   43928:	e0bfef17 	ldw	r2,-68(fp)
   4392c:	10000e26 	beq	r2,zero,43968 <isatty+0x84>
    /*
     * If a device driver does not provide an fstat() function, then it is 
     * treated as a terminal device by default.
     */

    if (!fd->dev->fstat)
   43930:	e0bfef17 	ldw	r2,-68(fp)
   43934:	10800017 	ldw	r2,0(r2)
   43938:	10800817 	ldw	r2,32(r2)
   4393c:	1000021e 	bne	r2,zero,43948 <isatty+0x64>
    {
      return 1;
   43940:	00800044 	movi	r2,1
   43944:	00000d06 	br	4397c <isatty+0x98>
     * this is called so that the device can identify itself.
     */ 

    else
    {
      fstat (file, &stat);
   43948:	e0bff004 	addi	r2,fp,-64
   4394c:	e13fff17 	ldw	r4,-4(fp)
   43950:	100b883a 	mov	r5,r2
   43954:	00437dc0 	call	437dc <fstat>
      return (stat.st_mode == _IFCHR) ? 1 : 0;
   43958:	e0bff117 	ldw	r2,-60(fp)
   4395c:	10880020 	cmpeqi	r2,r2,8192
   43960:	10803fcc 	andi	r2,r2,255
   43964:	00000506 	br	4397c <isatty+0x98>
    }
  }
  else
  {
    ALT_ERRNO = EBADFD;
   43968:	00438940 	call	43894 <alt_get_errno>
   4396c:	1007883a 	mov	r3,r2
   43970:	00801444 	movi	r2,81
   43974:	18800015 	stw	r2,0(r3)
    return 0;
   43978:	0005883a 	mov	r2,zero
  }
}
   4397c:	e037883a 	mov	sp,fp
   43980:	dfc00117 	ldw	ra,4(sp)
   43984:	df000017 	ldw	fp,0(sp)
   43988:	dec00204 	addi	sp,sp,8
   4398c:	f800283a 	ret

00043990 <alt_load_section>:
 */

static void ALT_INLINE alt_load_section (alt_u32* from, 
                                         alt_u32* to, 
                                         alt_u32* end)
{
   43990:	defffc04 	addi	sp,sp,-16
   43994:	df000315 	stw	fp,12(sp)
   43998:	df000304 	addi	fp,sp,12
   4399c:	e13ffd15 	stw	r4,-12(fp)
   439a0:	e17ffe15 	stw	r5,-8(fp)
   439a4:	e1bfff15 	stw	r6,-4(fp)
  if (to != from)
   439a8:	e0fffe17 	ldw	r3,-8(fp)
   439ac:	e0bffd17 	ldw	r2,-12(fp)
   439b0:	18800c26 	beq	r3,r2,439e4 <alt_load_section+0x54>
  {
    while( to != end )
   439b4:	00000806 	br	439d8 <alt_load_section+0x48>
    {
      *to++ = *from++;
   439b8:	e0bffe17 	ldw	r2,-8(fp)
   439bc:	10c00104 	addi	r3,r2,4
   439c0:	e0fffe15 	stw	r3,-8(fp)
   439c4:	e0fffd17 	ldw	r3,-12(fp)
   439c8:	19000104 	addi	r4,r3,4
   439cc:	e13ffd15 	stw	r4,-12(fp)
   439d0:	18c00017 	ldw	r3,0(r3)
   439d4:	10c00015 	stw	r3,0(r2)
                                         alt_u32* to, 
                                         alt_u32* end)
{
  if (to != from)
  {
    while( to != end )
   439d8:	e0fffe17 	ldw	r3,-8(fp)
   439dc:	e0bfff17 	ldw	r2,-4(fp)
   439e0:	18bff51e 	bne	r3,r2,439b8 <__alt_data_end+0xfffcde58>
    {
      *to++ = *from++;
    }
  }
}
   439e4:	e037883a 	mov	sp,fp
   439e8:	df000017 	ldw	fp,0(sp)
   439ec:	dec00104 	addi	sp,sp,4
   439f0:	f800283a 	ret

000439f4 <alt_load>:
 * there is no bootloader, so this application is responsible for loading to
 * RAM any sections that are required.
 */  

void alt_load (void)
{
   439f4:	defffe04 	addi	sp,sp,-8
   439f8:	dfc00115 	stw	ra,4(sp)
   439fc:	df000015 	stw	fp,0(sp)
   43a00:	d839883a 	mov	fp,sp
  /* 
   * Copy the .rwdata section. 
   */

  alt_load_section (&__flash_rwdata_start, 
   43a04:	01000174 	movhi	r4,5
   43a08:	21041804 	addi	r4,r4,4192
   43a0c:	01400174 	movhi	r5,5
   43a10:	297d2704 	addi	r5,r5,-2916
   43a14:	01800174 	movhi	r6,5
   43a18:	31841804 	addi	r6,r6,4192
   43a1c:	00439900 	call	43990 <alt_load_section>

  /*
   * Copy the exception handler.
   */

  alt_load_section (&__flash_exceptions_start, 
   43a20:	01000134 	movhi	r4,4
   43a24:	21000804 	addi	r4,r4,32
   43a28:	01400134 	movhi	r5,4
   43a2c:	29400804 	addi	r5,r5,32
   43a30:	01800134 	movhi	r6,4
   43a34:	31808b04 	addi	r6,r6,556
   43a38:	00439900 	call	43990 <alt_load_section>

  /*
   * Copy the .rodata section.
   */

  alt_load_section (&__flash_rodata_start, 
   43a3c:	01000174 	movhi	r4,5
   43a40:	213cc804 	addi	r4,r4,-3296
   43a44:	01400174 	movhi	r5,5
   43a48:	297cc804 	addi	r5,r5,-3296
   43a4c:	01800174 	movhi	r6,5
   43a50:	31bd2704 	addi	r6,r6,-2916
   43a54:	00439900 	call	43990 <alt_load_section>
  
  /*
   * Now ensure that the caches are in synch.
   */
  
  alt_dcache_flush_all();
   43a58:	004dbbc0 	call	4dbbc <alt_dcache_flush_all>
  alt_icache_flush_all();
   43a5c:	004dd840 	call	4dd84 <alt_icache_flush_all>
}
   43a60:	e037883a 	mov	sp,fp
   43a64:	dfc00117 	ldw	ra,4(sp)
   43a68:	df000017 	ldw	fp,0(sp)
   43a6c:	dec00204 	addi	sp,sp,8
   43a70:	f800283a 	ret

00043a74 <alt_get_errno>:
#undef errno

extern int errno;

static ALT_INLINE int* alt_get_errno(void)
{
   43a74:	defffe04 	addi	sp,sp,-8
   43a78:	dfc00115 	stw	ra,4(sp)
   43a7c:	df000015 	stw	fp,0(sp)
   43a80:	d839883a 	mov	fp,sp
  return ((alt_errno) ? alt_errno() : &errno);
   43a84:	00800174 	movhi	r2,5
   43a88:	1083f404 	addi	r2,r2,4048
   43a8c:	10800017 	ldw	r2,0(r2)
   43a90:	10000526 	beq	r2,zero,43aa8 <alt_get_errno+0x34>
   43a94:	00800174 	movhi	r2,5
   43a98:	1083f404 	addi	r2,r2,4048
   43a9c:	10800017 	ldw	r2,0(r2)
   43aa0:	103ee83a 	callr	r2
   43aa4:	00000206 	br	43ab0 <alt_get_errno+0x3c>
   43aa8:	00800174 	movhi	r2,5
   43aac:	108b0c04 	addi	r2,r2,11312
}
   43ab0:	e037883a 	mov	sp,fp
   43ab4:	dfc00117 	ldw	ra,4(sp)
   43ab8:	df000017 	ldw	fp,0(sp)
   43abc:	dec00204 	addi	sp,sp,8
   43ac0:	f800283a 	ret

00043ac4 <lseek>:
 * ALT_LSEEK is mapped onto the lseek() system call in alt_syscall.h
 *
 */

off_t ALT_LSEEK (int file, off_t ptr, int dir)
{
   43ac4:	defff904 	addi	sp,sp,-28
   43ac8:	dfc00615 	stw	ra,24(sp)
   43acc:	df000515 	stw	fp,20(sp)
   43ad0:	df000504 	addi	fp,sp,20
   43ad4:	e13ffd15 	stw	r4,-12(fp)
   43ad8:	e17ffe15 	stw	r5,-8(fp)
   43adc:	e1bfff15 	stw	r6,-4(fp)
  alt_fd* fd;
  off_t   rc = 0; 
   43ae0:	e03ffb15 	stw	zero,-20(fp)
   * A common error case is that when the file descriptor was created, the call
   * to open() failed resulting in a negative file descriptor. This is trapped
   * below so that we don't try and process an invalid file descriptor.
   */

  fd = (file < 0) ? NULL : &alt_fd_list[file];
   43ae4:	e0bffd17 	ldw	r2,-12(fp)
   43ae8:	10000816 	blt	r2,zero,43b0c <lseek+0x48>
   43aec:	e13ffd17 	ldw	r4,-12(fp)
   43af0:	01400304 	movi	r5,12
   43af4:	00436100 	call	43610 <__mulsi3>
   43af8:	1007883a 	mov	r3,r2
   43afc:	00800174 	movhi	r2,5
   43b00:	10bf3c04 	addi	r2,r2,-784
   43b04:	1885883a 	add	r2,r3,r2
   43b08:	00000106 	br	43b10 <lseek+0x4c>
   43b0c:	0005883a 	mov	r2,zero
   43b10:	e0bffc15 	stw	r2,-16(fp)
  
  if (fd) 
   43b14:	e0bffc17 	ldw	r2,-16(fp)
   43b18:	10001026 	beq	r2,zero,43b5c <lseek+0x98>
    /*
     * If the device driver provides an implementation of the lseek() function,
     * then call that to process the request.
     */
 
    if (fd->dev->lseek)
   43b1c:	e0bffc17 	ldw	r2,-16(fp)
   43b20:	10800017 	ldw	r2,0(r2)
   43b24:	10800717 	ldw	r2,28(r2)
   43b28:	10000926 	beq	r2,zero,43b50 <lseek+0x8c>
    {
      rc = fd->dev->lseek(fd, ptr, dir);
   43b2c:	e0bffc17 	ldw	r2,-16(fp)
   43b30:	10800017 	ldw	r2,0(r2)
   43b34:	10800717 	ldw	r2,28(r2)
   43b38:	e13ffc17 	ldw	r4,-16(fp)
   43b3c:	e17ffe17 	ldw	r5,-8(fp)
   43b40:	e1bfff17 	ldw	r6,-4(fp)
   43b44:	103ee83a 	callr	r2
   43b48:	e0bffb15 	stw	r2,-20(fp)
   43b4c:	00000506 	br	43b64 <lseek+0xa0>
     * Otherwise return an error.
     */

    else
    {
      rc = -ENOTSUP;
   43b50:	00bfde84 	movi	r2,-134
   43b54:	e0bffb15 	stw	r2,-20(fp)
   43b58:	00000206 	br	43b64 <lseek+0xa0>
    }
  }
  else  
  {
    rc = -EBADFD;
   43b5c:	00bfebc4 	movi	r2,-81
   43b60:	e0bffb15 	stw	r2,-20(fp)
  }

  if (rc < 0)
   43b64:	e0bffb17 	ldw	r2,-20(fp)
   43b68:	1000070e 	bge	r2,zero,43b88 <lseek+0xc4>
  {
    ALT_ERRNO = -rc;
   43b6c:	0043a740 	call	43a74 <alt_get_errno>
   43b70:	1007883a 	mov	r3,r2
   43b74:	e0bffb17 	ldw	r2,-20(fp)
   43b78:	0085c83a 	sub	r2,zero,r2
   43b7c:	18800015 	stw	r2,0(r3)
    rc = -1;
   43b80:	00bfffc4 	movi	r2,-1
   43b84:	e0bffb15 	stw	r2,-20(fp)
  }

  return rc;
   43b88:	e0bffb17 	ldw	r2,-20(fp)
}
   43b8c:	e037883a 	mov	sp,fp
   43b90:	dfc00117 	ldw	ra,4(sp)
   43b94:	df000017 	ldw	fp,0(sp)
   43b98:	dec00204 	addi	sp,sp,8
   43b9c:	f800283a 	ret

00043ba0 <alt_main>:
 * devices/filesystems/components in the system; and call the entry point for
 * the users application, i.e. main().
 */

void alt_main (void)
{
   43ba0:	defff904 	addi	sp,sp,-28
   43ba4:	dfc00615 	stw	ra,24(sp)
   43ba8:	df000515 	stw	fp,20(sp)
   43bac:	df000504 	addi	fp,sp,20
#endif

  /* ALT LOG - please see HAL/sys/alt_log_printf.h for details */
  ALT_LOG_PRINT_BOOT("[alt_main.c] Entering alt_main, calling alt_irq_init.\r\n");
  /* Initialize the interrupt controller. */
  alt_irq_init (NULL);
   43bb0:	0009883a 	mov	r4,zero
   43bb4:	004c0340 	call	4c034 <alt_irq_init>

  /* Initialize the operating system */
  ALT_LOG_PRINT_BOOT("[alt_main.c] Done alt_irq_init, calling alt_os_init.\r\n");
  ALT_OS_INIT();
   43bb8:	0044bc00 	call	44bc0 <OSInit>
   43bbc:	01000044 	movi	r4,1
   43bc0:	004972c0 	call	4972c <OSSemCreate>
   43bc4:	1007883a 	mov	r3,r2
   43bc8:	00800174 	movhi	r2,5
   43bcc:	108b1204 	addi	r2,r2,11336
   43bd0:	10c00015 	stw	r3,0(r2)
   43bd4:	01000044 	movi	r4,1
   43bd8:	004972c0 	call	4972c <OSSemCreate>
   43bdc:	1007883a 	mov	r3,r2
   43be0:	00800174 	movhi	r2,5
   43be4:	108b1404 	addi	r2,r2,11344
   43be8:	10c00015 	stw	r3,0(r2)
   43bec:	00800174 	movhi	r2,5
   43bf0:	108b0d04 	addi	r2,r2,11316
   43bf4:	e0bffc15 	stw	r2,-16(fp)
   43bf8:	00800044 	movi	r2,1
   43bfc:	e0bffd0d 	sth	r2,-12(fp)
 */

static ALT_INLINE int ALT_ALWAYS_INLINE alt_sem_create (OS_EVENT** sem, 
              INT16U value)
{
  *sem = OSSemCreate (value);
   43c00:	e0bffd0b 	ldhu	r2,-12(fp)
   43c04:	1009883a 	mov	r4,r2
   43c08:	004972c0 	call	4972c <OSSemCreate>
   43c0c:	1007883a 	mov	r3,r2
   43c10:	e0bffc17 	ldw	r2,-16(fp)
   43c14:	10c00015 	stw	r3,0(r2)
  ALT_LOG_PRINT_BOOT("[alt_main.c] Done OS Init, calling alt_sem_create.\r\n");
  ALT_SEM_CREATE (&alt_fd_list_lock, 1);

  /* Initialize the device drivers/software components. */
  ALT_LOG_PRINT_BOOT("[alt_main.c] Calling alt_sys_init.\r\n");
  alt_sys_init();
   43c18:	004c0680 	call	4c068 <alt_sys_init>
   * devices be present (not equal to /dev/null) and if direct drivers
   * aren't being used.
   */

    ALT_LOG_PRINT_BOOT("[alt_main.c] Redirecting IO.\r\n");
    alt_io_redirect(ALT_STDOUT, ALT_STDIN, ALT_STDERR);
   43c1c:	01000174 	movhi	r4,5
   43c20:	213cd304 	addi	r4,r4,-3252
   43c24:	01400174 	movhi	r5,5
   43c28:	297cd304 	addi	r5,r5,-3252
   43c2c:	01800174 	movhi	r6,5
   43c30:	31bcd304 	addi	r6,r6,-3252
   43c34:	004e1500 	call	4e150 <alt_io_redirect>
  /* 
   * Call the C++ constructors 
   */

  ALT_LOG_PRINT_BOOT("[alt_main.c] Calling C++ constructors.\r\n");
  _do_ctors ();
   43c38:	004dccc0 	call	4dccc <_do_ctors>
   * redefined as _exit()). This is in the interest of reducing code footprint,
   * in that the atexit() overhead is removed when it's not needed.
   */

  ALT_LOG_PRINT_BOOT("[alt_main.c] Calling atexit.\r\n");
  atexit (_do_dtors);
   43c3c:	01000174 	movhi	r4,5
   43c40:	21374a04 	addi	r4,r4,-8920
   43c44:	004ee480 	call	4ee48 <atexit>
  ALT_LOG_PRINT_BOOT("[alt_main.c] Calling main.\r\n");

#ifdef ALT_NO_EXIT
  main (alt_argc, alt_argv, alt_envp);
#else
  result = main (alt_argc, alt_argv, alt_envp);
   43c48:	d1272317 	ldw	r4,-25460(gp)
   43c4c:	d0e72417 	ldw	r3,-25456(gp)
   43c50:	d0a72517 	ldw	r2,-25452(gp)
   43c54:	180b883a 	mov	r5,r3
   43c58:	100d883a 	mov	r6,r2
   43c5c:	0040a040 	call	40a04 <main>
   43c60:	e0bffb15 	stw	r2,-20(fp)
  close(STDOUT_FILENO);
   43c64:	01000044 	movi	r4,1
   43c68:	00436880 	call	43688 <close>
  exit (result);
   43c6c:	e13ffb17 	ldw	r4,-20(fp)
   43c70:	004ee5c0 	call	4ee5c <exit>

00043c74 <alt_get_errno>:
#undef errno

extern int errno;

static ALT_INLINE int* alt_get_errno(void)
{
   43c74:	defffe04 	addi	sp,sp,-8
   43c78:	dfc00115 	stw	ra,4(sp)
   43c7c:	df000015 	stw	fp,0(sp)
   43c80:	d839883a 	mov	fp,sp
  return ((alt_errno) ? alt_errno() : &errno);
   43c84:	00800174 	movhi	r2,5
   43c88:	1083f404 	addi	r2,r2,4048
   43c8c:	10800017 	ldw	r2,0(r2)
   43c90:	10000526 	beq	r2,zero,43ca8 <alt_get_errno+0x34>
   43c94:	00800174 	movhi	r2,5
   43c98:	1083f404 	addi	r2,r2,4048
   43c9c:	10800017 	ldw	r2,0(r2)
   43ca0:	103ee83a 	callr	r2
   43ca4:	00000206 	br	43cb0 <alt_get_errno+0x3c>
   43ca8:	00800174 	movhi	r2,5
   43cac:	108b0c04 	addi	r2,r2,11312
}
   43cb0:	e037883a 	mov	sp,fp
   43cb4:	dfc00117 	ldw	ra,4(sp)
   43cb8:	df000017 	ldw	fp,0(sp)
   43cbc:	dec00204 	addi	sp,sp,8
   43cc0:	f800283a 	ret

00043cc4 <read>:
}

#else /* !ALT_USE_DIRECT_DRIVERS */

int ALT_READ (int file, void *ptr, size_t len)
{
   43cc4:	defff904 	addi	sp,sp,-28
   43cc8:	dfc00615 	stw	ra,24(sp)
   43ccc:	df000515 	stw	fp,20(sp)
   43cd0:	df000504 	addi	fp,sp,20
   43cd4:	e13ffd15 	stw	r4,-12(fp)
   43cd8:	e17ffe15 	stw	r5,-8(fp)
   43cdc:	e1bfff15 	stw	r6,-4(fp)
   * A common error case is that when the file descriptor was created, the call
   * to open() failed resulting in a negative file descriptor. This is trapped
   * below so that we don't try and process an invalid file descriptor.
   */

  fd = (file < 0) ? NULL : &alt_fd_list[file];
   43ce0:	e0bffd17 	ldw	r2,-12(fp)
   43ce4:	10000816 	blt	r2,zero,43d08 <read+0x44>
   43ce8:	e13ffd17 	ldw	r4,-12(fp)
   43cec:	01400304 	movi	r5,12
   43cf0:	00436100 	call	43610 <__mulsi3>
   43cf4:	1007883a 	mov	r3,r2
   43cf8:	00800174 	movhi	r2,5
   43cfc:	10bf3c04 	addi	r2,r2,-784
   43d00:	1885883a 	add	r2,r3,r2
   43d04:	00000106 	br	43d0c <read+0x48>
   43d08:	0005883a 	mov	r2,zero
   43d0c:	e0bffb15 	stw	r2,-20(fp)
  
  if (fd)
   43d10:	e0bffb17 	ldw	r2,-20(fp)
   43d14:	10002226 	beq	r2,zero,43da0 <read+0xdc>
     * If the file has not been opened with read access, or if the driver does
     * not provide an implementation of read(), generate an error. Otherwise
     * call the drivers read() function to process the request.
     */

    if (((fd->fd_flags & O_ACCMODE) != O_WRONLY) && 
   43d18:	e0bffb17 	ldw	r2,-20(fp)
   43d1c:	10800217 	ldw	r2,8(r2)
   43d20:	108000cc 	andi	r2,r2,3
   43d24:	10800060 	cmpeqi	r2,r2,1
   43d28:	1000181e 	bne	r2,zero,43d8c <read+0xc8>
        (fd->dev->read))
   43d2c:	e0bffb17 	ldw	r2,-20(fp)
   43d30:	10800017 	ldw	r2,0(r2)
   43d34:	10800517 	ldw	r2,20(r2)
     * If the file has not been opened with read access, or if the driver does
     * not provide an implementation of read(), generate an error. Otherwise
     * call the drivers read() function to process the request.
     */

    if (((fd->fd_flags & O_ACCMODE) != O_WRONLY) && 
   43d38:	10001426 	beq	r2,zero,43d8c <read+0xc8>
        (fd->dev->read))
      {
        if ((rval = fd->dev->read(fd, ptr, len)) < 0)
   43d3c:	e0bffb17 	ldw	r2,-20(fp)
   43d40:	10800017 	ldw	r2,0(r2)
   43d44:	10800517 	ldw	r2,20(r2)
   43d48:	e0ffff17 	ldw	r3,-4(fp)
   43d4c:	e13ffb17 	ldw	r4,-20(fp)
   43d50:	e17ffe17 	ldw	r5,-8(fp)
   43d54:	180d883a 	mov	r6,r3
   43d58:	103ee83a 	callr	r2
   43d5c:	e0bffc15 	stw	r2,-16(fp)
   43d60:	e0bffc17 	ldw	r2,-16(fp)
   43d64:	1000070e 	bge	r2,zero,43d84 <read+0xc0>
        {
          ALT_ERRNO = -rval;
   43d68:	0043c740 	call	43c74 <alt_get_errno>
   43d6c:	1007883a 	mov	r3,r2
   43d70:	e0bffc17 	ldw	r2,-16(fp)
   43d74:	0085c83a 	sub	r2,zero,r2
   43d78:	18800015 	stw	r2,0(r3)
          return -1;
   43d7c:	00bfffc4 	movi	r2,-1
   43d80:	00000c06 	br	43db4 <read+0xf0>
        }
        return rval;
   43d84:	e0bffc17 	ldw	r2,-16(fp)
   43d88:	00000a06 	br	43db4 <read+0xf0>
      }
      else
      {
        ALT_ERRNO = EACCES;
   43d8c:	0043c740 	call	43c74 <alt_get_errno>
   43d90:	1007883a 	mov	r3,r2
   43d94:	00800344 	movi	r2,13
   43d98:	18800015 	stw	r2,0(r3)
   43d9c:	00000406 	br	43db0 <read+0xec>
      }
    }
  else
  {
    ALT_ERRNO = EBADFD;
   43da0:	0043c740 	call	43c74 <alt_get_errno>
   43da4:	1007883a 	mov	r3,r2
   43da8:	00801444 	movi	r2,81
   43dac:	18800015 	stw	r2,0(r3)
  }
  return -1;
   43db0:	00bfffc4 	movi	r2,-1
}
   43db4:	e037883a 	mov	sp,fp
   43db8:	dfc00117 	ldw	ra,4(sp)
   43dbc:	df000017 	ldw	fp,0(sp)
   43dc0:	dec00204 	addi	sp,sp,8
   43dc4:	f800283a 	ret

00043dc8 <alt_release_fd>:
 * File descriptors correcponding to standard in, standard out and standard 
 * error cannont be released backed to the pool. They are always reserved.
 */

void alt_release_fd (int fd)
{
   43dc8:	defffc04 	addi	sp,sp,-16
   43dcc:	dfc00315 	stw	ra,12(sp)
   43dd0:	df000215 	stw	fp,8(sp)
   43dd4:	dc000115 	stw	r16,4(sp)
   43dd8:	df000204 	addi	fp,sp,8
   43ddc:	e13ffe15 	stw	r4,-8(fp)
  if (fd > 2)
   43de0:	e0bffe17 	ldw	r2,-8(fp)
   43de4:	108000d0 	cmplti	r2,r2,3
   43de8:	1000111e 	bne	r2,zero,43e30 <alt_release_fd+0x68>
  {
    alt_fd_list[fd].fd_flags = 0;
   43dec:	04000174 	movhi	r16,5
   43df0:	843f3c04 	addi	r16,r16,-784
   43df4:	e0bffe17 	ldw	r2,-8(fp)
   43df8:	1009883a 	mov	r4,r2
   43dfc:	01400304 	movi	r5,12
   43e00:	00436100 	call	43610 <__mulsi3>
   43e04:	8085883a 	add	r2,r16,r2
   43e08:	10800204 	addi	r2,r2,8
   43e0c:	10000015 	stw	zero,0(r2)
    alt_fd_list[fd].dev      = 0;
   43e10:	04000174 	movhi	r16,5
   43e14:	843f3c04 	addi	r16,r16,-784
   43e18:	e0bffe17 	ldw	r2,-8(fp)
   43e1c:	1009883a 	mov	r4,r2
   43e20:	01400304 	movi	r5,12
   43e24:	00436100 	call	43610 <__mulsi3>
   43e28:	8085883a 	add	r2,r16,r2
   43e2c:	10000015 	stw	zero,0(r2)
  }
}
   43e30:	e6ffff04 	addi	sp,fp,-4
   43e34:	dfc00217 	ldw	ra,8(sp)
   43e38:	df000117 	ldw	fp,4(sp)
   43e3c:	dc000017 	ldw	r16,0(sp)
   43e40:	dec00304 	addi	sp,sp,12
   43e44:	f800283a 	ret

00043e48 <sbrk>:
#endif
 
caddr_t ALT_SBRK (int incr) __attribute__ ((no_instrument_function ));

caddr_t ALT_SBRK (int incr)
{ 
   43e48:	defff904 	addi	sp,sp,-28
   43e4c:	df000615 	stw	fp,24(sp)
   43e50:	df000604 	addi	fp,sp,24
   43e54:	e13fff15 	stw	r4,-4(fp)
static ALT_INLINE alt_irq_context ALT_ALWAYS_INLINE 
       alt_irq_disable_all (void)
{
  alt_irq_context context;

  NIOS2_READ_STATUS (context);
   43e58:	0005303a 	rdctl	r2,status
   43e5c:	e0bffc15 	stw	r2,-16(fp)

  NIOS2_WRITE_STATUS (context & ~NIOS2_STATUS_PIE_MSK);
   43e60:	e0fffc17 	ldw	r3,-16(fp)
   43e64:	00bfff84 	movi	r2,-2
   43e68:	1884703a 	and	r2,r3,r2
   43e6c:	1001703a 	wrctl	status,r2
  
  return context;
   43e70:	e0bffc17 	ldw	r2,-16(fp)
  alt_irq_context context;
  char *prev_heap_end; 

  context = alt_irq_disable_all();
   43e74:	e0bffa15 	stw	r2,-24(fp)

  /* Always return data aligned on a word boundary */
  heap_end = (char *)(((unsigned int)heap_end + 3) & ~3);
   43e78:	d0a00a17 	ldw	r2,-32728(gp)
   43e7c:	10c000c4 	addi	r3,r2,3
   43e80:	00bfff04 	movi	r2,-4
   43e84:	1884703a 	and	r2,r3,r2
   43e88:	d0a00a15 	stw	r2,-32728(gp)
  if (((heap_end + incr) - __alt_heap_start) > ALT_MAX_HEAP_BYTES) {
    alt_irq_enable_all(context);
    return (caddr_t)-1;
  }
#else
  if ((heap_end + incr) > __alt_heap_limit) {
   43e8c:	d0e00a17 	ldw	r3,-32728(gp)
   43e90:	e0bfff17 	ldw	r2,-4(fp)
   43e94:	1887883a 	add	r3,r3,r2
   43e98:	008001f4 	movhi	r2,7
   43e9c:	1096d804 	addi	r2,r2,23392
   43ea0:	10c0062e 	bgeu	r2,r3,43ebc <sbrk+0x74>
   43ea4:	e0bffa17 	ldw	r2,-24(fp)
   43ea8:	e0bffd15 	stw	r2,-12(fp)
  status &= ~NIOS2_STATUS_PIE_MSK;
  status |= (context & NIOS2_STATUS_PIE_MSK);
  
  NIOS2_WRITE_STATUS (status);
#else
  NIOS2_WRITE_STATUS (context);
   43eac:	e0bffd17 	ldw	r2,-12(fp)
   43eb0:	1001703a 	wrctl	status,r2
    alt_irq_enable_all(context);
    return (caddr_t)-1;
   43eb4:	00bfffc4 	movi	r2,-1
   43eb8:	00000b06 	br	43ee8 <sbrk+0xa0>
  }
#endif

  prev_heap_end = heap_end; 
   43ebc:	d0a00a17 	ldw	r2,-32728(gp)
   43ec0:	e0bffb15 	stw	r2,-20(fp)
  heap_end += incr; 
   43ec4:	d0e00a17 	ldw	r3,-32728(gp)
   43ec8:	e0bfff17 	ldw	r2,-4(fp)
   43ecc:	1885883a 	add	r2,r3,r2
   43ed0:	d0a00a15 	stw	r2,-32728(gp)
   43ed4:	e0bffa17 	ldw	r2,-24(fp)
   43ed8:	e0bffe15 	stw	r2,-8(fp)
   43edc:	e0bffe17 	ldw	r2,-8(fp)
   43ee0:	1001703a 	wrctl	status,r2

#endif

  alt_irq_enable_all(context);

  return (caddr_t) prev_heap_end; 
   43ee4:	e0bffb17 	ldw	r2,-20(fp)
} 
   43ee8:	e037883a 	mov	sp,fp
   43eec:	df000017 	ldw	fp,0(sp)
   43ef0:	dec00104 	addi	sp,sp,4
   43ef4:	f800283a 	ret

00043ef8 <alt_get_errno>:
#undef errno

extern int errno;

static ALT_INLINE int* alt_get_errno(void)
{
   43ef8:	defffe04 	addi	sp,sp,-8
   43efc:	dfc00115 	stw	ra,4(sp)
   43f00:	df000015 	stw	fp,0(sp)
   43f04:	d839883a 	mov	fp,sp
  return ((alt_errno) ? alt_errno() : &errno);
   43f08:	00800174 	movhi	r2,5
   43f0c:	1083f404 	addi	r2,r2,4048
   43f10:	10800017 	ldw	r2,0(r2)
   43f14:	10000526 	beq	r2,zero,43f2c <alt_get_errno+0x34>
   43f18:	00800174 	movhi	r2,5
   43f1c:	1083f404 	addi	r2,r2,4048
   43f20:	10800017 	ldw	r2,0(r2)
   43f24:	103ee83a 	callr	r2
   43f28:	00000206 	br	43f34 <alt_get_errno+0x3c>
   43f2c:	00800174 	movhi	r2,5
   43f30:	108b0c04 	addi	r2,r2,11312
}
   43f34:	e037883a 	mov	sp,fp
   43f38:	dfc00117 	ldw	ra,4(sp)
   43f3c:	df000017 	ldw	fp,0(sp)
   43f40:	dec00204 	addi	sp,sp,8
   43f44:	f800283a 	ret

00043f48 <write>:
}

#else /* !ALT_USE_DIRECT_DRIVERS */

int ALT_WRITE (int file, const void *ptr, size_t len)
{
   43f48:	defff904 	addi	sp,sp,-28
   43f4c:	dfc00615 	stw	ra,24(sp)
   43f50:	df000515 	stw	fp,20(sp)
   43f54:	df000504 	addi	fp,sp,20
   43f58:	e13ffd15 	stw	r4,-12(fp)
   43f5c:	e17ffe15 	stw	r5,-8(fp)
   43f60:	e1bfff15 	stw	r6,-4(fp)
   * A common error case is that when the file descriptor was created, the call
   * to open() failed resulting in a negative file descriptor. This is trapped
   * below so that we don't try and process an invalid file descriptor.
   */

  fd = (file < 0) ? NULL : &alt_fd_list[file];
   43f64:	e0bffd17 	ldw	r2,-12(fp)
   43f68:	10000816 	blt	r2,zero,43f8c <write+0x44>
   43f6c:	e13ffd17 	ldw	r4,-12(fp)
   43f70:	01400304 	movi	r5,12
   43f74:	00436100 	call	43610 <__mulsi3>
   43f78:	1007883a 	mov	r3,r2
   43f7c:	00800174 	movhi	r2,5
   43f80:	10bf3c04 	addi	r2,r2,-784
   43f84:	1885883a 	add	r2,r3,r2
   43f88:	00000106 	br	43f90 <write+0x48>
   43f8c:	0005883a 	mov	r2,zero
   43f90:	e0bffb15 	stw	r2,-20(fp)
  
  if (fd)
   43f94:	e0bffb17 	ldw	r2,-20(fp)
   43f98:	10002126 	beq	r2,zero,44020 <write+0xd8>
     * If the file has not been opened with write access, or if the driver does
     * not provide an implementation of write(), generate an error. Otherwise
     * call the drivers write() function to process the request.
     */

    if (((fd->fd_flags & O_ACCMODE) != O_RDONLY) && fd->dev->write)
   43f9c:	e0bffb17 	ldw	r2,-20(fp)
   43fa0:	10800217 	ldw	r2,8(r2)
   43fa4:	108000cc 	andi	r2,r2,3
   43fa8:	10001826 	beq	r2,zero,4400c <write+0xc4>
   43fac:	e0bffb17 	ldw	r2,-20(fp)
   43fb0:	10800017 	ldw	r2,0(r2)
   43fb4:	10800617 	ldw	r2,24(r2)
   43fb8:	10001426 	beq	r2,zero,4400c <write+0xc4>
    {
      
      /* ALT_LOG - see altera_hal/HAL/inc/sys/alt_log_printf.h */
      ALT_LOG_WRITE_FUNCTION(ptr,len);

      if ((rval = fd->dev->write(fd, ptr, len)) < 0)
   43fbc:	e0bffb17 	ldw	r2,-20(fp)
   43fc0:	10800017 	ldw	r2,0(r2)
   43fc4:	10800617 	ldw	r2,24(r2)
   43fc8:	e0ffff17 	ldw	r3,-4(fp)
   43fcc:	e13ffb17 	ldw	r4,-20(fp)
   43fd0:	e17ffe17 	ldw	r5,-8(fp)
   43fd4:	180d883a 	mov	r6,r3
   43fd8:	103ee83a 	callr	r2
   43fdc:	e0bffc15 	stw	r2,-16(fp)
   43fe0:	e0bffc17 	ldw	r2,-16(fp)
   43fe4:	1000070e 	bge	r2,zero,44004 <write+0xbc>
      {
        ALT_ERRNO = -rval;
   43fe8:	0043ef80 	call	43ef8 <alt_get_errno>
   43fec:	1007883a 	mov	r3,r2
   43ff0:	e0bffc17 	ldw	r2,-16(fp)
   43ff4:	0085c83a 	sub	r2,zero,r2
   43ff8:	18800015 	stw	r2,0(r3)
        return -1;
   43ffc:	00bfffc4 	movi	r2,-1
   44000:	00000c06 	br	44034 <write+0xec>
      }
      return rval;
   44004:	e0bffc17 	ldw	r2,-16(fp)
   44008:	00000a06 	br	44034 <write+0xec>
    }
    else
    {
      ALT_ERRNO = EACCES;
   4400c:	0043ef80 	call	43ef8 <alt_get_errno>
   44010:	1007883a 	mov	r3,r2
   44014:	00800344 	movi	r2,13
   44018:	18800015 	stw	r2,0(r3)
   4401c:	00000406 	br	44030 <write+0xe8>
    }
  }
  else  
  {
    ALT_ERRNO = EBADFD;
   44020:	0043ef80 	call	43ef8 <alt_get_errno>
   44024:	1007883a 	mov	r3,r2
   44028:	00801444 	movi	r2,81
   4402c:	18800015 	stw	r2,0(r3)
  }
  return -1;
   44030:	00bfffc4 	movi	r2,-1
}
   44034:	e037883a 	mov	sp,fp
   44038:	dfc00117 	ldw	ra,4(sp)
   4403c:	df000017 	ldw	fp,0(sp)
   44040:	dec00204 	addi	sp,sp,8
   44044:	f800283a 	ret

00044048 <__env_lock>:
/*
 *
 */

void __env_lock ( struct _reent *_r )
{
   44048:	deffdf04 	addi	sp,sp,-132
   4404c:	dfc02015 	stw	ra,128(sp)
   44050:	df001f15 	stw	fp,124(sp)
   44054:	df001f04 	addi	fp,sp,124
   44058:	e13fff15 	stw	r4,-4(fp)
  INT8U err;
  int id;

  /* use our priority as a task id */

  err = OSTaskQuery( OS_PRIO_SELF, &tcb );
   4405c:	e0bfe204 	addi	r2,fp,-120
   44060:	01003fc4 	movi	r4,255
   44064:	100b883a 	mov	r5,r2
   44068:	004b8e00 	call	4b8e0 <OSTaskQuery>
   4406c:	e0bffe85 	stb	r2,-6(fp)
  if (err != OS_NO_ERR)
   44070:	e0bffe83 	ldbu	r2,-6(fp)
   44074:	10803fcc 	andi	r2,r2,255
   44078:	10000126 	beq	r2,zero,44080 <__env_lock+0x38>
    return;
   4407c:	00001d06 	br	440f4 <__env_lock+0xac>

  id = tcb.OSTCBPrio;
   44080:	e0bfee83 	ldbu	r2,-70(fp)
   44084:	10803fcc 	andi	r2,r2,255
   44088:	e0bfe115 	stw	r2,-124(fp)
   
  /* see if we own the environment already */

  OSSemQuery( alt_envsem, &semdata );
   4408c:	d0e72717 	ldw	r3,-25444(gp)
   44090:	e0bffd04 	addi	r2,fp,-12
   44094:	1809883a 	mov	r4,r3
   44098:	100b883a 	mov	r5,r2
   4409c:	0049f780 	call	49f78 <OSSemQuery>
  if( semdata.OSEventGrp && id == lockid ) 
   440a0:	e0bffe43 	ldbu	r2,-7(fp)
   440a4:	10803fcc 	andi	r2,r2,255
   440a8:	10000726 	beq	r2,zero,440c8 <__env_lock+0x80>
   440ac:	d0a00b17 	ldw	r2,-32724(gp)
   440b0:	e0ffe117 	ldw	r3,-124(fp)
   440b4:	1880041e 	bne	r3,r2,440c8 <__env_lock+0x80>
  {
    /* we do; just count the recursion */

    locks++;
   440b8:	d0a72617 	ldw	r2,-25448(gp)
   440bc:	10800044 	addi	r2,r2,1
   440c0:	d0a72615 	stw	r2,-25448(gp)
   440c4:	00000a06 	br	440f0 <__env_lock+0xa8>
  }
  else 
  {
    /* wait on the other task to yield, then claim ownership */

    OSSemPend( alt_envsem, 0, &err );
   440c8:	d0e72717 	ldw	r3,-25444(gp)
   440cc:	e0bffe84 	addi	r2,fp,-6
   440d0:	1809883a 	mov	r4,r3
   440d4:	000b883a 	mov	r5,zero
   440d8:	100d883a 	mov	r6,r2
   440dc:	0049a940 	call	49a94 <OSSemPend>
    locks  = 1;
   440e0:	00800044 	movi	r2,1
   440e4:	d0a72615 	stw	r2,-25448(gp)
    lockid = id;
   440e8:	e0bfe117 	ldw	r2,-124(fp)
   440ec:	d0a00b15 	stw	r2,-32724(gp)
  }

#endif /* OS_THREAD_SAFE_NEWLIB */
  return;
   440f0:	0001883a 	nop
}
   440f4:	e037883a 	mov	sp,fp
   440f8:	dfc00117 	ldw	ra,4(sp)
   440fc:	df000017 	ldw	fp,0(sp)
   44100:	dec00204 	addi	sp,sp,8
   44104:	f800283a 	ret

00044108 <__env_unlock>:
/*
 *
 */

void __env_unlock ( struct _reent *_r )
{
   44108:	defffd04 	addi	sp,sp,-12
   4410c:	dfc00215 	stw	ra,8(sp)
   44110:	df000115 	stw	fp,4(sp)
   44114:	df000104 	addi	fp,sp,4
   44118:	e13fff15 	stw	r4,-4(fp)
#if OS_THREAD_SAFE_NEWLIB
  if (locks == 0)
   4411c:	d0a72617 	ldw	r2,-25448(gp)
   44120:	1000011e 	bne	r2,zero,44128 <__env_unlock+0x20>
    return;
   44124:	00000a06 	br	44150 <__env_unlock+0x48>
   /* 
    * release the environment once the number of locks == the number 
    * of unlocks 
    */

  if( (--locks) == 0 ) 
   44128:	d0a72617 	ldw	r2,-25448(gp)
   4412c:	10bfffc4 	addi	r2,r2,-1
   44130:	d0a72615 	stw	r2,-25448(gp)
   44134:	d0a72617 	ldw	r2,-25448(gp)
   44138:	1000051e 	bne	r2,zero,44150 <__env_unlock+0x48>
  {
    lockid = -1;
   4413c:	00bfffc4 	movi	r2,-1
   44140:	d0a00b15 	stw	r2,-32724(gp)
    OSSemPost( alt_envsem );
   44144:	d0a72717 	ldw	r2,-25444(gp)
   44148:	1009883a 	mov	r4,r2
   4414c:	0049e680 	call	49e68 <OSSemPost>
  }
#endif /* OS_THREAD_SAFE_NEWLIB */
}
   44150:	e037883a 	mov	sp,fp
   44154:	dfc00117 	ldw	ra,4(sp)
   44158:	df000017 	ldw	fp,0(sp)
   4415c:	dec00204 	addi	sp,sp,8
   44160:	f800283a 	ret

00044164 <__malloc_lock>:
/*
 *
 */

void __malloc_lock ( struct _reent *_r )
{
   44164:	deffdb04 	addi	sp,sp,-148
   44168:	dfc02415 	stw	ra,144(sp)
   4416c:	df002315 	stw	fp,140(sp)
   44170:	df002304 	addi	fp,sp,140
   44174:	e13fff15 	stw	r4,-4(fp)
  OS_TCB tcb;
  OS_SEM_DATA semdata;
  INT8U err;
  int id;
#if OS_CRITICAL_METHOD == 3                      /* Allocate storage for CPU status register           */
    OS_CPU_SR  cpu_sr = 0;
   44178:	e03fdd15 	stw	zero,-140(fp)
#endif  
  
  if (OSRunning != OS_TRUE)
   4417c:	00800174 	movhi	r2,5
   44180:	108b1544 	addi	r2,r2,11349
   44184:	10800003 	ldbu	r2,0(r2)
   44188:	10803fcc 	andi	r2,r2,255
   4418c:	10800060 	cmpeqi	r2,r2,1
   44190:	1000011e 	bne	r2,zero,44198 <__malloc_lock+0x34>
      return;
   44194:	00003606 	br	44270 <__malloc_lock+0x10c>

  /* use our priority as a task id */

  err = OSTaskQuery( OS_PRIO_SELF, &tcb );
   44198:	e0bfe204 	addi	r2,fp,-120
   4419c:	01003fc4 	movi	r4,255
   441a0:	100b883a 	mov	r5,r2
   441a4:	004b8e00 	call	4b8e0 <OSTaskQuery>
   441a8:	e0bffe85 	stb	r2,-6(fp)
  if (err != OS_NO_ERR)
   441ac:	e0bffe83 	ldbu	r2,-6(fp)
   441b0:	10803fcc 	andi	r2,r2,255
   441b4:	10000126 	beq	r2,zero,441bc <__malloc_lock+0x58>
    return;
   441b8:	00002d06 	br	44270 <__malloc_lock+0x10c>

  id = tcb.OSTCBPrio;
   441bc:	e0bfee83 	ldbu	r2,-70(fp)
   441c0:	10803fcc 	andi	r2,r2,255
   441c4:	e0bfde15 	stw	r2,-136(fp)
   
  /* see if we own the heap already */

  OSSemQuery( alt_heapsem, &semdata );
   441c8:	d0e72917 	ldw	r3,-25436(gp)
   441cc:	e0bffd04 	addi	r2,fp,-12
   441d0:	1809883a 	mov	r4,r3
   441d4:	100b883a 	mov	r5,r2
   441d8:	0049f780 	call	49f78 <OSSemQuery>
static ALT_INLINE alt_irq_context ALT_ALWAYS_INLINE 
       alt_irq_disable_all (void)
{
  alt_irq_context context;

  NIOS2_READ_STATUS (context);
   441dc:	0005303a 	rdctl	r2,status
   441e0:	e0bfdf15 	stw	r2,-132(fp)

  NIOS2_WRITE_STATUS (context & ~NIOS2_STATUS_PIE_MSK);
   441e4:	e0ffdf17 	ldw	r3,-132(fp)
   441e8:	00bfff84 	movi	r2,-2
   441ec:	1884703a 	and	r2,r3,r2
   441f0:	1001703a 	wrctl	status,r2
  
  return context;
   441f4:	e0bfdf17 	ldw	r2,-132(fp)
  
  OS_ENTER_CRITICAL();
   441f8:	e0bfdd15 	stw	r2,-140(fp)

  if( !semdata.OSCnt && id == lockid ) 
   441fc:	e0bffd0b 	ldhu	r2,-12(fp)
   44200:	10bfffcc 	andi	r2,r2,65535
   44204:	10000b1e 	bne	r2,zero,44234 <__malloc_lock+0xd0>
   44208:	d0a00c17 	ldw	r2,-32720(gp)
   4420c:	e0ffde17 	ldw	r3,-136(fp)
   44210:	1880081e 	bne	r3,r2,44234 <__malloc_lock+0xd0>
  {
    /* we do; just count the recursion */
    locks++;
   44214:	d0a72817 	ldw	r2,-25440(gp)
   44218:	10800044 	addi	r2,r2,1
   4421c:	d0a72815 	stw	r2,-25440(gp)
   44220:	e0bfdd17 	ldw	r2,-140(fp)
   44224:	e0bfe015 	stw	r2,-128(fp)
  status &= ~NIOS2_STATUS_PIE_MSK;
  status |= (context & NIOS2_STATUS_PIE_MSK);
  
  NIOS2_WRITE_STATUS (status);
#else
  NIOS2_WRITE_STATUS (context);
   44228:	e0bfe017 	ldw	r2,-128(fp)
   4422c:	1001703a 	wrctl	status,r2
    OS_EXIT_CRITICAL();
   44230:	00000e06 	br	4426c <__malloc_lock+0x108>
   44234:	e0bfdd17 	ldw	r2,-140(fp)
   44238:	e0bfe115 	stw	r2,-124(fp)
   4423c:	e0bfe117 	ldw	r2,-124(fp)
   44240:	1001703a 	wrctl	status,r2
  else 
  {
    /* wait on the other task to yield the heap, then claim ownership of it */
    OS_EXIT_CRITICAL();

    OSSemPend( alt_heapsem, 0, &err );
   44244:	d0e72917 	ldw	r3,-25436(gp)
   44248:	e0bffe84 	addi	r2,fp,-6
   4424c:	1809883a 	mov	r4,r3
   44250:	000b883a 	mov	r5,zero
   44254:	100d883a 	mov	r6,r2
   44258:	0049a940 	call	49a94 <OSSemPend>
    locks  = 1;
   4425c:	00800044 	movi	r2,1
   44260:	d0a72815 	stw	r2,-25440(gp)
    lockid = id;
   44264:	e0bfde17 	ldw	r2,-136(fp)
   44268:	d0a00c15 	stw	r2,-32720(gp)
  }

#endif /* OS_THREAD_SAFE_NEWLIB */
  return;
   4426c:	0001883a 	nop
}
   44270:	e037883a 	mov	sp,fp
   44274:	dfc00117 	ldw	ra,4(sp)
   44278:	df000017 	ldw	fp,0(sp)
   4427c:	dec00204 	addi	sp,sp,8
   44280:	f800283a 	ret

00044284 <__malloc_unlock>:
/*
 *
 */

void __malloc_unlock ( struct _reent *_r )
{
   44284:	defff804 	addi	sp,sp,-32
   44288:	dfc00715 	stw	ra,28(sp)
   4428c:	df000615 	stw	fp,24(sp)
   44290:	df000604 	addi	fp,sp,24
   44294:	e13fff15 	stw	r4,-4(fp)
#if OS_THREAD_SAFE_NEWLIB

#if OS_CRITICAL_METHOD == 3                      /* Allocate storage for CPU status register           */
    OS_CPU_SR  cpu_sr = 0;
   44298:	e03ffa15 	stw	zero,-24(fp)
#endif 

  if (OSRunning != OS_TRUE)
   4429c:	00800174 	movhi	r2,5
   442a0:	108b1544 	addi	r2,r2,11349
   442a4:	10800003 	ldbu	r2,0(r2)
   442a8:	10803fcc 	andi	r2,r2,255
   442ac:	10800060 	cmpeqi	r2,r2,1
   442b0:	1000011e 	bne	r2,zero,442b8 <__malloc_unlock+0x34>
      return;
   442b4:	00002206 	br	44340 <__malloc_unlock+0xbc>
static ALT_INLINE alt_irq_context ALT_ALWAYS_INLINE 
       alt_irq_disable_all (void)
{
  alt_irq_context context;

  NIOS2_READ_STATUS (context);
   442b8:	0005303a 	rdctl	r2,status
   442bc:	e0bffb15 	stw	r2,-20(fp)

  NIOS2_WRITE_STATUS (context & ~NIOS2_STATUS_PIE_MSK);
   442c0:	e0fffb17 	ldw	r3,-20(fp)
   442c4:	00bfff84 	movi	r2,-2
   442c8:	1884703a 	and	r2,r3,r2
   442cc:	1001703a 	wrctl	status,r2
  
  return context;
   442d0:	e0bffb17 	ldw	r2,-20(fp)

  OS_ENTER_CRITICAL();
   442d4:	e0bffa15 	stw	r2,-24(fp)
  if (locks == 0)
   442d8:	d0a72817 	ldw	r2,-25440(gp)
   442dc:	1000051e 	bne	r2,zero,442f4 <__malloc_unlock+0x70>
   442e0:	e0bffa17 	ldw	r2,-24(fp)
   442e4:	e0bffc15 	stw	r2,-16(fp)
  status &= ~NIOS2_STATUS_PIE_MSK;
  status |= (context & NIOS2_STATUS_PIE_MSK);
  
  NIOS2_WRITE_STATUS (status);
#else
  NIOS2_WRITE_STATUS (context);
   442e8:	e0bffc17 	ldw	r2,-16(fp)
   442ec:	1001703a 	wrctl	status,r2
  {
      OS_EXIT_CRITICAL();
      return;
   442f0:	00001306 	br	44340 <__malloc_unlock+0xbc>
  }

  /* release the heap once the number of locks == the number of unlocks */
  if( (--locks) == 0 ) 
   442f4:	d0a72817 	ldw	r2,-25440(gp)
   442f8:	10bfffc4 	addi	r2,r2,-1
   442fc:	d0a72815 	stw	r2,-25440(gp)
   44300:	d0a72817 	ldw	r2,-25440(gp)
   44304:	10000a1e 	bne	r2,zero,44330 <__malloc_unlock+0xac>
  {
    lockid = -1;
   44308:	00bfffc4 	movi	r2,-1
   4430c:	d0a00c15 	stw	r2,-32720(gp)
   44310:	e0bffa17 	ldw	r2,-24(fp)
   44314:	e0bffd15 	stw	r2,-12(fp)
   44318:	e0bffd17 	ldw	r2,-12(fp)
   4431c:	1001703a 	wrctl	status,r2
    OS_EXIT_CRITICAL();
    OSSemPost( alt_heapsem );
   44320:	d0a72917 	ldw	r2,-25436(gp)
   44324:	1009883a 	mov	r4,r2
   44328:	0049e680 	call	49e68 <OSSemPost>
   4432c:	00000406 	br	44340 <__malloc_unlock+0xbc>
   44330:	e0bffa17 	ldw	r2,-24(fp)
   44334:	e0bffe15 	stw	r2,-8(fp)
   44338:	e0bffe17 	ldw	r2,-8(fp)
   4433c:	1001703a 	wrctl	status,r2
  {
      OS_EXIT_CRITICAL();
  }
  
#endif /* OS_THREAD_SAFE_NEWLIB */
}
   44340:	e037883a 	mov	sp,fp
   44344:	dfc00117 	ldw	ra,4(sp)
   44348:	df000017 	ldw	fp,0(sp)
   4434c:	dec00204 	addi	sp,sp,8
   44350:	f800283a 	ret

00044354 <OSEventNameGet>:
*********************************************************************************************************
*/

#if (OS_EVENT_EN) && (OS_EVENT_NAME_SIZE > 1)
INT8U  OSEventNameGet (OS_EVENT *pevent, INT8U *pname, INT8U *perr)
{
   44354:	defff704 	addi	sp,sp,-36
   44358:	dfc00815 	stw	ra,32(sp)
   4435c:	df000715 	stw	fp,28(sp)
   44360:	df000704 	addi	fp,sp,28
   44364:	e13ffd15 	stw	r4,-12(fp)
   44368:	e17ffe15 	stw	r5,-8(fp)
   4436c:	e1bfff15 	stw	r6,-4(fp)
    INT8U      len;
#if OS_CRITICAL_METHOD == 3                      /* Allocate storage for CPU status register           */
    OS_CPU_SR  cpu_sr = 0;
   44370:	e03ff915 	stw	zero,-28(fp)
#endif



#if OS_ARG_CHK_EN > 0
    if (perr == (INT8U *)0) {                    /* Validate 'perr'                                    */
   44374:	e0bfff17 	ldw	r2,-4(fp)
   44378:	1000021e 	bne	r2,zero,44384 <OSEventNameGet+0x30>
        return (0);
   4437c:	0005883a 	mov	r2,zero
   44380:	00003706 	br	44460 <OSEventNameGet+0x10c>
    }
    if (pevent == (OS_EVENT *)0) {               /* Is 'pevent' a NULL pointer?                        */
   44384:	e0bffd17 	ldw	r2,-12(fp)
   44388:	1000051e 	bne	r2,zero,443a0 <OSEventNameGet+0x4c>
        *perr = OS_ERR_PEVENT_NULL;
   4438c:	e0bfff17 	ldw	r2,-4(fp)
   44390:	00c00104 	movi	r3,4
   44394:	10c00005 	stb	r3,0(r2)
        return (0);
   44398:	0005883a 	mov	r2,zero
   4439c:	00003006 	br	44460 <OSEventNameGet+0x10c>
    }
    if (pname == (INT8U *)0) {                   /* Is 'pname' a NULL pointer?                         */
   443a0:	e0bffe17 	ldw	r2,-8(fp)
   443a4:	1000051e 	bne	r2,zero,443bc <OSEventNameGet+0x68>
        *perr = OS_ERR_PNAME_NULL;
   443a8:	e0bfff17 	ldw	r2,-4(fp)
   443ac:	00c00304 	movi	r3,12
   443b0:	10c00005 	stb	r3,0(r2)
        return (0);
   443b4:	0005883a 	mov	r2,zero
   443b8:	00002906 	br	44460 <OSEventNameGet+0x10c>
    }
#endif
    if (OSIntNesting > 0) {                      /* See if trying to call from an ISR                  */
   443bc:	d0a73803 	ldbu	r2,-25376(gp)
   443c0:	10803fcc 	andi	r2,r2,255
   443c4:	10000526 	beq	r2,zero,443dc <OSEventNameGet+0x88>
        *perr  = OS_ERR_NAME_GET_ISR;
   443c8:	e0bfff17 	ldw	r2,-4(fp)
   443cc:	00c00444 	movi	r3,17
   443d0:	10c00005 	stb	r3,0(r2)
        return (0);
   443d4:	0005883a 	mov	r2,zero
   443d8:	00002106 	br	44460 <OSEventNameGet+0x10c>
    }
    switch (pevent->OSEventType) {
   443dc:	e0bffd17 	ldw	r2,-12(fp)
   443e0:	10800003 	ldbu	r2,0(r2)
   443e4:	10803fcc 	andi	r2,r2,255
   443e8:	10bfffc4 	addi	r2,r2,-1
   443ec:	10800128 	cmpgeui	r2,r2,4
   443f0:	10000526 	beq	r2,zero,44408 <OSEventNameGet+0xb4>
        case OS_EVENT_TYPE_MBOX:
        case OS_EVENT_TYPE_Q:
             break;

        default:
             *perr = OS_ERR_EVENT_TYPE;
   443f4:	e0bfff17 	ldw	r2,-4(fp)
   443f8:	00c00044 	movi	r3,1
   443fc:	10c00005 	stb	r3,0(r2)
             return (0);
   44400:	0005883a 	mov	r2,zero
   44404:	00001606 	br	44460 <OSEventNameGet+0x10c>
    switch (pevent->OSEventType) {
        case OS_EVENT_TYPE_SEM:
        case OS_EVENT_TYPE_MUTEX:
        case OS_EVENT_TYPE_MBOX:
        case OS_EVENT_TYPE_Q:
             break;
   44408:	0001883a 	nop
static ALT_INLINE alt_irq_context ALT_ALWAYS_INLINE 
       alt_irq_disable_all (void)
{
  alt_irq_context context;

  NIOS2_READ_STATUS (context);
   4440c:	0005303a 	rdctl	r2,status
   44410:	e0bffb15 	stw	r2,-20(fp)

  NIOS2_WRITE_STATUS (context & ~NIOS2_STATUS_PIE_MSK);
   44414:	e0fffb17 	ldw	r3,-20(fp)
   44418:	00bfff84 	movi	r2,-2
   4441c:	1884703a 	and	r2,r3,r2
   44420:	1001703a 	wrctl	status,r2
  
  return context;
   44424:	e0bffb17 	ldw	r2,-20(fp)

        default:
             *perr = OS_ERR_EVENT_TYPE;
             return (0);
    }
    OS_ENTER_CRITICAL();
   44428:	e0bff915 	stw	r2,-28(fp)
    len   = OS_StrCopy(pname, pevent->OSEventName);   /* Copy name from OS_EVENT                       */
   4442c:	e0bffd17 	ldw	r2,-12(fp)
   44430:	10800384 	addi	r2,r2,14
   44434:	e13ffe17 	ldw	r4,-8(fp)
   44438:	100b883a 	mov	r5,r2
   4443c:	0045da80 	call	45da8 <OS_StrCopy>
   44440:	e0bffa05 	stb	r2,-24(fp)
   44444:	e0bff917 	ldw	r2,-28(fp)
   44448:	e0bffc15 	stw	r2,-16(fp)
  status &= ~NIOS2_STATUS_PIE_MSK;
  status |= (context & NIOS2_STATUS_PIE_MSK);
  
  NIOS2_WRITE_STATUS (status);
#else
  NIOS2_WRITE_STATUS (context);
   4444c:	e0bffc17 	ldw	r2,-16(fp)
   44450:	1001703a 	wrctl	status,r2
    OS_EXIT_CRITICAL();
    *perr = OS_ERR_NONE;
   44454:	e0bfff17 	ldw	r2,-4(fp)
   44458:	10000005 	stb	zero,0(r2)
    return (len);
   4445c:	e0bffa03 	ldbu	r2,-24(fp)
}
   44460:	e037883a 	mov	sp,fp
   44464:	dfc00117 	ldw	ra,4(sp)
   44468:	df000017 	ldw	fp,0(sp)
   4446c:	dec00204 	addi	sp,sp,8
   44470:	f800283a 	ret

00044474 <OSEventNameSet>:
*********************************************************************************************************
*/

#if (OS_EVENT_EN) && (OS_EVENT_NAME_SIZE > 1)
void  OSEventNameSet (OS_EVENT *pevent, INT8U *pname, INT8U *perr)
{
   44474:	defff604 	addi	sp,sp,-40
   44478:	dfc00915 	stw	ra,36(sp)
   4447c:	df000815 	stw	fp,32(sp)
   44480:	df000804 	addi	fp,sp,32
   44484:	e13ffd15 	stw	r4,-12(fp)
   44488:	e17ffe15 	stw	r5,-8(fp)
   4448c:	e1bfff15 	stw	r6,-4(fp)
    INT8U      len;
#if OS_CRITICAL_METHOD == 3                      /* Allocate storage for CPU status register           */
    OS_CPU_SR  cpu_sr = 0;
   44490:	e03ff815 	stw	zero,-32(fp)
#endif



#if OS_ARG_CHK_EN > 0
    if (perr == (INT8U *)0) {                    /* Validate 'perr'                                    */
   44494:	e0bfff17 	ldw	r2,-4(fp)
   44498:	1000011e 	bne	r2,zero,444a0 <OSEventNameSet+0x2c>
        return;
   4449c:	00003f06 	br	4459c <OSEventNameSet+0x128>
    }
    if (pevent == (OS_EVENT *)0) {               /* Is 'pevent' a NULL pointer?                        */
   444a0:	e0bffd17 	ldw	r2,-12(fp)
   444a4:	1000041e 	bne	r2,zero,444b8 <OSEventNameSet+0x44>
        *perr = OS_ERR_PEVENT_NULL;
   444a8:	e0bfff17 	ldw	r2,-4(fp)
   444ac:	00c00104 	movi	r3,4
   444b0:	10c00005 	stb	r3,0(r2)
        return;
   444b4:	00003906 	br	4459c <OSEventNameSet+0x128>
    }
    if (pname == (INT8U *)0) {                   /* Is 'pname' a NULL pointer?                         */
   444b8:	e0bffe17 	ldw	r2,-8(fp)
   444bc:	1000041e 	bne	r2,zero,444d0 <OSEventNameSet+0x5c>
        *perr = OS_ERR_PNAME_NULL;
   444c0:	e0bfff17 	ldw	r2,-4(fp)
   444c4:	00c00304 	movi	r3,12
   444c8:	10c00005 	stb	r3,0(r2)
        return;
   444cc:	00003306 	br	4459c <OSEventNameSet+0x128>
    }
#endif
    if (OSIntNesting > 0) {                      /* See if trying to call from an ISR                  */
   444d0:	d0a73803 	ldbu	r2,-25376(gp)
   444d4:	10803fcc 	andi	r2,r2,255
   444d8:	10000426 	beq	r2,zero,444ec <OSEventNameSet+0x78>
        *perr = OS_ERR_NAME_SET_ISR;
   444dc:	e0bfff17 	ldw	r2,-4(fp)
   444e0:	00c00484 	movi	r3,18
   444e4:	10c00005 	stb	r3,0(r2)
        return;
   444e8:	00002c06 	br	4459c <OSEventNameSet+0x128>
    }
    switch (pevent->OSEventType) {
   444ec:	e0bffd17 	ldw	r2,-12(fp)
   444f0:	10800003 	ldbu	r2,0(r2)
   444f4:	10803fcc 	andi	r2,r2,255
   444f8:	10bfffc4 	addi	r2,r2,-1
   444fc:	10800128 	cmpgeui	r2,r2,4
   44500:	10000426 	beq	r2,zero,44514 <OSEventNameSet+0xa0>
        case OS_EVENT_TYPE_MBOX:
        case OS_EVENT_TYPE_Q:
             break;

        default:
             *perr = OS_ERR_EVENT_TYPE;
   44504:	e0bfff17 	ldw	r2,-4(fp)
   44508:	00c00044 	movi	r3,1
   4450c:	10c00005 	stb	r3,0(r2)
             return;
   44510:	00002206 	br	4459c <OSEventNameSet+0x128>
    switch (pevent->OSEventType) {
        case OS_EVENT_TYPE_SEM:
        case OS_EVENT_TYPE_MUTEX:
        case OS_EVENT_TYPE_MBOX:
        case OS_EVENT_TYPE_Q:
             break;
   44514:	0001883a 	nop
static ALT_INLINE alt_irq_context ALT_ALWAYS_INLINE 
       alt_irq_disable_all (void)
{
  alt_irq_context context;

  NIOS2_READ_STATUS (context);
   44518:	0005303a 	rdctl	r2,status
   4451c:	e0bffa15 	stw	r2,-24(fp)

  NIOS2_WRITE_STATUS (context & ~NIOS2_STATUS_PIE_MSK);
   44520:	e0fffa17 	ldw	r3,-24(fp)
   44524:	00bfff84 	movi	r2,-2
   44528:	1884703a 	and	r2,r3,r2
   4452c:	1001703a 	wrctl	status,r2
  
  return context;
   44530:	e0bffa17 	ldw	r2,-24(fp)

        default:
             *perr = OS_ERR_EVENT_TYPE;
             return;
    }
    OS_ENTER_CRITICAL();
   44534:	e0bff815 	stw	r2,-32(fp)
    len = OS_StrLen(pname);                           /* Can we fit the string in the storage area?    */
   44538:	e13ffe17 	ldw	r4,-8(fp)
   4453c:	0045e1c0 	call	45e1c <OS_StrLen>
   44540:	e0bff905 	stb	r2,-28(fp)
    if (len > (OS_EVENT_NAME_SIZE - 1)) {             /* No                                            */
   44544:	e0bff903 	ldbu	r2,-28(fp)
   44548:	10800830 	cmpltui	r2,r2,32
   4454c:	1000081e 	bne	r2,zero,44570 <OSEventNameSet+0xfc>
   44550:	e0bff817 	ldw	r2,-32(fp)
   44554:	e0bffb15 	stw	r2,-20(fp)
  status &= ~NIOS2_STATUS_PIE_MSK;
  status |= (context & NIOS2_STATUS_PIE_MSK);
  
  NIOS2_WRITE_STATUS (status);
#else
  NIOS2_WRITE_STATUS (context);
   44558:	e0bffb17 	ldw	r2,-20(fp)
   4455c:	1001703a 	wrctl	status,r2
        OS_EXIT_CRITICAL();
        *perr = OS_ERR_EVENT_NAME_TOO_LONG;
   44560:	e0bfff17 	ldw	r2,-4(fp)
   44564:	00c002c4 	movi	r3,11
   44568:	10c00005 	stb	r3,0(r2)
        return;
   4456c:	00000b06 	br	4459c <OSEventNameSet+0x128>
    }
    (void)OS_StrCopy(pevent->OSEventName, pname);     /* Yes, copy name to the event control block     */
   44570:	e0bffd17 	ldw	r2,-12(fp)
   44574:	10800384 	addi	r2,r2,14
   44578:	1009883a 	mov	r4,r2
   4457c:	e17ffe17 	ldw	r5,-8(fp)
   44580:	0045da80 	call	45da8 <OS_StrCopy>
   44584:	e0bff817 	ldw	r2,-32(fp)
   44588:	e0bffc15 	stw	r2,-16(fp)
   4458c:	e0bffc17 	ldw	r2,-16(fp)
   44590:	1001703a 	wrctl	status,r2
    OS_EXIT_CRITICAL();
    *perr = OS_ERR_NONE;
   44594:	e0bfff17 	ldw	r2,-4(fp)
   44598:	10000005 	stb	zero,0(r2)
}
   4459c:	e037883a 	mov	sp,fp
   445a0:	dfc00117 	ldw	ra,4(sp)
   445a4:	df000017 	ldw	fp,0(sp)
   445a8:	dec00204 	addi	sp,sp,8
   445ac:	f800283a 	ret

000445b0 <OSEventPendMulti>:
*********************************************************************************************************
*/
/*$PAGE*/
#if ((OS_EVENT_EN) && (OS_EVENT_MULTI_EN > 0))
INT16U  OSEventPendMulti (OS_EVENT **pevents_pend, OS_EVENT **pevents_rdy, void **pmsgs_rdy, INT16U timeout, INT8U *perr)
{
   445b0:	deffed04 	addi	sp,sp,-76
   445b4:	dfc01215 	stw	ra,72(sp)
   445b8:	df001115 	stw	fp,68(sp)
   445bc:	df001104 	addi	fp,sp,68
   445c0:	e13ffc15 	stw	r4,-16(fp)
   445c4:	e17ffd15 	stw	r5,-12(fp)
   445c8:	e1bffe15 	stw	r6,-8(fp)
   445cc:	3805883a 	mov	r2,r7
   445d0:	e0bfff0d 	sth	r2,-4(fp)
#endif
    BOOLEAN     events_rdy;
    INT16U      events_rdy_nbr;
    INT8U       events_stat;
#if (OS_CRITICAL_METHOD == 3)                           /* Allocate storage for CPU status register    */
    OS_CPU_SR   cpu_sr = 0;
   445d4:	e03ff315 	stw	zero,-52(fp)
#endif



#if (OS_ARG_CHK_EN > 0)
    if (perr == (INT8U *)0) {                           /* Validate 'perr'                             */
   445d8:	e0800217 	ldw	r2,8(fp)
   445dc:	1000021e 	bne	r2,zero,445e8 <OSEventPendMulti+0x38>
        return (0);
   445e0:	0005883a 	mov	r2,zero
   445e4:	00017106 	br	44bac <OSEventPendMulti+0x5fc>
    }
    if (pevents_pend == (OS_EVENT **)0) {               /* Validate 'pevents_pend'                     */
   445e8:	e0bffc17 	ldw	r2,-16(fp)
   445ec:	1000051e 	bne	r2,zero,44604 <OSEventPendMulti+0x54>
       *perr =  OS_ERR_PEVENT_NULL;
   445f0:	e0800217 	ldw	r2,8(fp)
   445f4:	00c00104 	movi	r3,4
   445f8:	10c00005 	stb	r3,0(r2)
        return (0);
   445fc:	0005883a 	mov	r2,zero
   44600:	00016a06 	br	44bac <OSEventPendMulti+0x5fc>
    }
    if (pevents_rdy  == (OS_EVENT **)0) {               /* Validate 'pevents_rdy'                      */
   44604:	e0bffd17 	ldw	r2,-12(fp)
   44608:	1000051e 	bne	r2,zero,44620 <OSEventPendMulti+0x70>
       *perr =  OS_ERR_PEVENT_NULL;
   4460c:	e0800217 	ldw	r2,8(fp)
   44610:	00c00104 	movi	r3,4
   44614:	10c00005 	stb	r3,0(r2)
        return (0);
   44618:	0005883a 	mov	r2,zero
   4461c:	00016306 	br	44bac <OSEventPendMulti+0x5fc>
    }
    if (pmsgs_rdy == (void **)0) {                      /* Validate 'pmsgs_rdy'                        */
   44620:	e0bffe17 	ldw	r2,-8(fp)
   44624:	1000051e 	bne	r2,zero,4463c <OSEventPendMulti+0x8c>
       *perr =  OS_ERR_PEVENT_NULL;
   44628:	e0800217 	ldw	r2,8(fp)
   4462c:	00c00104 	movi	r3,4
   44630:	10c00005 	stb	r3,0(r2)
        return (0);
   44634:	0005883a 	mov	r2,zero
   44638:	00015c06 	br	44bac <OSEventPendMulti+0x5fc>
    }
#endif

   *pevents_rdy = (OS_EVENT *)0;                        /* Init array to NULL in case of errors        */
   4463c:	e0bffd17 	ldw	r2,-12(fp)
   44640:	10000015 	stw	zero,0(r2)

    pevents     =  pevents_pend;
   44644:	e0bffc17 	ldw	r2,-16(fp)
   44648:	e0bfef15 	stw	r2,-68(fp)
    pevent      = *pevents;
   4464c:	e0bfef17 	ldw	r2,-68(fp)
   44650:	10800017 	ldw	r2,0(r2)
   44654:	e0bff015 	stw	r2,-64(fp)
    while  (pevent != (OS_EVENT *)0) {
   44658:	00001906 	br	446c0 <OSEventPendMulti+0x110>
        switch (pevent->OSEventType) {                  /* Validate event block types                  */
   4465c:	e0bff017 	ldw	r2,-64(fp)
   44660:	10800003 	ldbu	r2,0(r2)
   44664:	10803fcc 	andi	r2,r2,255
   44668:	10c000a0 	cmpeqi	r3,r2,2
   4466c:	1800091e 	bne	r3,zero,44694 <OSEventPendMulti+0xe4>
   44670:	10c000e0 	cmpeqi	r3,r2,3
   44674:	1800091e 	bne	r3,zero,4469c <OSEventPendMulti+0xec>
   44678:	10800060 	cmpeqi	r2,r2,1
   4467c:	1000091e 	bne	r2,zero,446a4 <OSEventPendMulti+0xf4>
#endif

            case OS_EVENT_TYPE_MUTEX:                                            
            case OS_EVENT_TYPE_FLAG:
            default:           
                *perr = OS_ERR_EVENT_TYPE;
   44680:	e0800217 	ldw	r2,8(fp)
   44684:	00c00044 	movi	r3,1
   44688:	10c00005 	stb	r3,0(r2)
                 return (0);
   4468c:	0005883a 	mov	r2,zero
   44690:	00014606 	br	44bac <OSEventPendMulti+0x5fc>
            case OS_EVENT_TYPE_MBOX:
                 break;
#endif
#if ((OS_Q_EN   > 0) && (OS_MAX_QS > 0))
            case OS_EVENT_TYPE_Q:
                 break;
   44694:	0001883a 	nop
   44698:	00000306 	br	446a8 <OSEventPendMulti+0xf8>
    pevent      = *pevents;
    while  (pevent != (OS_EVENT *)0) {
        switch (pevent->OSEventType) {                  /* Validate event block types                  */
#if (OS_SEM_EN  > 0)
            case OS_EVENT_TYPE_SEM:
                 break;
   4469c:	0001883a 	nop
   446a0:	00000106 	br	446a8 <OSEventPendMulti+0xf8>
#endif
#if (OS_MBOX_EN > 0)
            case OS_EVENT_TYPE_MBOX:
                 break;
   446a4:	0001883a 	nop
            case OS_EVENT_TYPE_FLAG:
            default:           
                *perr = OS_ERR_EVENT_TYPE;
                 return (0);
        }
        pevents++;
   446a8:	e0bfef17 	ldw	r2,-68(fp)
   446ac:	10800104 	addi	r2,r2,4
   446b0:	e0bfef15 	stw	r2,-68(fp)
        pevent = *pevents;
   446b4:	e0bfef17 	ldw	r2,-68(fp)
   446b8:	10800017 	ldw	r2,0(r2)
   446bc:	e0bff015 	stw	r2,-64(fp)

   *pevents_rdy = (OS_EVENT *)0;                        /* Init array to NULL in case of errors        */

    pevents     =  pevents_pend;
    pevent      = *pevents;
    while  (pevent != (OS_EVENT *)0) {
   446c0:	e0bff017 	ldw	r2,-64(fp)
   446c4:	103fe51e 	bne	r2,zero,4465c <__alt_data_end+0xfffceafc>
        }
        pevents++;
        pevent = *pevents;
    }

    if (OSIntNesting  > 0) {                            /* See if called from ISR ...                  */
   446c8:	d0a73803 	ldbu	r2,-25376(gp)
   446cc:	10803fcc 	andi	r2,r2,255
   446d0:	10000526 	beq	r2,zero,446e8 <OSEventPendMulti+0x138>
       *perr =  OS_ERR_PEND_ISR;                        /* ... can't PEND from an ISR                  */
   446d4:	e0800217 	ldw	r2,8(fp)
   446d8:	00c00084 	movi	r3,2
   446dc:	10c00005 	stb	r3,0(r2)
        return (0);
   446e0:	0005883a 	mov	r2,zero
   446e4:	00013106 	br	44bac <OSEventPendMulti+0x5fc>
    }
    if (OSLockNesting > 0) {                            /* See if called with scheduler locked ...     */
   446e8:	d0a72a03 	ldbu	r2,-25432(gp)
   446ec:	10803fcc 	andi	r2,r2,255
   446f0:	10000526 	beq	r2,zero,44708 <OSEventPendMulti+0x158>
       *perr =  OS_ERR_PEND_LOCKED;                     /* ... can't PEND when locked                  */
   446f4:	e0800217 	ldw	r2,8(fp)
   446f8:	00c00344 	movi	r3,13
   446fc:	10c00005 	stb	r3,0(r2)
        return (0);
   44700:	0005883a 	mov	r2,zero
   44704:	00012906 	br	44bac <OSEventPendMulti+0x5fc>
static ALT_INLINE alt_irq_context ALT_ALWAYS_INLINE 
       alt_irq_disable_all (void)
{
  alt_irq_context context;

  NIOS2_READ_STATUS (context);
   44708:	0005303a 	rdctl	r2,status
   4470c:	e0bff515 	stw	r2,-44(fp)

  NIOS2_WRITE_STATUS (context & ~NIOS2_STATUS_PIE_MSK);
   44710:	e0fff517 	ldw	r3,-44(fp)
   44714:	00bfff84 	movi	r2,-2
   44718:	1884703a 	and	r2,r3,r2
   4471c:	1001703a 	wrctl	status,r2
  
  return context;
   44720:	e0bff517 	ldw	r2,-44(fp)
    }

/*$PAGE*/
    OS_ENTER_CRITICAL();
   44724:	e0bff315 	stw	r2,-52(fp)
    events_rdy     =  OS_FALSE;
   44728:	e03ff105 	stb	zero,-60(fp)
    events_rdy_nbr =  0;
   4472c:	e03ff18d 	sth	zero,-58(fp)
    events_stat    =  OS_STAT_RDY;
   44730:	e03ff205 	stb	zero,-56(fp)
    pevents        =  pevents_pend;
   44734:	e0bffc17 	ldw	r2,-16(fp)
   44738:	e0bfef15 	stw	r2,-68(fp)
    pevent         = *pevents;
   4473c:	e0bfef17 	ldw	r2,-68(fp)
   44740:	10800017 	ldw	r2,0(r2)
   44744:	e0bff015 	stw	r2,-64(fp)
    while (pevent != (OS_EVENT *)0) {                   /* See if any events already available         */
   44748:	00008106 	br	44950 <OSEventPendMulti+0x3a0>
        switch (pevent->OSEventType) {
   4474c:	e0bff017 	ldw	r2,-64(fp)
   44750:	10800003 	ldbu	r2,0(r2)
   44754:	10803fcc 	andi	r2,r2,255
   44758:	10c000a0 	cmpeqi	r3,r2,2
   4475c:	18003c1e 	bne	r3,zero,44850 <OSEventPendMulti+0x2a0>
   44760:	10c000e0 	cmpeqi	r3,r2,3
   44764:	1800031e 	bne	r3,zero,44774 <OSEventPendMulti+0x1c4>
   44768:	10800060 	cmpeqi	r2,r2,1
   4476c:	10001e1e 	bne	r2,zero,447e8 <OSEventPendMulti+0x238>
   44770:	00006606 	br	4490c <OSEventPendMulti+0x35c>
#if (OS_SEM_EN > 0)
            case OS_EVENT_TYPE_SEM:
                 if (pevent->OSEventCnt > 0) {          /* If semaphore count > 0, resource available; */
   44774:	e0bff017 	ldw	r2,-64(fp)
   44778:	1080020b 	ldhu	r2,8(r2)
   4477c:	10bfffcc 	andi	r2,r2,65535
   44780:	10001526 	beq	r2,zero,447d8 <OSEventPendMulti+0x228>
                     pevent->OSEventCnt--;              /* ... decrement semaphore,                ... */
   44784:	e0bff017 	ldw	r2,-64(fp)
   44788:	1080020b 	ldhu	r2,8(r2)
   4478c:	10bfffc4 	addi	r2,r2,-1
   44790:	1007883a 	mov	r3,r2
   44794:	e0bff017 	ldw	r2,-64(fp)
   44798:	10c0020d 	sth	r3,8(r2)
                    *pevents_rdy++ =  pevent;           /* ... and return available semaphore event    */
   4479c:	e0bffd17 	ldw	r2,-12(fp)
   447a0:	10c00104 	addi	r3,r2,4
   447a4:	e0fffd15 	stw	r3,-12(fp)
   447a8:	e0fff017 	ldw	r3,-64(fp)
   447ac:	10c00015 	stw	r3,0(r2)
                      events_rdy   =  OS_TRUE;
   447b0:	00800044 	movi	r2,1
   447b4:	e0bff105 	stb	r2,-60(fp)
                    *pmsgs_rdy++   = (void *)0;         /* NO message returned  for semaphores         */
   447b8:	e0bffe17 	ldw	r2,-8(fp)
   447bc:	10c00104 	addi	r3,r2,4
   447c0:	e0fffe15 	stw	r3,-8(fp)
   447c4:	10000015 	stw	zero,0(r2)
                      events_rdy_nbr++;
   447c8:	e0bff18b 	ldhu	r2,-58(fp)
   447cc:	10800044 	addi	r2,r2,1
   447d0:	e0bff18d 	sth	r2,-58(fp)

                 } else {
                      events_stat |=  OS_STAT_SEM;      /* Configure multi-pend for semaphore events   */
                 }
                 break;
   447d4:	00005806 	br	44938 <OSEventPendMulti+0x388>
                      events_rdy   =  OS_TRUE;
                    *pmsgs_rdy++   = (void *)0;         /* NO message returned  for semaphores         */
                      events_rdy_nbr++;

                 } else {
                      events_stat |=  OS_STAT_SEM;      /* Configure multi-pend for semaphore events   */
   447d8:	e0bff203 	ldbu	r2,-56(fp)
   447dc:	10800054 	ori	r2,r2,1
   447e0:	e0bff205 	stb	r2,-56(fp)
                 }
                 break;
   447e4:	00005406 	br	44938 <OSEventPendMulti+0x388>
#endif

#if (OS_MBOX_EN > 0)
            case OS_EVENT_TYPE_MBOX:
                 if (pevent->OSEventPtr != (void *)0) { /* If mailbox NOT empty;                   ... */
   447e8:	e0bff017 	ldw	r2,-64(fp)
   447ec:	10800117 	ldw	r2,4(r2)
   447f0:	10001326 	beq	r2,zero,44840 <OSEventPendMulti+0x290>
                                                        /* ... return available message,           ... */
                    *pmsgs_rdy++         = (void *)pevent->OSEventPtr;
   447f4:	e0bffe17 	ldw	r2,-8(fp)
   447f8:	10c00104 	addi	r3,r2,4
   447fc:	e0fffe15 	stw	r3,-8(fp)
   44800:	e0fff017 	ldw	r3,-64(fp)
   44804:	18c00117 	ldw	r3,4(r3)
   44808:	10c00015 	stw	r3,0(r2)
                     pevent->OSEventPtr  = (void *)0;
   4480c:	e0bff017 	ldw	r2,-64(fp)
   44810:	10000115 	stw	zero,4(r2)
                    *pevents_rdy++       =  pevent;     /* ... and return available mailbox event      */
   44814:	e0bffd17 	ldw	r2,-12(fp)
   44818:	10c00104 	addi	r3,r2,4
   4481c:	e0fffd15 	stw	r3,-12(fp)
   44820:	e0fff017 	ldw	r3,-64(fp)
   44824:	10c00015 	stw	r3,0(r2)
                      events_rdy         =  OS_TRUE;
   44828:	00800044 	movi	r2,1
   4482c:	e0bff105 	stb	r2,-60(fp)
                      events_rdy_nbr++;
   44830:	e0bff18b 	ldhu	r2,-58(fp)
   44834:	10800044 	addi	r2,r2,1
   44838:	e0bff18d 	sth	r2,-58(fp)

                 } else {
                      events_stat |= OS_STAT_MBOX;      /* Configure multi-pend for mailbox events     */
                 }
                 break;
   4483c:	00003e06 	br	44938 <OSEventPendMulti+0x388>
                    *pevents_rdy++       =  pevent;     /* ... and return available mailbox event      */
                      events_rdy         =  OS_TRUE;
                      events_rdy_nbr++;

                 } else {
                      events_stat |= OS_STAT_MBOX;      /* Configure multi-pend for mailbox events     */
   44840:	e0bff203 	ldbu	r2,-56(fp)
   44844:	10800094 	ori	r2,r2,2
   44848:	e0bff205 	stb	r2,-56(fp)
                 }
                 break;
   4484c:	00003a06 	br	44938 <OSEventPendMulti+0x388>
#endif

#if ((OS_Q_EN > 0) && (OS_MAX_QS > 0))
            case OS_EVENT_TYPE_Q:
                 pq = (OS_Q *)pevent->OSEventPtr;
   44850:	e0bff017 	ldw	r2,-64(fp)
   44854:	10800117 	ldw	r2,4(r2)
   44858:	e0bff415 	stw	r2,-48(fp)
                 if (pq->OSQEntries > 0) {              /* If queue NOT empty;                     ... */
   4485c:	e0bff417 	ldw	r2,-48(fp)
   44860:	1080058b 	ldhu	r2,22(r2)
   44864:	10bfffcc 	andi	r2,r2,65535
   44868:	10002426 	beq	r2,zero,448fc <OSEventPendMulti+0x34c>
                                                        /* ... return available message,           ... */
                    *pmsgs_rdy++ = (void *)*pq->OSQOut++;
   4486c:	e0bffe17 	ldw	r2,-8(fp)
   44870:	10c00104 	addi	r3,r2,4
   44874:	e0fffe15 	stw	r3,-8(fp)
   44878:	e0fff417 	ldw	r3,-48(fp)
   4487c:	18c00417 	ldw	r3,16(r3)
   44880:	19400104 	addi	r5,r3,4
   44884:	e13ff417 	ldw	r4,-48(fp)
   44888:	21400415 	stw	r5,16(r4)
   4488c:	18c00017 	ldw	r3,0(r3)
   44890:	10c00015 	stw	r3,0(r2)
                     if (pq->OSQOut == pq->OSQEnd) {    /* If OUT ptr at queue end, ...                */
   44894:	e0bff417 	ldw	r2,-48(fp)
   44898:	10c00417 	ldw	r3,16(r2)
   4489c:	e0bff417 	ldw	r2,-48(fp)
   448a0:	10800217 	ldw	r2,8(r2)
   448a4:	1880041e 	bne	r3,r2,448b8 <OSEventPendMulti+0x308>
                         pq->OSQOut  = pq->OSQStart;    /* ... wrap   to queue start                   */
   448a8:	e0bff417 	ldw	r2,-48(fp)
   448ac:	10c00117 	ldw	r3,4(r2)
   448b0:	e0bff417 	ldw	r2,-48(fp)
   448b4:	10c00415 	stw	r3,16(r2)
                     }
                     pq->OSQEntries--;                  /* Update number of queue entries              */
   448b8:	e0bff417 	ldw	r2,-48(fp)
   448bc:	1080058b 	ldhu	r2,22(r2)
   448c0:	10bfffc4 	addi	r2,r2,-1
   448c4:	1007883a 	mov	r3,r2
   448c8:	e0bff417 	ldw	r2,-48(fp)
   448cc:	10c0058d 	sth	r3,22(r2)
                    *pevents_rdy++ = pevent;            /* ... and return available queue event        */
   448d0:	e0bffd17 	ldw	r2,-12(fp)
   448d4:	10c00104 	addi	r3,r2,4
   448d8:	e0fffd15 	stw	r3,-12(fp)
   448dc:	e0fff017 	ldw	r3,-64(fp)
   448e0:	10c00015 	stw	r3,0(r2)
                      events_rdy   = OS_TRUE;
   448e4:	00800044 	movi	r2,1
   448e8:	e0bff105 	stb	r2,-60(fp)
                      events_rdy_nbr++;
   448ec:	e0bff18b 	ldhu	r2,-58(fp)
   448f0:	10800044 	addi	r2,r2,1
   448f4:	e0bff18d 	sth	r2,-58(fp)

                 } else {
                      events_stat |= OS_STAT_Q;         /* Configure multi-pend for queue events       */
                 }
                 break;
   448f8:	00000f06 	br	44938 <OSEventPendMulti+0x388>
                    *pevents_rdy++ = pevent;            /* ... and return available queue event        */
                      events_rdy   = OS_TRUE;
                      events_rdy_nbr++;

                 } else {
                      events_stat |= OS_STAT_Q;         /* Configure multi-pend for queue events       */
   448fc:	e0bff203 	ldbu	r2,-56(fp)
   44900:	10800114 	ori	r2,r2,4
   44904:	e0bff205 	stb	r2,-56(fp)
                 }
                 break;
   44908:	00000b06 	br	44938 <OSEventPendMulti+0x388>
   4490c:	e0bff317 	ldw	r2,-52(fp)
   44910:	e0bff615 	stw	r2,-40(fp)
  status &= ~NIOS2_STATUS_PIE_MSK;
  status |= (context & NIOS2_STATUS_PIE_MSK);
  
  NIOS2_WRITE_STATUS (status);
#else
  NIOS2_WRITE_STATUS (context);
   44914:	e0bff617 	ldw	r2,-40(fp)
   44918:	1001703a 	wrctl	status,r2

            case OS_EVENT_TYPE_MUTEX:                                            
            case OS_EVENT_TYPE_FLAG:
            default:           
                 OS_EXIT_CRITICAL();
                *pevents_rdy = (OS_EVENT *)0;           /* NULL terminate return event array           */
   4491c:	e0bffd17 	ldw	r2,-12(fp)
   44920:	10000015 	stw	zero,0(r2)
                *perr        =  OS_ERR_EVENT_TYPE;
   44924:	e0800217 	ldw	r2,8(fp)
   44928:	00c00044 	movi	r3,1
   4492c:	10c00005 	stb	r3,0(r2)
                 return (events_rdy_nbr);
   44930:	e0bff18b 	ldhu	r2,-58(fp)
   44934:	00009d06 	br	44bac <OSEventPendMulti+0x5fc>
        }
        pevents++;
   44938:	e0bfef17 	ldw	r2,-68(fp)
   4493c:	10800104 	addi	r2,r2,4
   44940:	e0bfef15 	stw	r2,-68(fp)
        pevent = *pevents;
   44944:	e0bfef17 	ldw	r2,-68(fp)
   44948:	10800017 	ldw	r2,0(r2)
   4494c:	e0bff015 	stw	r2,-64(fp)
    events_rdy     =  OS_FALSE;
    events_rdy_nbr =  0;
    events_stat    =  OS_STAT_RDY;
    pevents        =  pevents_pend;
    pevent         = *pevents;
    while (pevent != (OS_EVENT *)0) {                   /* See if any events already available         */
   44950:	e0bff017 	ldw	r2,-64(fp)
   44954:	103f7d1e 	bne	r2,zero,4474c <__alt_data_end+0xfffcebec>
        }
        pevents++;
        pevent = *pevents;
    }

    if ( events_rdy == OS_TRUE) {                       /* Return any events already available         */
   44958:	e0bff103 	ldbu	r2,-60(fp)
   4495c:	10800058 	cmpnei	r2,r2,1
   44960:	10000a1e 	bne	r2,zero,4498c <OSEventPendMulti+0x3dc>
       *pevents_rdy = (OS_EVENT *)0;                    /* NULL terminate return event array           */
   44964:	e0bffd17 	ldw	r2,-12(fp)
   44968:	10000015 	stw	zero,0(r2)
   4496c:	e0bff317 	ldw	r2,-52(fp)
   44970:	e0bff715 	stw	r2,-36(fp)
   44974:	e0bff717 	ldw	r2,-36(fp)
   44978:	1001703a 	wrctl	status,r2
        OS_EXIT_CRITICAL();
       *perr        =  OS_ERR_NONE;
   4497c:	e0800217 	ldw	r2,8(fp)
   44980:	10000005 	stb	zero,0(r2)
        return (events_rdy_nbr);
   44984:	e0bff18b 	ldhu	r2,-58(fp)
   44988:	00008806 	br	44bac <OSEventPendMulti+0x5fc>
    }
/*$PAGE*/
                                                        /* Otherwise, must wait until any event occurs */
    OSTCBCur->OSTCBStat     |= events_stat  |           /* Resource not available, ...                 */
   4498c:	d0a73917 	ldw	r2,-25372(gp)
   44990:	d0e73917 	ldw	r3,-25372(gp)
   44994:	19000c03 	ldbu	r4,48(r3)
   44998:	e0fff203 	ldbu	r3,-56(fp)
   4499c:	20c6b03a 	or	r3,r4,r3
   449a0:	1809883a 	mov	r4,r3
   449a4:	00ffe004 	movi	r3,-128
   449a8:	20c6b03a 	or	r3,r4,r3
   449ac:	10c00c05 	stb	r3,48(r2)
                               OS_STAT_MULTI;           /* ... pend on multiple events                 */
    OSTCBCur->OSTCBStatPend  = OS_STAT_PEND_OK;
   449b0:	d0a73917 	ldw	r2,-25372(gp)
   449b4:	10000c45 	stb	zero,49(r2)
    OSTCBCur->OSTCBDly       = timeout;                 /* Store pend timeout in TCB                   */
   449b8:	d0a73917 	ldw	r2,-25372(gp)
   449bc:	e0ffff0b 	ldhu	r3,-4(fp)
   449c0:	10c00b8d 	sth	r3,46(r2)
    OS_EventTaskWaitMulti(pevents_pend);                /* Suspend task until events or timeout occurs */
   449c4:	e13ffc17 	ldw	r4,-16(fp)
   449c8:	00454f80 	call	454f8 <OS_EventTaskWaitMulti>
   449cc:	e0bff317 	ldw	r2,-52(fp)
   449d0:	e0bff815 	stw	r2,-32(fp)
   449d4:	e0bff817 	ldw	r2,-32(fp)
   449d8:	1001703a 	wrctl	status,r2

    OS_EXIT_CRITICAL();
    OS_Sched();                                         /* Find next highest priority task ready       */
   449dc:	0045c6c0 	call	45c6c <OS_Sched>
static ALT_INLINE alt_irq_context ALT_ALWAYS_INLINE 
       alt_irq_disable_all (void)
{
  alt_irq_context context;

  NIOS2_READ_STATUS (context);
   449e0:	0005303a 	rdctl	r2,status
   449e4:	e0bff915 	stw	r2,-28(fp)

  NIOS2_WRITE_STATUS (context & ~NIOS2_STATUS_PIE_MSK);
   449e8:	e0fff917 	ldw	r3,-28(fp)
   449ec:	00bfff84 	movi	r2,-2
   449f0:	1884703a 	and	r2,r3,r2
   449f4:	1001703a 	wrctl	status,r2
  
  return context;
   449f8:	e0bff917 	ldw	r2,-28(fp)
    OS_ENTER_CRITICAL();
   449fc:	e0bff315 	stw	r2,-52(fp)

    switch (OSTCBCur->OSTCBStatPend) {                  /* Handle event posted, aborted, or timed-out  */
   44a00:	d0a73917 	ldw	r2,-25372(gp)
   44a04:	10800c43 	ldbu	r2,49(r2)
   44a08:	10803fcc 	andi	r2,r2,255
   44a0c:	10000226 	beq	r2,zero,44a18 <OSEventPendMulti+0x468>
   44a10:	108000a0 	cmpeqi	r2,r2,2
   44a14:	10001826 	beq	r2,zero,44a78 <OSEventPendMulti+0x4c8>
        case OS_STAT_PEND_OK:
        case OS_STAT_PEND_ABORT:
             pevent = OSTCBCur->OSTCBEventPtr;
   44a18:	d0a73917 	ldw	r2,-25372(gp)
   44a1c:	10800717 	ldw	r2,28(r2)
   44a20:	e0bff015 	stw	r2,-64(fp)
             if (pevent != (OS_EVENT *)0) {             /* If task event ptr != NULL, ...              */
   44a24:	e0bff017 	ldw	r2,-64(fp)
   44a28:	10000b26 	beq	r2,zero,44a58 <OSEventPendMulti+0x4a8>
                *pevents_rdy++ =  pevent;               /* ... return available event ...              */
   44a2c:	e0bffd17 	ldw	r2,-12(fp)
   44a30:	10c00104 	addi	r3,r2,4
   44a34:	e0fffd15 	stw	r3,-12(fp)
   44a38:	e0fff017 	ldw	r3,-64(fp)
   44a3c:	10c00015 	stw	r3,0(r2)
                *pevents_rdy   = (OS_EVENT *)0;         /* ... & NULL terminate return event array     */
   44a40:	e0bffd17 	ldw	r2,-12(fp)
   44a44:	10000015 	stw	zero,0(r2)
                  events_rdy_nbr++;
   44a48:	e0bff18b 	ldhu	r2,-58(fp)
   44a4c:	10800044 	addi	r2,r2,1
   44a50:	e0bff18d 	sth	r2,-58(fp)

             } else {                                   /* Else NO event available, handle as timeout  */
                 OSTCBCur->OSTCBStatPend = OS_STAT_PEND_TO;
                 OS_EventTaskRemoveMulti(OSTCBCur, pevents_pend);
             }
			 break;
   44a54:	00000d06 	br	44a8c <OSEventPendMulti+0x4dc>
                *pevents_rdy++ =  pevent;               /* ... return available event ...              */
                *pevents_rdy   = (OS_EVENT *)0;         /* ... & NULL terminate return event array     */
                  events_rdy_nbr++;

             } else {                                   /* Else NO event available, handle as timeout  */
                 OSTCBCur->OSTCBStatPend = OS_STAT_PEND_TO;
   44a58:	d0a73917 	ldw	r2,-25372(gp)
   44a5c:	00c00044 	movi	r3,1
   44a60:	10c00c45 	stb	r3,49(r2)
                 OS_EventTaskRemoveMulti(OSTCBCur, pevents_pend);
   44a64:	d0a73917 	ldw	r2,-25372(gp)
   44a68:	1009883a 	mov	r4,r2
   44a6c:	e17ffc17 	ldw	r5,-16(fp)
   44a70:	00456f80 	call	456f8 <OS_EventTaskRemoveMulti>
             }
			 break;
   44a74:	00000506 	br	44a8c <OSEventPendMulti+0x4dc>

        case OS_STAT_PEND_TO:
        default:                                        /* ... remove task from events' wait lists     */
             OS_EventTaskRemoveMulti(OSTCBCur, pevents_pend);
   44a78:	d0a73917 	ldw	r2,-25372(gp)
   44a7c:	1009883a 	mov	r4,r2
   44a80:	e17ffc17 	ldw	r5,-16(fp)
   44a84:	00456f80 	call	456f8 <OS_EventTaskRemoveMulti>
             break;
   44a88:	0001883a 	nop
    }

    switch (OSTCBCur->OSTCBStatPend) {
   44a8c:	d0a73917 	ldw	r2,-25372(gp)
   44a90:	10800c43 	ldbu	r2,49(r2)
   44a94:	10803fcc 	andi	r2,r2,255
   44a98:	10000326 	beq	r2,zero,44aa8 <OSEventPendMulti+0x4f8>
   44a9c:	108000a0 	cmpeqi	r2,r2,2
   44aa0:	1000231e 	bne	r2,zero,44b30 <OSEventPendMulti+0x580>
   44aa4:	00002a06 	br	44b50 <OSEventPendMulti+0x5a0>
        case OS_STAT_PEND_OK:
             switch (pevent->OSEventType) {             /* Return event's message                      */
   44aa8:	e0bff017 	ldw	r2,-64(fp)
   44aac:	10800003 	ldbu	r2,0(r2)
   44ab0:	10803fcc 	andi	r2,r2,255
   44ab4:	0080100e 	bge	zero,r2,44af8 <OSEventPendMulti+0x548>
   44ab8:	10c000d0 	cmplti	r3,r2,3
   44abc:	1800071e 	bne	r3,zero,44adc <OSEventPendMulti+0x52c>
   44ac0:	108000e0 	cmpeqi	r2,r2,3
   44ac4:	10000c26 	beq	r2,zero,44af8 <OSEventPendMulti+0x548>
#if (OS_SEM_EN > 0)
                 case OS_EVENT_TYPE_SEM:
                     *pmsgs_rdy++ = (void *)0;          /* NO message returned for semaphores          */
   44ac8:	e0bffe17 	ldw	r2,-8(fp)
   44acc:	10c00104 	addi	r3,r2,4
   44ad0:	e0fffe15 	stw	r3,-8(fp)
   44ad4:	10000015 	stw	zero,0(r2)
                      break;
   44ad8:	00001206 	br	44b24 <OSEventPendMulti+0x574>

#if ((OS_MBOX_EN > 0) ||                 \
    ((OS_Q_EN    > 0) && (OS_MAX_QS > 0)))
                 case OS_EVENT_TYPE_MBOX:
